 bugreporter_filequeue

 Timestamp is 6286019c (Thu May 19 01:36:44 2022)

 Preferred load address is 10000000

 Start         Length     Name                   Class
 0001:00000000 000561cdH .textbss                DATA
 0002:00000000 000b134aH .text                   CODE
 0002:000b1350 0000114dH .text$x                 CODE
 0002:000b24a0 000019f4H .text$yc                CODE
 0002:000b3ea0 0000113eH .text$yd                CODE
 0003:00000000 00000104H .CRT$XCA                DATA
 0003:00000104 00000186H .CRT$XCU                DATA
 0003:0000028c 00000104H .CRT$XCZ                DATA
 0003:00000390 00000104H .CRT$XIA                DATA
 0003:00000494 00000118H .CRT$XIC                DATA
 0003:000005ac 00000104H .CRT$XIY                DATA
 0003:000006b0 00000104H .CRT$XIZ                DATA
 0003:000007b4 00000104H .CRT$XPA                DATA
 0003:000008b8 00000109H .CRT$XPX                DATA
 0003:000009c4 00000104H .CRT$XPXA               DATA
 0003:00000ac8 00000104H .CRT$XPZ                DATA
 0003:00000bcc 00000104H .CRT$XTA                DATA
 0003:00000cd0 00000104H .CRT$XTB                DATA
 0003:00000dd4 00000104H .CRT$XTZ                DATA
 0003:00000ee0 000111a0H .rdata                  DATA
 0003:00012080 0000019dH .rdata$debug            DATA
 0003:00012220 00000ad4H .rdata$r                DATA
 0003:00012cf4 00000104H .rtc$IAA                DATA
 0003:00012df8 0000011cH .rtc$IMZ                DATA
 0003:00012f14 00000104H .rtc$IZZ                DATA
 0003:00013018 00000104H .rtc$TAA                DATA
 0003:0001311c 0000011cH .rtc$TMZ                DATA
 0003:00013238 00000104H .rtc$TZZ                DATA
 0003:00013340 000010c1H .xdata$x                DATA
 0003:00014410 00000187H .edata                  DATA
 0004:00000000 00002edaH .data                   DATA
 0004:00002ee0 00005990H .bss                    DATA
 0005:00000000 0000003cH .idata$2                DATA
 0005:0000003c 00000014H .idata$3                DATA
 0005:00000050 000002f0H .idata$4                DATA
 0005:00000340 000002f0H .idata$5                DATA
 0005:00000630 00000c04H .idata$6                DATA
 0006:00000000 00000109H ValveDBG                DATA

  Address         Publics by Value              Rva+Base       Lib:Object

 0000:00000000       ___safe_se_handler_count   00000000     <absolute>
 0000:00000000       ___safe_se_handler_table   00000000     <absolute>
 0000:00000000       __except_list              00000000     <absolute>
 0000:00000000       ___ImageBase               10000000     <linker-defined>
 0001:00000000       __enc$textbss$begin        10001000     <linker-defined>
 0001:000561cd       __enc$textbss$end          100571cd     <linker-defined>
 0002:000058f0       ??_H@YGXPAXIHP6EPAX0@Z@Z   1005d8f0 f i bugreporter.obj
 0002:00005960       ?CUtlSymbol_LessThan@@YA_NABVCUtlSymbol@@0@Z 1005d960 f   bugreporter.obj
 0002:000059c0       ??0CBugReporter@@QAE@XZ    1005d9c0 f   bugreporter.obj
 0002:00005b50       ??0CUtlSymbol@@QAE@XZ      1005db50 f i bugreporter.obj
 0002:00005ba0       ?IsPublicUI@CBugReporter@@UAE_NXZ 1005dba0 f i bugreporter.obj
 0002:00005be0       ?SetZipAttachmentName@CBugReporter@@UAEXPBD@Z 1005dbe0 f i bugreporter.obj
 0002:00005c20       ?SetCSERAddress@CBugReporter@@UAEXABUnetadr_s@@@Z 1005dc20 f i bugreporter.obj
 0002:00005c60       ?SetExeName@CBugReporter@@UAEXPBD@Z 1005dc60 f i bugreporter.obj
 0002:00005ca0       ?SetGameDirectory@CBugReporter@@UAEXPBD@Z 1005dca0 f i bugreporter.obj
 0002:00005ce0       ?SetRAM@CBugReporter@@UAEXH@Z 1005dce0 f i bugreporter.obj
 0002:00005d20       ?SetCPU@CBugReporter@@UAEXH@Z 1005dd20 f i bugreporter.obj
 0002:00005d60       ?SetProcessor@CBugReporter@@UAEXPBD@Z 1005dd60 f i bugreporter.obj
 0002:00005da0       ?SetDXVersion@CBugReporter@@UAEXIIII@Z 1005dda0 f i bugreporter.obj
 0002:00005de0       ?SetOSVersion@CBugReporter@@UAEXPBD@Z 1005dde0 f i bugreporter.obj
 0002:00005e20       ?SetSteamUserID@CBugReporter@@UAEXPAXH@Z 1005de20 f i bugreporter.obj
 0002:00005e60       ??_GCBugReporter@@UAEPAXI@Z 1005de60 f i bugreporter.obj
 0002:00005e60       ??_ECBugReporter@@UAEPAXI@Z 1005de60 f i bugreporter.obj
 0002:00005ed0       ??0IBugReporter@@QAE@XZ    1005ded0 f i bugreporter.obj
 0002:00005f30       ??_EIBugReporter@@UAEPAXI@Z 1005df30 f i bugreporter.obj
 0002:00005f30       ??_GIBugReporter@@UAEPAXI@Z 1005df30 f i bugreporter.obj
 0002:00005fa0       ??1IBugReporter@@UAE@XZ    1005dfa0 f i bugreporter.obj
 0002:00005ff0       ??1IBaseInterface@@UAE@XZ  1005dff0 f i bugreporter.obj
 0002:00006030       ??_GIBaseInterface@@UAEPAXI@Z 1005e030 f i bugreporter.obj
 0002:00006030       ??_EIBaseInterface@@UAEPAXI@Z 1005e030 f i bugreporter.obj
 0002:000060a0       ??0IBaseInterface@@QAE@XZ  1005e0a0 f i bugreporter.obj
 0002:000060f0       ??1CBugReporter@@UAE@XZ    1005e0f0 f   bugreporter.obj
 0002:000062c0       ??1?$CUtlMap@VCUtlSymbol@@PAV?$CUtlVector@VCUtlSymbol@@V?$CUtlMemory@VCUtlSymbol@@H@@@@G@@QAE@XZ 1005e2c0 f i bugreporter.obj
 0002:00006310       ??_GCBug@@QAEPAXI@Z        1005e310 f i bugreporter.obj
 0002:00006380       ??1CBug@@QAE@XZ            1005e380 f i bugreporter.obj
 0002:000063e0       ?Init@CBugReporter@@UAE_NP6APAXPBDPAH@Z@Z 1005e3e0 f   bugreporter.obj
 0002:00006960       ??4CUtlSymbol@@QAEAAV0@ABV0@@Z 1005e960 f i bugreporter.obj
 0002:000069b0       ?Shutdown@CBugReporter@@UAEXXZ 1005e9b0 f   bugreporter.obj
 0002:000069f0       ?GetUserNameA@CBugReporter@@UAEPBDXZ 1005e9f0 f   bugreporter.obj
 0002:00006a60       ??0CUtlSymbol@@QAE@ABV0@@Z 1005ea60 f i bugreporter.obj
 0002:00006ab0       ?GetUserName_Display@CBugReporter@@UAEPBDXZ 1005eab0 f   bugreporter.obj
 0002:00006b30       ?GetNameCount@CBugReporter@@UAEHXZ 1005eb30 f   bugreporter.obj
 0002:00006b90       ?GetName@CBugReporter@@UAEPBDH@Z 1005eb90 f   bugreporter.obj
 0002:00006c00       ?GetDisplayNameCount@CBugReporter@@UAEHXZ 1005ec00 f   bugreporter.obj
 0002:00006c60       ?GetDisplayName@CBugReporter@@UAEPBDH@Z 1005ec60 f   bugreporter.obj
 0002:00006d00       ?GetUserNameForIndex@CBugReporter@@UAEPBDH@Z 1005ed00 f   bugreporter.obj
 0002:00006da0       ?GetDisplayNameForUserName@CBugReporter@@UAEPBDPBD@Z 1005eda0 f   bugreporter.obj
 0002:00006ec0       ??8CUtlSymbol@@QBE_NABV0@@Z 1005eec0 f i bugreporter.obj
 0002:00006f20       ?GetUserNameForDisplayName@CBugReporter@@UAEPBDPBD@Z 1005ef20 f   bugreporter.obj
 0002:00007040       ?GetAreaMapForArea@CBugReporter@@UAEPBDPBD@Z 1005f040 f   bugreporter.obj
 0002:00007190       ?GetSeverityCount@CBugReporter@@UAEHXZ 1005f190 f   bugreporter.obj
 0002:000071f0       ?GetSeverity@CBugReporter@@UAEPBDH@Z 1005f1f0 f   bugreporter.obj
 0002:00007290       ?GetPriorityCount@CBugReporter@@UAEHXZ 1005f290 f   bugreporter.obj
 0002:000072f0       ?GetPriority@CBugReporter@@UAEPBDH@Z 1005f2f0 f   bugreporter.obj
 0002:00007390       ?GetAreaCount@CBugReporter@@UAEHXZ 1005f390 f   bugreporter.obj
 0002:000073f0       ?GetArea@CBugReporter@@UAEPBDH@Z 1005f3f0 f   bugreporter.obj
 0002:00007490       ?GetAreaMapCount@CBugReporter@@UAEHXZ 1005f490 f   bugreporter.obj
 0002:000074f0       ?GetAreaMap@CBugReporter@@UAEPBDH@Z 1005f4f0 f   bugreporter.obj
 0002:00007590       ?GetMapNumberCount@CBugReporter@@UAEHXZ 1005f590 f   bugreporter.obj
 0002:000075f0       ?GetMapNumber@CBugReporter@@UAEPBDH@Z 1005f5f0 f   bugreporter.obj
 0002:00007690       ?GetReportTypeCount@CBugReporter@@UAEHXZ 1005f690 f   bugreporter.obj
 0002:000076f0       ?GetReportType@CBugReporter@@UAEPBDH@Z 1005f6f0 f   bugreporter.obj
 0002:00007790       ?GetRepositoryURL@CBugReporter@@UAEPBDXZ 1005f790 f   bugreporter.obj
 0002:000077d0       ?GetSubmissionURL@CBugReporter@@UAEPBDXZ 1005f7d0 f   bugreporter.obj
 0002:00007810       ?GetLevelCount@CBugReporter@@UAEHH@Z 1005f810 f   bugreporter.obj
 0002:00007930       ?GetLevel@CBugReporter@@UAEPBDHH@Z 1005f930 f   bugreporter.obj
 0002:00007a80       ?StartNewBugReport@CBugReporter@@UAEXXZ 1005fa80 f   bugreporter.obj
 0002:00007ca0       ??0CBug@@QAE@XZ            1005fca0 f i bugreporter.obj
 0002:00007d10       ?Clear@CBug@@QAEXXZ        1005fd10 f i bugreporter.obj
 0002:00008040       ?CancelNewBugReport@CBugReporter@@UAEXXZ 10060040 f   bugreporter.obj
 0002:000080c0       ?CommitBugReport@CBugReporter@@UAE_NAAH@Z 100600c0 f   bugreporter.obj
 0002:00008500       ?Base@CUtlBuffer@@QAEPAXXZ 10060500 f i bugreporter.obj
 0002:00008600       ??1CUtlBuffer@@QAE@XZ      10060600 f i bugreporter.obj
 0002:00008650       ?SetTitle@CBugReporter@@UAEXPBD@Z 10060650 f   bugreporter.obj
 0002:000087b0       ?SetDescription@CBugReporter@@UAEXPBD@Z 100607b0 f   bugreporter.obj
 0002:00008920       ?SetSubmitter@CBugReporter@@UAEXPBD@Z 10060920 f   bugreporter.obj
 0002:00008ab0       ?SetOwner@CBugReporter@@UAEXPBD@Z 10060ab0 f   bugreporter.obj
 0002:00008c20       ?SetSeverity@CBugReporter@@UAEXPBD@Z 10060c20 f   bugreporter.obj
 0002:00008d90       ?SetPriority@CBugReporter@@UAEXPBD@Z 10060d90 f   bugreporter.obj
 0002:00008f00       ?SetArea@CBugReporter@@UAEXPBD@Z 10060f00 f   bugreporter.obj
 0002:00009090       ?SetMapNumber@CBugReporter@@UAEXPBD@Z 10061090 f   bugreporter.obj
 0002:00009200       ?SetReportType@CBugReporter@@UAEXPBD@Z 10061200 f   bugreporter.obj
 0002:00009370       ?SetLevel@CBugReporter@@UAEXPBD@Z 10061370 f   bugreporter.obj
 0002:000094e0       ?SetDriverInfo@CBugReporter@@UAEXPBD@Z 100614e0 f   bugreporter.obj
 0002:00009650       ?SetMiscInfo@CBugReporter@@UAEXPBD@Z 10061650 f   bugreporter.obj
 0002:000097c0       ?SetPosition@CBugReporter@@UAEXPBD@Z 100617c0 f   bugreporter.obj
 0002:00009930       ?SetOrientation@CBugReporter@@UAEXPBD@Z 10061930 f   bugreporter.obj
 0002:00009aa0       ?SetBuildNumber@CBugReporter@@UAEXPBD@Z 10061aa0 f   bugreporter.obj
 0002:00009c10       ?SetScreenShot@CBugReporter@@UAEXPBD@Z 10061c10 f   bugreporter.obj
 0002:00009d80       ?SetSaveGame@CBugReporter@@UAEXPBD@Z 10061d80 f   bugreporter.obj
 0002:00009ef0       ?SetBSPName@CBugReporter@@UAEXPBD@Z 10061ef0 f   bugreporter.obj
 0002:0000a060       ?SetVMFName@CBugReporter@@UAEXPBD@Z 10062060 f   bugreporter.obj
 0002:0000a1d0       ?AddIncludedFile@CBugReporter@@UAEXPBD@Z 100621d0 f   bugreporter.obj
 0002:0000a2a0       ?ResetIncludedFiles@CBugReporter@@UAEXXZ 100622a0 f   bugreporter.obj
 0002:0000a300       ?PopulateChoiceList@CBugReporter@@AAE_NPBDAAV?$CUtlVector@VCUtlSymbol@@V?$CUtlMemory@VCUtlSymbol@@H@@@@@Z 10062300 f   bugreporter.obj
 0002:0000a3f0       ?SymbolLessThan@CBugReporter@@QAE_NABVCUtlSymbol@@0@Z 100623f0 f   bugreporter.obj
 0002:0000a4b0       ?PopulateLists@CBugReporter@@AAE_NXZ 100624b0 f   bugreporter.obj
 0002:0000ab70       ?IsValid@CUtlSymbol@@QBE_NXZ 10062b70 f i bugreporter.obj
 0002:0000abc0       ??0?$CUtlMap@VCUtlSymbol@@PAV?$CUtlVector@VCUtlSymbol@@V?$CUtlMemory@VCUtlSymbol@@H@@@@G@@QAE@HHP6A_NABVCUtlSymbol@@0@Z@Z 10062bc0 f i bugreporter.obj
 0002:0000ac40       ??A?$CUtlMap@VCUtlSymbol@@PAV?$CUtlVector@VCUtlSymbol@@V?$CUtlMemory@VCUtlSymbol@@H@@@@G@@QAEAAPAV?$CUtlVector@VCUtlSymbol@@V?$CUtlMemory@VCUtlSymbol@@H@@@@G@Z 10062c40 f i bugreporter.obj
 0002:0000aca0       ?IsValidIndex@?$CUtlMap@VCUtlSymbol@@PAV?$CUtlVector@VCUtlSymbol@@V?$CUtlMemory@VCUtlSymbol@@H@@@@G@@QBE_NG@Z 10062ca0 f i bugreporter.obj
 0002:0000ad00       ?SetLessFunc@?$CUtlMap@VCUtlSymbol@@PAV?$CUtlVector@VCUtlSymbol@@V?$CUtlMemory@VCUtlSymbol@@H@@@@G@@QAEXP6A_NABVCUtlSymbol@@0@Z@Z 10062d00 f i bugreporter.obj
 0002:0000ad70       ?Insert@?$CUtlMap@VCUtlSymbol@@PAV?$CUtlVector@VCUtlSymbol@@V?$CUtlMemory@VCUtlSymbol@@H@@@@G@@QAEGABVCUtlSymbol@@ABQAV?$CUtlVector@VCUtlSymbol@@V?$CUtlMemory@VCUtlSymbol@@H@@@@@Z 10062d70 f i bugreporter.obj
 0002:0000ae20       ?Find@?$CUtlMap@VCUtlSymbol@@PAV?$CUtlVector@VCUtlSymbol@@V?$CUtlMemory@VCUtlSymbol@@H@@@@G@@QBEGABVCUtlSymbol@@@Z 10062e20 f i bugreporter.obj
 0002:0000aed0       ?RemoveAll@?$CUtlMap@VCUtlSymbol@@PAV?$CUtlVector@VCUtlSymbol@@V?$CUtlMemory@VCUtlSymbol@@H@@@@G@@QAEXXZ 10062ed0 f i bugreporter.obj
 0002:0000af20       ??0CKeyLess@?$CUtlMap@VCUtlSymbol@@PAV?$CUtlVector@VCUtlSymbol@@V?$CUtlMemory@VCUtlSymbol@@H@@@@G@@QAE@P6A_NABVCUtlSymbol@@0@Z@Z 10062f20 f i bugreporter.obj
 0002:0000af70       ??0Node_t@?$CUtlMap@VCUtlSymbol@@PAV?$CUtlVector@VCUtlSymbol@@V?$CUtlMemory@VCUtlSymbol@@H@@@@G@@QAE@XZ 10062f70 f i bugreporter.obj
 0002:0000afd0       ??1?$CUtlMemory@EH@@QAE@XZ 10062fd0 f i bugreporter.obj
 0002:0000b020       ?Base@?$CUtlMemory@EH@@QAEPAEXZ 10063020 f i bugreporter.obj
 0002:0000b160       ?Purge@?$CUtlMemory@EH@@QAEXXZ 10063160 f i bugreporter.obj
 0002:0000b210       ?IsExternallyAllocated@?$CUtlMemory@EH@@QBE_NXZ 10063210 f i bugreporter.obj
 0002:0000b260       ??0?$CUtlVector@Uincfile@CBug@@V?$CUtlMemory@Uincfile@CBug@@H@@@@QAE@HH@Z 10063260 f i bugreporter.obj
 0002:0000b2e0       ??1?$CUtlVector@Uincfile@CBug@@V?$CUtlMemory@Uincfile@CBug@@H@@@@QAE@XZ 100632e0 f i bugreporter.obj
 0002:0000b340       ?AddToTail@?$CUtlVector@Uincfile@CBug@@V?$CUtlMemory@Uincfile@CBug@@H@@@@QAEHABUincfile@CBug@@@Z 10063340 f i bugreporter.obj
 0002:0000b4d0       ?Purge@?$CUtlVector@Uincfile@CBug@@V?$CUtlMemory@Uincfile@CBug@@H@@@@QAEXXZ 100634d0 f i bugreporter.obj
 0002:0000b540       ??0?$CUtlVector@VCUtlSymbol@@V?$CUtlMemory@VCUtlSymbol@@H@@@@QAE@HH@Z 10063540 f i bugreporter.obj
 0002:0000b5c0       ??1?$CUtlVector@VCUtlSymbol@@V?$CUtlMemory@VCUtlSymbol@@H@@@@QAE@XZ 100635c0 f i bugreporter.obj
 0002:0000b620       ??A?$CUtlVector@VCUtlSymbol@@V?$CUtlMemory@VCUtlSymbol@@H@@@@QAEAAVCUtlSymbol@@H@Z 10063620 f i bugreporter.obj
 0002:0000b680       ?Count@?$CUtlVector@VCUtlSymbol@@V?$CUtlMemory@VCUtlSymbol@@H@@@@QBEHXZ 10063680 f i bugreporter.obj
 0002:0000b6c0       ?AddToTail@?$CUtlVector@VCUtlSymbol@@V?$CUtlMemory@VCUtlSymbol@@H@@@@QAEHABVCUtlSymbol@@@Z 100636c0 f i bugreporter.obj
 0002:0000b850       ?Purge@?$CUtlVector@VCUtlSymbol@@V?$CUtlMemory@VCUtlSymbol@@H@@@@QAEXXZ 10063850 f i bugreporter.obj
 0002:0000b8c0       ??0?$CUtlRBTree@UNode_t@?$CUtlMap@VCUtlSymbol@@PAV?$CUtlVector@VCUtlSymbol@@V?$CUtlMemory@VCUtlSymbol@@H@@@@G@@GVCKeyLess@2@V?$CUtlMemory@U?$UtlRBTreeNode_t@UNode_t@?$CUtlMap@VCUtlSymbol@@PAV?$CUtlVector@VCUtlSymbol@@V?$CUtlMemory@VCUtlSymbol@@H@@@@G@@G@@G@@@@QAE@HHABVCKeyLess@?$CUtlMap@VCUtlSymbol@@PAV?$CUtlVector@VCUtlSymbol@@V?$CUtlMemory@VCUtlSymbol@@H@@@@G@@@Z 100638c0 f i bugreporter.obj
 0002:0000b980       ??1?$CUtlRBTree@UNode_t@?$CUtlMap@VCUtlSymbol@@PAV?$CUtlVector@VCUtlSymbol@@V?$CUtlMemory@VCUtlSymbol@@H@@@@G@@GVCKeyLess@2@V?$CUtlMemory@U?$UtlRBTreeNode_t@UNode_t@?$CUtlMap@VCUtlSymbol@@PAV?$CUtlVector@VCUtlSymbol@@V?$CUtlMemory@VCUtlSymbol@@H@@@@G@@G@@G@@@@QAE@XZ 10063980 f i bugreporter.obj
 0002:0000b9e0       ?Element@?$CUtlRBTree@UNode_t@?$CUtlMap@VCUtlSymbol@@PAV?$CUtlVector@VCUtlSymbol@@V?$CUtlMemory@VCUtlSymbol@@H@@@@G@@GVCKeyLess@2@V?$CUtlMemory@U?$UtlRBTreeNode_t@UNode_t@?$CUtlMap@VCUtlSymbol@@PAV?$CUtlVector@VCUtlSymbol@@V?$CUtlMemory@VCUtlSymbol@@H@@@@G@@G@@G@@@@QAEAAUNode_t@?$CUtlMap@VCUtlSymbol@@PAV?$CUtlVector@VCUtlSymbol@@V?$CUtlMemory@VCUtlSymbol@@H@@@@G@@G@Z 100639e0 f i bugreporter.obj
 0002:0000ba40       ?IsValidIndex@?$CUtlRBTree@UNode_t@?$CUtlMap@VCUtlSymbol@@PAV?$CUtlVector@VCUtlSymbol@@V?$CUtlMemory@VCUtlSymbol@@H@@@@G@@GVCKeyLess@2@V?$CUtlMemory@U?$UtlRBTreeNode_t@UNode_t@?$CUtlMap@VCUtlSymbol@@PAV?$CUtlVector@VCUtlSymbol@@V?$CUtlMemory@VCUtlSymbol@@H@@@@G@@G@@G@@@@QBE_NG@Z 10063a40 f i bugreporter.obj
 0002:0000bb00       ?SetLessFunc@?$CUtlRBTree@UNode_t@?$CUtlMap@VCUtlSymbol@@PAV?$CUtlVector@VCUtlSymbol@@V?$CUtlMemory@VCUtlSymbol@@H@@@@G@@GVCKeyLess@2@V?$CUtlMemory@U?$UtlRBTreeNode_t@UNode_t@?$CUtlMap@VCUtlSymbol@@PAV?$CUtlVector@VCUtlSymbol@@V?$CUtlMemory@VCUtlSymbol@@H@@@@G@@G@@G@@@@QAEXABVCKeyLess@?$CUtlMap@VCUtlSymbol@@PAV?$CUtlVector@VCUtlSymbol@@V?$CUtlMemory@VCUtlSymbol@@H@@@@G@@@Z 10063b00 f i bugreporter.obj
 0002:0000bc70       ?Insert@?$CUtlRBTree@UNode_t@?$CUtlMap@VCUtlSymbol@@PAV?$CUtlVector@VCUtlSymbol@@V?$CUtlMemory@VCUtlSymbol@@H@@@@G@@GVCKeyLess@2@V?$CUtlMemory@U?$UtlRBTreeNode_t@UNode_t@?$CUtlMap@VCUtlSymbol@@PAV?$CUtlVector@VCUtlSymbol@@V?$CUtlMemory@VCUtlSymbol@@H@@@@G@@G@@G@@@@QAEGABUNode_t@?$CUtlMap@VCUtlSymbol@@PAV?$CUtlVector@VCUtlSymbol@@V?$CUtlMemory@VCUtlSymbol@@H@@@@G@@@Z 10063c70 f i bugreporter.obj
 0002:0000bd70       ?Find@?$CUtlRBTree@UNode_t@?$CUtlMap@VCUtlSymbol@@PAV?$CUtlVector@VCUtlSymbol@@V?$CUtlMemory@VCUtlSymbol@@H@@@@G@@GVCKeyLess@2@V?$CUtlMemory@U?$UtlRBTreeNode_t@UNode_t@?$CUtlMap@VCUtlSymbol@@PAV?$CUtlVector@VCUtlSymbol@@V?$CUtlMemory@VCUtlSymbol@@H@@@@G@@G@@G@@@@QBEGABUNode_t@?$CUtlMap@VCUtlSymbol@@PAV?$CUtlVector@VCUtlSymbol@@V?$CUtlMemory@VCUtlSymbol@@H@@@@G@@@Z 10063d70 f i bugreporter.obj
 0002:0000bf60       ?RemoveAll@?$CUtlRBTree@UNode_t@?$CUtlMap@VCUtlSymbol@@PAV?$CUtlVector@VCUtlSymbol@@V?$CUtlMemory@VCUtlSymbol@@H@@@@G@@GVCKeyLess@2@V?$CUtlMemory@U?$UtlRBTreeNode_t@UNode_t@?$CUtlMap@VCUtlSymbol@@PAV?$CUtlVector@VCUtlSymbol@@V?$CUtlMemory@VCUtlSymbol@@H@@@@G@@G@@G@@@@QAEXXZ 10063f60 f i bugreporter.obj
 0002:0000c510       ?Base@?$CUtlVector@Uincfile@CBug@@V?$CUtlMemory@Uincfile@CBug@@H@@@@QAEPAUincfile@CBug@@XZ 10064510 f i bugreporter.obj
 0002:0000c560       ?ResetDbgInfo@?$CUtlVector@Uincfile@CBug@@V?$CUtlMemory@Uincfile@CBug@@H@@@@IAEXXZ 10064560 f i bugreporter.obj
 0002:0000c5c0       ?Base@?$CUtlVector@VCUtlSymbol@@V?$CUtlMemory@VCUtlSymbol@@H@@@@QAEPAVCUtlSymbol@@XZ 100645c0 f i bugreporter.obj
 0002:0000c610       ?ResetDbgInfo@?$CUtlVector@VCUtlSymbol@@V?$CUtlMemory@VCUtlSymbol@@H@@@@IAEXXZ 10064610 f i bugreporter.obj
 0002:0000c670       ?ResetDbgInfo@?$CUtlRBTree@UNode_t@?$CUtlMap@VCUtlSymbol@@PAV?$CUtlVector@VCUtlSymbol@@V?$CUtlMemory@VCUtlSymbol@@H@@@@G@@GVCKeyLess@2@V?$CUtlMemory@U?$UtlRBTreeNode_t@UNode_t@?$CUtlMap@VCUtlSymbol@@PAV?$CUtlVector@VCUtlSymbol@@V?$CUtlMemory@VCUtlSymbol@@H@@@@G@@G@@G@@@@IAEXXZ 10064670 f i bugreporter.obj
 0002:0000c6d0       ??7CKeyLess@?$CUtlMap@VCUtlSymbol@@PAV?$CUtlVector@VCUtlSymbol@@V?$CUtlMemory@VCUtlSymbol@@H@@@@G@@QBE_NXZ 100646d0 f i bugreporter.obj
 0002:0000c720       ??RCKeyLess@?$CUtlMap@VCUtlSymbol@@PAV?$CUtlVector@VCUtlSymbol@@V?$CUtlMemory@VCUtlSymbol@@H@@@@G@@QBE_NABUNode_t@1@0@Z 10064720 f i bugreporter.obj
 0002:0000c790       ?First@?$CUtlMemory@U?$UtlRBTreeNode_t@UNode_t@?$CUtlMap@VCUtlSymbol@@PAV?$CUtlVector@VCUtlSymbol@@V?$CUtlMemory@VCUtlSymbol@@H@@@@G@@G@@G@@QBE?AVIterator_t@1@XZ 10064790 f i bugreporter.obj
 0002:0000c830       ?Next@?$CUtlMemory@U?$UtlRBTreeNode_t@UNode_t@?$CUtlMap@VCUtlSymbol@@PAV?$CUtlVector@VCUtlSymbol@@V?$CUtlMemory@VCUtlSymbol@@H@@@@G@@G@@G@@QBE?AVIterator_t@1@ABV21@@Z 10064830 f i bugreporter.obj
 0002:0000c8e0       ?GetIndex@?$CUtlMemory@U?$UtlRBTreeNode_t@UNode_t@?$CUtlMap@VCUtlSymbol@@PAV?$CUtlVector@VCUtlSymbol@@V?$CUtlMemory@VCUtlSymbol@@H@@@@G@@G@@G@@QBEGABVIterator_t@1@@Z 100648e0 f i bugreporter.obj
 0002:0000c920       ?IsIdxAfter@?$CUtlMemory@U?$UtlRBTreeNode_t@UNode_t@?$CUtlMap@VCUtlSymbol@@PAV?$CUtlVector@VCUtlSymbol@@V?$CUtlMemory@VCUtlSymbol@@H@@@@G@@G@@G@@QBE_NGABVIterator_t@1@@Z 10064920 f i bugreporter.obj
 0002:0000c970       ?InvalidIterator@?$CUtlMemory@U?$UtlRBTreeNode_t@UNode_t@?$CUtlMap@VCUtlSymbol@@PAV?$CUtlVector@VCUtlSymbol@@V?$CUtlMemory@VCUtlSymbol@@H@@@@G@@G@@G@@QBE?AVIterator_t@1@XZ 10064970 f i bugreporter.obj
 0002:0000c9d0       ??8Iterator_t@?$CUtlMemory@U?$UtlRBTreeNode_t@UNode_t@?$CUtlMap@VCUtlSymbol@@PAV?$CUtlVector@VCUtlSymbol@@V?$CUtlMemory@VCUtlSymbol@@H@@@@G@@G@@G@@QBE_NV01@@Z 100649d0 f i bugreporter.obj
 0002:0000ca20       ??9Iterator_t@?$CUtlMemory@U?$UtlRBTreeNode_t@UNode_t@?$CUtlMap@VCUtlSymbol@@PAV?$CUtlVector@VCUtlSymbol@@V?$CUtlMemory@VCUtlSymbol@@H@@@@G@@G@@G@@QBE_NV01@@Z 10064a20 f i bugreporter.obj
 0002:0000ca70       ?InvalidIndex@?$CUtlMemory@U?$UtlRBTreeNode_t@UNode_t@?$CUtlMap@VCUtlSymbol@@PAV?$CUtlVector@VCUtlSymbol@@V?$CUtlMemory@VCUtlSymbol@@H@@@@G@@G@@G@@SAGXZ 10064a70 f i bugreporter.obj
 0002:0000cab0       ??0Iterator_t@?$CUtlMemory@U?$UtlRBTreeNode_t@UNode_t@?$CUtlMap@VCUtlSymbol@@PAV?$CUtlVector@VCUtlSymbol@@V?$CUtlMemory@VCUtlSymbol@@H@@@@G@@G@@G@@QAE@G@Z 10064ab0 f i bugreporter.obj
 0002:0000cb00       ?IsReadOnly@?$CUtlMemory@EH@@QBE_NXZ 10064b00 f i bugreporter.obj
 0002:0000cb50       ??0?$CUtlMemory@Uincfile@CBug@@H@@QAE@HH@Z 10064b50 f i bugreporter.obj
 0002:0000cd80       ??0CMemAllocAttributeAlloction@@QAE@PBDH@Z 10064d80 f i bugreporter.obj
 0002:0000ce00       ??1CMemAllocAttributeAlloction@@QAE@XZ 10064e00 f i bugreporter.obj
 0002:0000ce70       ??1?$CUtlMemory@Uincfile@CBug@@H@@QAE@XZ 10064e70 f i bugreporter.obj
 0002:0000cec0       ?Base@?$CUtlMemory@Uincfile@CBug@@H@@QAEPAUincfile@CBug@@XZ 10064ec0 f i bugreporter.obj
 0002:0000d000       ?Purge@?$CUtlMemory@Uincfile@CBug@@H@@QAEXXZ 10065000 f i bugreporter.obj
 0002:0000d0b0       ?Count@?$CUtlVector@Uincfile@CBug@@V?$CUtlMemory@Uincfile@CBug@@H@@@@QBEHXZ 100650b0 f i bugreporter.obj
 0002:0000d0f0       ?InsertBefore@?$CUtlVector@Uincfile@CBug@@V?$CUtlMemory@Uincfile@CBug@@H@@@@QAEHHABUincfile@CBug@@@Z 100650f0 f i bugreporter.obj
 0002:0000d3b0       ?RemoveAll@?$CUtlVector@Uincfile@CBug@@V?$CUtlMemory@Uincfile@CBug@@H@@@@QAEXXZ 100653b0 f i bugreporter.obj
 0002:0000d440       ??0?$CUtlMemory@VCUtlSymbol@@H@@QAE@HH@Z 10065440 f i bugreporter.obj
 0002:0000d670       ??1?$CUtlMemory@VCUtlSymbol@@H@@QAE@XZ 10065670 f i bugreporter.obj
 0002:0000d6c0       ??A?$CUtlMemory@VCUtlSymbol@@H@@QAEAAVCUtlSymbol@@H@Z 100656c0 f i bugreporter.obj
 0002:0000d900       ?Base@?$CUtlMemory@VCUtlSymbol@@H@@QAEPAVCUtlSymbol@@XZ 10065900 f i bugreporter.obj
 0002:0000da40       ?Purge@?$CUtlMemory@VCUtlSymbol@@H@@QAEXXZ 10065a40 f i bugreporter.obj
 0002:0000daf0       ?InsertBefore@?$CUtlVector@VCUtlSymbol@@V?$CUtlMemory@VCUtlSymbol@@H@@@@QAEHHABVCUtlSymbol@@@Z 10065af0 f i bugreporter.obj
 0002:0000ddb0       ?RemoveAll@?$CUtlVector@VCUtlSymbol@@V?$CUtlMemory@VCUtlSymbol@@H@@@@QAEXXZ 10065db0 f i bugreporter.obj
 0002:0000de40       ??0?$CUtlMemory@U?$UtlRBTreeNode_t@UNode_t@?$CUtlMap@VCUtlSymbol@@PAV?$CUtlVector@VCUtlSymbol@@V?$CUtlMemory@VCUtlSymbol@@H@@@@G@@G@@G@@QAE@HH@Z 10065e40 f i bugreporter.obj
 0002:0000e070       ??1?$CUtlMemory@U?$UtlRBTreeNode_t@UNode_t@?$CUtlMap@VCUtlSymbol@@PAV?$CUtlVector@VCUtlSymbol@@V?$CUtlMemory@VCUtlSymbol@@H@@@@G@@G@@G@@QAE@XZ 10066070 f i bugreporter.obj
 0002:0000e0c0       ??A?$CUtlMemory@U?$UtlRBTreeNode_t@UNode_t@?$CUtlMap@VCUtlSymbol@@PAV?$CUtlVector@VCUtlSymbol@@V?$CUtlMemory@VCUtlSymbol@@H@@@@G@@G@@G@@QAEAAU?$UtlRBTreeNode_t@UNode_t@?$CUtlMap@VCUtlSymbol@@PAV?$CUtlVector@VCUtlSymbol@@V?$CUtlMemory@VCUtlSymbol@@H@@@@G@@G@@G@Z 100660c0 f i bugreporter.obj
 0002:0000e300       ?IsIdxValid@?$CUtlMemory@U?$UtlRBTreeNode_t@UNode_t@?$CUtlMap@VCUtlSymbol@@PAV?$CUtlVector@VCUtlSymbol@@V?$CUtlMemory@VCUtlSymbol@@H@@@@G@@G@@G@@QBE_NG@Z 10066300 f i bugreporter.obj
 0002:0000e380       ?Base@?$CUtlMemory@U?$UtlRBTreeNode_t@UNode_t@?$CUtlMap@VCUtlSymbol@@PAV?$CUtlVector@VCUtlSymbol@@V?$CUtlMemory@VCUtlSymbol@@H@@@@G@@G@@G@@QAEPAU?$UtlRBTreeNode_t@UNode_t@?$CUtlMap@VCUtlSymbol@@PAV?$CUtlVector@VCUtlSymbol@@V?$CUtlMemory@VCUtlSymbol@@H@@@@G@@G@@XZ 10066380 f i bugreporter.obj
 0002:0000e4c0       ?Element@?$CUtlRBTree@UNode_t@?$CUtlMap@VCUtlSymbol@@PAV?$CUtlVector@VCUtlSymbol@@V?$CUtlMemory@VCUtlSymbol@@H@@@@G@@GVCKeyLess@2@V?$CUtlMemory@U?$UtlRBTreeNode_t@UNode_t@?$CUtlMap@VCUtlSymbol@@PAV?$CUtlVector@VCUtlSymbol@@V?$CUtlMemory@VCUtlSymbol@@H@@@@G@@G@@G@@@@QBEABUNode_t@?$CUtlMap@VCUtlSymbol@@PAV?$CUtlVector@VCUtlSymbol@@V?$CUtlMemory@VCUtlSymbol@@H@@@@G@@G@Z 100664c0 f i bugreporter.obj
 0002:0000e520       ?Count@?$CUtlRBTree@UNode_t@?$CUtlMap@VCUtlSymbol@@PAV?$CUtlVector@VCUtlSymbol@@V?$CUtlMemory@VCUtlSymbol@@H@@@@G@@GVCKeyLess@2@V?$CUtlMemory@U?$UtlRBTreeNode_t@UNode_t@?$CUtlMap@VCUtlSymbol@@PAV?$CUtlVector@VCUtlSymbol@@V?$CUtlMemory@VCUtlSymbol@@H@@@@G@@G@@G@@@@QBEIXZ 10066520 f i bugreporter.obj
 0002:0000e560       ?LeftChild@?$CUtlRBTree@UNode_t@?$CUtlMap@VCUtlSymbol@@PAV?$CUtlVector@VCUtlSymbol@@V?$CUtlMemory@VCUtlSymbol@@H@@@@G@@GVCKeyLess@2@V?$CUtlMemory@U?$UtlRBTreeNode_t@UNode_t@?$CUtlMap@VCUtlSymbol@@PAV?$CUtlVector@VCUtlSymbol@@V?$CUtlMemory@VCUtlSymbol@@H@@@@G@@G@@G@@@@QBEGG@Z 10066560 f i bugreporter.obj
 0002:0000e5c0       ?RightChild@?$CUtlRBTree@UNode_t@?$CUtlMap@VCUtlSymbol@@PAV?$CUtlVector@VCUtlSymbol@@V?$CUtlMemory@VCUtlSymbol@@H@@@@G@@GVCKeyLess@2@V?$CUtlMemory@U?$UtlRBTreeNode_t@UNode_t@?$CUtlMap@VCUtlSymbol@@PAV?$CUtlVector@VCUtlSymbol@@V?$CUtlMemory@VCUtlSymbol@@H@@@@G@@G@@G@@@@QBEGG@Z 100665c0 f i bugreporter.obj
 0002:0000e620       ?IsValid@?$CUtlRBTree@UNode_t@?$CUtlMap@VCUtlSymbol@@PAV?$CUtlVector@VCUtlSymbol@@V?$CUtlMemory@VCUtlSymbol@@H@@@@G@@GVCKeyLess@2@V?$CUtlMemory@U?$UtlRBTreeNode_t@UNode_t@?$CUtlMap@VCUtlSymbol@@PAV?$CUtlVector@VCUtlSymbol@@V?$CUtlMemory@VCUtlSymbol@@H@@@@G@@G@@G@@@@QBE_NXZ 10066620 f i bugreporter.obj
 0002:0000e710       ?InvalidIndex@?$CUtlRBTree@UNode_t@?$CUtlMap@VCUtlSymbol@@PAV?$CUtlVector@VCUtlSymbol@@V?$CUtlMemory@VCUtlSymbol@@H@@@@G@@GVCKeyLess@2@V?$CUtlMemory@U?$UtlRBTreeNode_t@UNode_t@?$CUtlMap@VCUtlSymbol@@PAV?$CUtlVector@VCUtlSymbol@@V?$CUtlMemory@VCUtlSymbol@@H@@@@G@@G@@G@@@@SAGXZ 10066710 f i bugreporter.obj
 0002:0000e760       ?Purge@?$CUtlRBTree@UNode_t@?$CUtlMap@VCUtlSymbol@@PAV?$CUtlVector@VCUtlSymbol@@V?$CUtlMemory@VCUtlSymbol@@H@@@@G@@GVCKeyLess@2@V?$CUtlMemory@U?$UtlRBTreeNode_t@UNode_t@?$CUtlMap@VCUtlSymbol@@PAV?$CUtlVector@VCUtlSymbol@@V?$CUtlMemory@VCUtlSymbol@@H@@@@G@@G@@G@@@@QAEXXZ 10066760 f i bugreporter.obj
 0002:0000e7f0       ?SetLeftChild@?$CUtlRBTree@UNode_t@?$CUtlMap@VCUtlSymbol@@PAV?$CUtlVector@VCUtlSymbol@@V?$CUtlMemory@VCUtlSymbol@@H@@@@G@@GVCKeyLess@2@V?$CUtlMemory@U?$UtlRBTreeNode_t@UNode_t@?$CUtlMap@VCUtlSymbol@@PAV?$CUtlVector@VCUtlSymbol@@V?$CUtlMemory@VCUtlSymbol@@H@@@@G@@G@@G@@@@IAEXGG@Z 100667f0 f i bugreporter.obj
 0002:0000e850       ?SetRightChild@?$CUtlRBTree@UNode_t@?$CUtlMap@VCUtlSymbol@@PAV?$CUtlVector@VCUtlSymbol@@V?$CUtlMemory@VCUtlSymbol@@H@@@@G@@GVCKeyLess@2@V?$CUtlMemory@U?$UtlRBTreeNode_t@UNode_t@?$CUtlMap@VCUtlSymbol@@PAV?$CUtlVector@VCUtlSymbol@@V?$CUtlMemory@VCUtlSymbol@@H@@@@G@@G@@G@@@@IAEXGG@Z 10066850 f i bugreporter.obj
 0002:0000e8c0       ?InsertAt@?$CUtlRBTree@UNode_t@?$CUtlMap@VCUtlSymbol@@PAV?$CUtlVector@VCUtlSymbol@@V?$CUtlMemory@VCUtlSymbol@@H@@@@G@@GVCKeyLess@2@V?$CUtlMemory@U?$UtlRBTreeNode_t@UNode_t@?$CUtlMap@VCUtlSymbol@@PAV?$CUtlVector@VCUtlSymbol@@V?$CUtlMemory@VCUtlSymbol@@H@@@@G@@G@@G@@@@IAEGG_N@Z 100668c0 f i bugreporter.obj
 0002:0000ea40       ?FindInsertionPosition@?$CUtlRBTree@UNode_t@?$CUtlMap@VCUtlSymbol@@PAV?$CUtlVector@VCUtlSymbol@@V?$CUtlMemory@VCUtlSymbol@@H@@@@G@@GVCKeyLess@2@V?$CUtlMemory@U?$UtlRBTreeNode_t@UNode_t@?$CUtlMap@VCUtlSymbol@@PAV?$CUtlVector@VCUtlSymbol@@V?$CUtlMemory@VCUtlSymbol@@H@@@@G@@G@@G@@@@IAEXABUNode_t@?$CUtlMap@VCUtlSymbol@@PAV?$CUtlVector@VCUtlSymbol@@V?$CUtlMemory@VCUtlSymbol@@H@@@@G@@AAGAA_N@Z 10066a40 f i bugreporter.obj
 0002:0000ec20       ??$CopyConstruct@UNode_t@?$CUtlMap@VCUtlSymbol@@PAV?$CUtlVector@VCUtlSymbol@@V?$CUtlMemory@VCUtlSymbol@@H@@@@G@@@@YAXPAUNode_t@?$CUtlMap@VCUtlSymbol@@PAV?$CUtlVector@VCUtlSymbol@@V?$CUtlMemory@VCUtlSymbol@@H@@@@G@@ABU01@@Z 10066c20 f i bugreporter.obj
 0002:0000ecb0       ??2@YAPAXIPAX@Z            10066cb0 f i bugreporter.obj
 0002:0000ecf0       ??$Destruct@UNode_t@?$CUtlMap@VCUtlSymbol@@PAV?$CUtlVector@VCUtlSymbol@@V?$CUtlMemory@VCUtlSymbol@@H@@@@G@@@@YAXPAUNode_t@?$CUtlMap@VCUtlSymbol@@PAV?$CUtlVector@VCUtlSymbol@@V?$CUtlMemory@VCUtlSymbol@@H@@@@G@@@Z 10066cf0 f i bugreporter.obj
 0002:0000ed50       ?ValidateGrowSize@?$CUtlMemory@Uincfile@CBug@@H@@IAEXXZ 10066d50 f i bugreporter.obj
 0002:0000ed90       ?ValidateGrowSize@?$CUtlMemory@VCUtlSymbol@@H@@IAEXXZ 10066d90 f i bugreporter.obj
 0002:0000edd0       ?ValidateGrowSize@?$CUtlMemory@U?$UtlRBTreeNode_t@UNode_t@?$CUtlMap@VCUtlSymbol@@PAV?$CUtlVector@VCUtlSymbol@@V?$CUtlMemory@VCUtlSymbol@@H@@@@G@@G@@G@@IAEXXZ 10066dd0 f i bugreporter.obj
 0002:0000ee10       ??0Node_t@?$CUtlMap@VCUtlSymbol@@PAV?$CUtlVector@VCUtlSymbol@@V?$CUtlMemory@VCUtlSymbol@@H@@@@G@@QAE@ABU01@@Z 10066e10 f i bugreporter.obj
 0002:0000ee80       ?IsExternallyAllocated@?$CUtlMemory@Uincfile@CBug@@H@@QBE_NXZ 10066e80 f i bugreporter.obj
 0002:0000eed0       ?IsReadOnly@?$CUtlMemory@Uincfile@CBug@@H@@QBE_NXZ 10066ed0 f i bugreporter.obj
 0002:0000ef20       ?Element@?$CUtlVector@Uincfile@CBug@@V?$CUtlMemory@Uincfile@CBug@@H@@@@QAEAAUincfile@CBug@@H@Z 10066f20 f i bugreporter.obj
 0002:0000ef80       ?IsValidIndex@?$CUtlVector@Uincfile@CBug@@V?$CUtlMemory@Uincfile@CBug@@H@@@@QBE_NH@Z 10066f80 f i bugreporter.obj
 0002:0000eff0       ?GrowVector@?$CUtlVector@Uincfile@CBug@@V?$CUtlMemory@Uincfile@CBug@@H@@@@IAEXH@Z 10066ff0 f i bugreporter.obj
 0002:0000f110       ?ShiftElementsRight@?$CUtlVector@Uincfile@CBug@@V?$CUtlMemory@Uincfile@CBug@@H@@@@IAEXHH@Z 10067110 f i bugreporter.obj
 0002:0000f2d0       ?IsIdxValid@?$CUtlMemory@VCUtlSymbol@@H@@QBE_NH@Z 100672d0 f i bugreporter.obj
 0002:0000f340       ?IsExternallyAllocated@?$CUtlMemory@VCUtlSymbol@@H@@QBE_NXZ 10067340 f i bugreporter.obj
 0002:0000f390       ?IsReadOnly@?$CUtlMemory@VCUtlSymbol@@H@@QBE_NXZ 10067390 f i bugreporter.obj
 0002:0000f3e0       ?Element@?$CUtlVector@VCUtlSymbol@@V?$CUtlMemory@VCUtlSymbol@@H@@@@QAEAAVCUtlSymbol@@H@Z 100673e0 f i bugreporter.obj
 0002:0000f440       ?IsValidIndex@?$CUtlVector@VCUtlSymbol@@V?$CUtlMemory@VCUtlSymbol@@H@@@@QBE_NH@Z 10067440 f i bugreporter.obj
 0002:0000f4b0       ?GrowVector@?$CUtlVector@VCUtlSymbol@@V?$CUtlMemory@VCUtlSymbol@@H@@@@IAEXH@Z 100674b0 f i bugreporter.obj
 0002:0000f5d0       ?ShiftElementsRight@?$CUtlVector@VCUtlSymbol@@V?$CUtlMemory@VCUtlSymbol@@H@@@@IAEXHH@Z 100675d0 f i bugreporter.obj
 0002:0000f790       ??A?$CUtlMemory@U?$UtlRBTreeNode_t@UNode_t@?$CUtlMap@VCUtlSymbol@@PAV?$CUtlVector@VCUtlSymbol@@V?$CUtlMemory@VCUtlSymbol@@H@@@@G@@G@@G@@QBEABU?$UtlRBTreeNode_t@UNode_t@?$CUtlMap@VCUtlSymbol@@PAV?$CUtlVector@VCUtlSymbol@@V?$CUtlMemory@VCUtlSymbol@@H@@@@G@@G@@G@Z 10067790 f i bugreporter.obj
 0002:0000f8e0       ?Purge@?$CUtlMemory@U?$UtlRBTreeNode_t@UNode_t@?$CUtlMap@VCUtlSymbol@@PAV?$CUtlVector@VCUtlSymbol@@V?$CUtlMemory@VCUtlSymbol@@H@@@@G@@G@@G@@QAEXXZ 100678e0 f i bugreporter.obj
 0002:0000f990       ?IsReadOnly@?$CUtlMemory@U?$UtlRBTreeNode_t@UNode_t@?$CUtlMap@VCUtlSymbol@@PAV?$CUtlVector@VCUtlSymbol@@V?$CUtlMemory@VCUtlSymbol@@H@@@@G@@G@@G@@QBE_NXZ 10067990 f i bugreporter.obj
 0002:0000f9e0       ?Root@?$CUtlRBTree@UNode_t@?$CUtlMap@VCUtlSymbol@@PAV?$CUtlVector@VCUtlSymbol@@V?$CUtlMemory@VCUtlSymbol@@H@@@@G@@GVCKeyLess@2@V?$CUtlMemory@U?$UtlRBTreeNode_t@UNode_t@?$CUtlMap@VCUtlSymbol@@PAV?$CUtlVector@VCUtlSymbol@@V?$CUtlMemory@VCUtlSymbol@@H@@@@G@@G@@G@@@@QBEGXZ 100679e0 f i bugreporter.obj
 0002:0000fa20       ?Parent@?$CUtlRBTree@UNode_t@?$CUtlMap@VCUtlSymbol@@PAV?$CUtlVector@VCUtlSymbol@@V?$CUtlMemory@VCUtlSymbol@@H@@@@G@@GVCKeyLess@2@V?$CUtlMemory@U?$UtlRBTreeNode_t@UNode_t@?$CUtlMap@VCUtlSymbol@@PAV?$CUtlVector@VCUtlSymbol@@V?$CUtlMemory@VCUtlSymbol@@H@@@@G@@G@@G@@@@QBEGG@Z 10067a20 f i bugreporter.obj
 0002:0000fa80       ?NewNode@?$CUtlRBTree@UNode_t@?$CUtlMap@VCUtlSymbol@@PAV?$CUtlVector@VCUtlSymbol@@V?$CUtlMemory@VCUtlSymbol@@H@@@@G@@GVCKeyLess@2@V?$CUtlMemory@U?$UtlRBTreeNode_t@UNode_t@?$CUtlMap@VCUtlSymbol@@PAV?$CUtlVector@VCUtlSymbol@@V?$CUtlMemory@VCUtlSymbol@@H@@@@G@@G@@G@@@@QAEGXZ 10067a80 f i bugreporter.obj
 0002:000100b0       ?LinkToParent@?$CUtlRBTree@UNode_t@?$CUtlMap@VCUtlSymbol@@PAV?$CUtlVector@VCUtlSymbol@@V?$CUtlMemory@VCUtlSymbol@@H@@@@G@@GVCKeyLess@2@V?$CUtlMemory@U?$UtlRBTreeNode_t@UNode_t@?$CUtlMap@VCUtlSymbol@@PAV?$CUtlVector@VCUtlSymbol@@V?$CUtlMemory@VCUtlSymbol@@H@@@@G@@G@@G@@@@IAEXGG_N@Z 100680b0 f i bugreporter.obj
 0002:000101c0       ?Links@?$CUtlRBTree@UNode_t@?$CUtlMap@VCUtlSymbol@@PAV?$CUtlVector@VCUtlSymbol@@V?$CUtlMemory@VCUtlSymbol@@H@@@@G@@GVCKeyLess@2@V?$CUtlMemory@U?$UtlRBTreeNode_t@UNode_t@?$CUtlMap@VCUtlSymbol@@PAV?$CUtlVector@VCUtlSymbol@@V?$CUtlMemory@VCUtlSymbol@@H@@@@G@@G@@G@@@@IAEAAU?$UtlRBTreeLinks_t@G@@G@Z 100681c0 f i bugreporter.obj
 0002:00010310       ?Links@?$CUtlRBTree@UNode_t@?$CUtlMap@VCUtlSymbol@@PAV?$CUtlVector@VCUtlSymbol@@V?$CUtlMemory@VCUtlSymbol@@H@@@@G@@GVCKeyLess@2@V?$CUtlMemory@U?$UtlRBTreeNode_t@UNode_t@?$CUtlMap@VCUtlSymbol@@PAV?$CUtlVector@VCUtlSymbol@@V?$CUtlMemory@VCUtlSymbol@@H@@@@G@@G@@G@@@@IBEABU?$UtlRBTreeLinks_t@G@@G@Z 10068310 f i bugreporter.obj
 0002:00010400       ??$CopyConstruct@Uincfile@CBug@@@@YAXPAUincfile@CBug@@ABU01@@Z 10068400 f i bugreporter.obj
 0002:000104a0       ??$Destruct@Uincfile@CBug@@@@YAXPAUincfile@CBug@@@Z 100684a0 f i bugreporter.obj
 0002:00010500       ??$CopyConstruct@VCUtlSymbol@@@@YAXPAVCUtlSymbol@@ABV0@@Z 10068500 f i bugreporter.obj
 0002:00010590       ??$Destruct@VCUtlSymbol@@@@YAXPAVCUtlSymbol@@@Z 10068590 f i bugreporter.obj
 0002:000105f0       ?IsValidIterator@?$CUtlMemory@U?$UtlRBTreeNode_t@UNode_t@?$CUtlMap@VCUtlSymbol@@PAV?$CUtlVector@VCUtlSymbol@@V?$CUtlMemory@VCUtlSymbol@@H@@@@G@@G@@G@@QBE_NABVIterator_t@1@@Z 100685f0 f i bugreporter.obj
 0002:00010650       ??A?$CUtlMemory@Uincfile@CBug@@H@@QAEAAUincfile@CBug@@H@Z 10068650 f i bugreporter.obj
 0002:00010890       ?NumAllocated@?$CUtlMemory@Uincfile@CBug@@H@@QBEHXZ 10068890 f i bugreporter.obj
 0002:000108d0       ?Grow@?$CUtlMemory@Uincfile@CBug@@H@@QAEXH@Z 100688d0 f i bugreporter.obj
 0002:00011000       ?UtlMemory_CalcNewAllocationCount@@YAHHHHH@Z 10069000 f i bugreporter.obj
 0002:00011090       ?NumAllocated@?$CUtlMemory@VCUtlSymbol@@H@@QBEHXZ 10069090 f i bugreporter.obj
 0002:000110d0       ?Grow@?$CUtlMemory@VCUtlSymbol@@H@@QAEXH@Z 100690d0 f i bugreporter.obj
 0002:000117f0       ?Grow@?$CUtlMemory@U?$UtlRBTreeNode_t@UNode_t@?$CUtlMap@VCUtlSymbol@@PAV?$CUtlVector@VCUtlSymbol@@V?$CUtlMemory@VCUtlSymbol@@H@@@@G@@G@@G@@QAEXH@Z 100697f0 f i bugreporter.obj
 0002:00011f20       ?IsExternallyAllocated@?$CUtlMemory@U?$UtlRBTreeNode_t@UNode_t@?$CUtlMap@VCUtlSymbol@@PAV?$CUtlVector@VCUtlSymbol@@V?$CUtlMemory@VCUtlSymbol@@H@@@@G@@G@@G@@QBE_NXZ 10069f20 f i bugreporter.obj
 0002:00011f70       ?InsertRebalance@?$CUtlRBTree@UNode_t@?$CUtlMap@VCUtlSymbol@@PAV?$CUtlVector@VCUtlSymbol@@V?$CUtlMemory@VCUtlSymbol@@H@@@@G@@GVCKeyLess@2@V?$CUtlMemory@U?$UtlRBTreeNode_t@UNode_t@?$CUtlMap@VCUtlSymbol@@PAV?$CUtlVector@VCUtlSymbol@@V?$CUtlMemory@VCUtlSymbol@@H@@@@G@@G@@G@@@@IAEXG@Z 10069f70 f i bugreporter.obj
 0002:00012280       ??$Construct@UNode_t@?$CUtlMap@VCUtlSymbol@@PAV?$CUtlVector@VCUtlSymbol@@V?$CUtlMemory@VCUtlSymbol@@H@@@@G@@@@YAXPAUNode_t@?$CUtlMap@VCUtlSymbol@@PAV?$CUtlVector@VCUtlSymbol@@V?$CUtlMemory@VCUtlSymbol@@H@@@@G@@@Z 1006a280 f i bugreporter.obj
 0002:00012310       ?IsIdxValid@?$CUtlMemory@Uincfile@CBug@@H@@QBE_NH@Z 1006a310 f i bugreporter.obj
 0002:00012380       ?IsLeftChild@?$CUtlRBTree@UNode_t@?$CUtlMap@VCUtlSymbol@@PAV?$CUtlVector@VCUtlSymbol@@V?$CUtlMemory@VCUtlSymbol@@H@@@@G@@GVCKeyLess@2@V?$CUtlMemory@U?$UtlRBTreeNode_t@UNode_t@?$CUtlMap@VCUtlSymbol@@PAV?$CUtlVector@VCUtlSymbol@@V?$CUtlMemory@VCUtlSymbol@@H@@@@G@@G@@G@@@@QBE_NG@Z 1006a380 f i bugreporter.obj
 0002:00012400       ?IsRightChild@?$CUtlRBTree@UNode_t@?$CUtlMap@VCUtlSymbol@@PAV?$CUtlVector@VCUtlSymbol@@V?$CUtlMemory@VCUtlSymbol@@H@@@@G@@GVCKeyLess@2@V?$CUtlMemory@U?$UtlRBTreeNode_t@UNode_t@?$CUtlMap@VCUtlSymbol@@PAV?$CUtlVector@VCUtlSymbol@@V?$CUtlMemory@VCUtlSymbol@@H@@@@G@@G@@G@@@@QBE_NG@Z 1006a400 f i bugreporter.obj
 0002:00012480       ?IsRoot@?$CUtlRBTree@UNode_t@?$CUtlMap@VCUtlSymbol@@PAV?$CUtlVector@VCUtlSymbol@@V?$CUtlMemory@VCUtlSymbol@@H@@@@G@@GVCKeyLess@2@V?$CUtlMemory@U?$UtlRBTreeNode_t@UNode_t@?$CUtlMap@VCUtlSymbol@@PAV?$CUtlVector@VCUtlSymbol@@V?$CUtlMemory@VCUtlSymbol@@H@@@@G@@G@@G@@@@QBE_NG@Z 1006a480 f i bugreporter.obj
 0002:000124d0       ?IsRed@?$CUtlRBTree@UNode_t@?$CUtlMap@VCUtlSymbol@@PAV?$CUtlVector@VCUtlSymbol@@V?$CUtlMemory@VCUtlSymbol@@H@@@@G@@GVCKeyLess@2@V?$CUtlMemory@U?$UtlRBTreeNode_t@UNode_t@?$CUtlMap@VCUtlSymbol@@PAV?$CUtlVector@VCUtlSymbol@@V?$CUtlMemory@VCUtlSymbol@@H@@@@G@@G@@G@@@@IBE_NG@Z 1006a4d0 f i bugreporter.obj
 0002:00012540       ?Color@?$CUtlRBTree@UNode_t@?$CUtlMap@VCUtlSymbol@@PAV?$CUtlVector@VCUtlSymbol@@V?$CUtlMemory@VCUtlSymbol@@H@@@@G@@GVCKeyLess@2@V?$CUtlMemory@U?$UtlRBTreeNode_t@UNode_t@?$CUtlMap@VCUtlSymbol@@PAV?$CUtlVector@VCUtlSymbol@@V?$CUtlMemory@VCUtlSymbol@@H@@@@G@@G@@G@@@@IBE?AW4NodeColor_t@1@G@Z 1006a540 f i bugreporter.obj
 0002:000125a0       ?SetColor@?$CUtlRBTree@UNode_t@?$CUtlMap@VCUtlSymbol@@PAV?$CUtlVector@VCUtlSymbol@@V?$CUtlMemory@VCUtlSymbol@@H@@@@G@@GVCKeyLess@2@V?$CUtlMemory@U?$UtlRBTreeNode_t@UNode_t@?$CUtlMap@VCUtlSymbol@@PAV?$CUtlVector@VCUtlSymbol@@V?$CUtlMemory@VCUtlSymbol@@H@@@@G@@G@@G@@@@IAEXGW4NodeColor_t@1@@Z 1006a5a0 f i bugreporter.obj
 0002:00012610       ?RotateLeft@?$CUtlRBTree@UNode_t@?$CUtlMap@VCUtlSymbol@@PAV?$CUtlVector@VCUtlSymbol@@V?$CUtlMemory@VCUtlSymbol@@H@@@@G@@GVCKeyLess@2@V?$CUtlMemory@U?$UtlRBTreeNode_t@UNode_t@?$CUtlMap@VCUtlSymbol@@PAV?$CUtlVector@VCUtlSymbol@@V?$CUtlMemory@VCUtlSymbol@@H@@@@G@@G@@G@@@@IAEXG@Z 1006a610 f i bugreporter.obj
 0002:000127e0       ?RotateRight@?$CUtlRBTree@UNode_t@?$CUtlMap@VCUtlSymbol@@PAV?$CUtlVector@VCUtlSymbol@@V?$CUtlMemory@VCUtlSymbol@@H@@@@G@@GVCKeyLess@2@V?$CUtlMemory@U?$UtlRBTreeNode_t@UNode_t@?$CUtlMap@VCUtlSymbol@@PAV?$CUtlVector@VCUtlSymbol@@V?$CUtlMemory@VCUtlSymbol@@H@@@@G@@G@@G@@@@IAEXG@Z 1006a7e0 f i bugreporter.obj
 0002:000129b0       ?SetParent@?$CUtlRBTree@UNode_t@?$CUtlMap@VCUtlSymbol@@PAV?$CUtlVector@VCUtlSymbol@@V?$CUtlMemory@VCUtlSymbol@@H@@@@G@@GVCKeyLess@2@V?$CUtlMemory@U?$UtlRBTreeNode_t@UNode_t@?$CUtlMap@VCUtlSymbol@@PAV?$CUtlVector@VCUtlSymbol@@V?$CUtlMemory@VCUtlSymbol@@H@@@@G@@G@@G@@@@IAEXGG@Z 1006a9b0 f i bugreporter.obj
 0002:00012a20       ??0Vector2D@@QAE@MM@Z      1006aa20 f i bugreporter.obj
 0002:00012b80       ?IsValid@Vector2D@@QBE_NXZ 1006ab80 f i bugreporter.obj
 0002:00012c30       ?IsFinite@@YA_NM@Z         1006ac30 f i bugreporter.obj
 0002:00012ca0       ?FloatBits@@YAAAKAAM@Z     1006aca0 f i bugreporter.obj
 0002:00012d20       _BuiltDebug                1006ad20 f   memoverride.obj
 0002:00012d50       ?MakeModuleFileName@@YAPBDXZ 1006ad50 f   memoverride.obj
 0002:00012ed0       ?strrchr@@YAPADPADH@Z      1006aed0 f i memoverride.obj
 0002:00012f30       _malloc                    1006af30 f   memoverride.obj
 0002:00013060       _free                      1006b060 f   memoverride.obj
 0002:000130d0       _realloc                   1006b0d0 f   memoverride.obj
 0002:00013220       _calloc                    1006b220 f   memoverride.obj
 0002:000132a0       __malloc_base              1006b2a0 f   memoverride.obj
 0002:000132f0       __calloc_base              1006b2f0 f   memoverride.obj
 0002:00013360       __realloc_base             1006b360 f   memoverride.obj
 0002:000133c0       __recalloc_base            1006b3c0 f   memoverride.obj
 0002:00013430       __free_base                1006b430 f   memoverride.obj
 0002:000134a0       __expand_base              1006b4a0 f   memoverride.obj
 0002:000135e0       __malloc_crt               1006b5e0 f   memoverride.obj
 0002:00013630       __calloc_crt               1006b630 f   memoverride.obj
 0002:00013690       __realloc_crt              1006b690 f   memoverride.obj
 0002:000136f0       __recalloc_crt             1006b6f0 f   memoverride.obj
 0002:00013750       __recalloc                 1006b750 f   memoverride.obj
 0002:000137d0       __msize_base               1006b7d0 f   memoverride.obj
 0002:00013840       __msize                    1006b840 f   memoverride.obj
 0002:00013890       _msize                     1006b890 f   memoverride.obj
 0002:00013900       __heap_alloc               1006b900 f   memoverride.obj
 0002:00013950       __nh_malloc                1006b950 f   memoverride.obj
 0002:000139a0       __expand                   1006b9a0 f   memoverride.obj
 0002:00013ae0       __get_sbh_threshold        1006bae0 f   memoverride.obj
 0002:00013b10       __set_sbh_threshold        1006bb10 f   memoverride.obj
 0002:00013b40       __heapchk                  1006bb40 f   memoverride.obj
 0002:00013bb0       __heapmin                  1006bbb0 f   memoverride.obj
 0002:00013bf0       __heapadd                  1006bbf0 f   memoverride.obj
 0002:00013c20       __heapset                  1006bc20 f   memoverride.obj
 0002:00013c50       __heapused                 1006bc50 f   memoverride.obj
 0002:00013c80       __heapwalk                 1006bc80 f   memoverride.obj
 0002:00013cb0       _malloc_db                 1006bcb0 f   memoverride.obj
 0002:00013d30       _free_db                   1006bd30 f   memoverride.obj
 0002:00013db0       _realloc_db                1006bdb0 f   memoverride.obj
 0002:00013e30       __heap_init                1006be30 f   memoverride.obj
 0002:00013e80       __heap_term                1006be80 f   memoverride.obj
 0002:00013eb0       ??2@YAPAXI@Z               1006beb0 f   memoverride.obj
 0002:00013f00       ??2@YAPAXIHPBDH@Z          1006bf00 f   memoverride.obj
 0002:00013f80       ??3@YAXPAX@Z               1006bf80 f   memoverride.obj
 0002:00013ff0       ??_U@YAPAXI@Z              1006bff0 f   memoverride.obj
 0002:00014040       ??_U@YAPAXIHPBDH@Z         1006c040 f   memoverride.obj
 0002:000140c0       ??_V@YAXPAX@Z              1006c0c0 f   memoverride.obj
 0002:00014130       __nh_malloc_dbg            1006c130 f   memoverride.obj
 0002:00014210       ??0CAttibCRT@@QAE@H@Z      1006c210 f i memoverride.obj
 0002:000142b0       ??1CAttibCRT@@QAE@XZ       1006c2b0 f i memoverride.obj
 0002:00014330       __malloc_dbg               1006c330 f   memoverride.obj
 0002:00014410       __calloc_dbg               1006c410 f   memoverride.obj
 0002:00014510       __realloc_dbg              1006c510 f   memoverride.obj
 0002:000145f0       __expand_dbg               1006c5f0 f   memoverride.obj
 0002:00014730       __free_dbg                 1006c730 f   memoverride.obj
 0002:000147f0       __msize_dbg                1006c7f0 f   memoverride.obj
 0002:00014840       __aligned_malloc_base      1006c840 f   memoverride.obj
 0002:000148a0       ?MemAlloc_AllocAligned@@YAPAXII@Z 1006c8a0 f i memoverride.obj
 0002:000149a0       ?IsPowerOfTwo@@YA_NH@Z     1006c9a0 f i memoverride.obj
 0002:000149f0       __aligned_realloc_base     1006c9f0 f   memoverride.obj
 0002:00014a50       ?MemAlloc_ReallocAligned@@YAPAXPAXII@Z 1006ca50 f i memoverride.obj
 0002:00014bc0       __aligned_recalloc_base    1006cbc0 f   memoverride.obj
 0002:00014c20       __aligned_free_base        1006cc20 f   memoverride.obj
 0002:00014c70       ?MemAlloc_FreeAligned@@YAXPAX@Z 1006cc70 f i memoverride.obj
 0002:00014d10       __aligned_malloc           1006cd10 f   memoverride.obj
 0002:00014d70       __aligned_realloc          1006cd70 f   memoverride.obj
 0002:00014dd0       __aligned_recalloc         1006cdd0 f   memoverride.obj
 0002:00014e30       __aligned_free             1006ce30 f   memoverride.obj
 0002:00014e80       __aligned_offset_malloc_base 1006ce80 f   memoverride.obj
 0002:00014fb0       __aligned_offset_realloc_base 1006cfb0 f   memoverride.obj
 0002:000150e0       __aligned_offset_recalloc_base 1006d0e0 f   memoverride.obj
 0002:00015210       __aligned_offset_malloc    1006d210 f   memoverride.obj
 0002:00015270       __aligned_offset_realloc   1006d270 f   memoverride.obj
 0002:000152d0       __aligned_offset_recalloc  1006d2d0 f   memoverride.obj
 0002:00015340       __CrtDumpMemoryLeaks       1006d340 f   memoverride.obj
 0002:00015370       __CrtSetDumpClient         1006d370 f   memoverride.obj
 0002:000153a0       __CrtSetDbgFlag            1006d3a0 f   memoverride.obj
 0002:00015410       ___p__crtDbgFlag           1006d410 f   memoverride.obj
 0002:00015450       ___p__crtBreakAlloc        1006d450 f   memoverride.obj
 0002:00015490       __CrtSetDbgBlockType       1006d490 f   memoverride.obj
 0002:000154d0       __CrtSetAllocHook          1006d4d0 f   memoverride.obj
 0002:00015520       __CrtSetBreakAlloc         1006d520 f   memoverride.obj
 0002:00015590       __CrtIsValidHeapPointer    1006d590 f   memoverride.obj
 0002:00015600       __CrtIsValidPointer        1006d600 f   memoverride.obj
 0002:00015680       __CrtCheckMemory           1006d680 f   memoverride.obj
 0002:000156f0       __CrtIsMemoryBlock         1006d6f0 f   memoverride.obj
 0002:00015740       __CrtMemDifference         1006d740 f   memoverride.obj
 0002:00015790       __CrtMemDumpStatistics     1006d790 f   memoverride.obj
 0002:000157d0       __CrtMemCheckpoint         1006d7d0 f   memoverride.obj
 0002:00015840       __CrtMemDumpAllObjectsSince 1006d840 f   memoverride.obj
 0002:00015880       __CrtDoForAllClientObjects 1006d880 f   memoverride.obj
 0002:000158c0       __CrtSetReportMode         1006d8c0 f   memoverride.obj
 0002:00015930       __CrtSetReportFile         1006d930 f   memoverride.obj
 0002:000159a0       __CrtSetReportHook         1006d9a0 f   memoverride.obj
 0002:00015a10       __CrtDbgReport             1006da10 f   memoverride.obj
 0002:00015ac0       __invalid_parameter_noinfo 1006dac0 f   memoverride.obj
 0002:00015c00       ___crtMessageWindowW       1006dc00 f   memoverride.obj
 0002:00015d40       __CrtDbgReportV            1006dd40 f   memoverride.obj
 0002:00015e80       __CrtDbgReportW            1006de80 f   memoverride.obj
 0002:00015fc0       __VCrtDbgReportA           1006dfc0 f   memoverride.obj
 0002:00016100       __CrtSetReportHook2        1006e100 f   memoverride.obj
 0002:00016150       __CrtSetCheckCount         1006e150 f   memoverride.obj
 0002:00016190       __CrtGetCheckCount         1006e190 f   memoverride.obj
 0002:000161d0       __aligned_offset_recalloc_dbg 1006e1d0 f   memoverride.obj
 0002:00016340       __aligned_recalloc_dbg     1006e340 f   memoverride.obj
 0002:000163b0       __recalloc_dbg             1006e3b0 f   memoverride.obj
 0002:00016420       __CrtGetReportHook         1006e420 f   memoverride.obj
 0002:00016450       __CrtReportBlockType       1006e450 f   memoverride.obj
 0002:00016480       __heap_alloc_base          1006e480 f   memoverride.obj
 0002:000164f0       __heap_alloc_dbg           1006e4f0 f   memoverride.obj
 0002:00016540       __free_nolock              1006e540 f   memoverride.obj
 0002:00016590       __free_dbg_nolock          1006e590 f   memoverride.obj
 0002:000165e0       __CrtGetAllocHook          1006e5e0 f   memoverride.obj
 0002:00016650       __CrtGetDumpClient         1006e650 f   memoverride.obj
 0002:000166c0       __aligned_malloc_dbg       1006e6c0 f   memoverride.obj
 0002:00016720       __aligned_realloc_dbg      1006e720 f   memoverride.obj
 0002:00016780       __aligned_offset_malloc_dbg 1006e780 f   memoverride.obj
 0002:000167e0       __aligned_offset_realloc_dbg 1006e7e0 f   memoverride.obj
 0002:00016840       __aligned_free_dbg         1006e840 f   memoverride.obj
 0002:00016890       __CrtSetDebugFillThreshold 1006e890 f   memoverride.obj
 0002:00016900       __strdup                   1006e900 f   memoverride.obj
 0002:00016990       __wcsdup_dbg               1006e990 f   memoverride.obj
 0002:00016ad0       __wcsdup                   1006ead0 f   memoverride.obj
 0002:00016c04       _Sleep@4                   1006ec04 f   kernel32:KERNEL32.dll
 0002:00016c0a       _GetModuleFileNameA@12     1006ec0a f   kernel32:KERNEL32.dll
 0002:00016c10       _VirtualQuery@12           1006ec10 f   kernel32:KERNEL32.dll
 0002:00016c16       _HeapAlloc@12              1006ec16 f   kernel32:KERNEL32.dll
 0002:00016c1c       _GetProcessHeap@0          1006ec1c f   kernel32:KERNEL32.dll
 0002:00016c22       _RandomInt                 1006ec22 f   vstdlib:vstdlib.dll
 0002:00016c30       ?Initialize@CUtlSymbol@@KAXXZ 1006ec30 f   tier1:utlsymbol.obj
 0002:00016de0       ??0CUtlSymbolTableMT@@QAE@HH_N@Z 1006ede0 f i tier1:utlsymbol.obj
 0002:00016e60       ?CurrTable@CUtlSymbol@@KAPAVCUtlSymbolTableMT@@XZ 1006ee60 f   tier1:utlsymbol.obj
 0002:00016eb0       ??0CUtlSymbol@@QAE@PBD@Z   1006eeb0 f   tier1:utlsymbol.obj
 0002:00016f30       ??BCUtlSymbol@@QBE?BGXZ    1006ef30 f i tier1:utlsymbol.obj
 0002:00016f70       ?AddString@CUtlSymbolTableMT@@QAE?AVCUtlSymbol@@PBD@Z 1006ef70 f i tier1:utlsymbol.obj
 0002:00017050       ?String@CUtlSymbol@@QBEPBDXZ 1006f050 f   tier1:utlsymbol.obj
 0002:000170c0       ??0CUtlSymbol@@QAE@G@Z     1006f0c0 f i tier1:utlsymbol.obj
 0002:00017110       ?String@CUtlSymbolTableMT@@QBEPBDVCUtlSymbol@@@Z 1006f110 f i tier1:utlsymbol.obj
 0002:000171b0       ?DisableStaticSymbolTable@CUtlSymbol@@SAXXZ 1006f1b0 f   tier1:utlsymbol.obj
 0002:000171f0       ??8CUtlSymbol@@QBE_NPBD@Z  1006f1f0 f   tier1:utlsymbol.obj
 0002:00017270       ??RCLess@CUtlSymbolTable@@QBE_NABVCStringPoolIndex@1@0@Z 1006f270 f   tier1:utlsymbol.obj
 0002:000173e0       ??0CStringPoolIndex@CUtlSymbolTable@@QAE@GG@Z 1006f3e0 f i tier1:utlsymbol.obj
 0002:00017440       ??8CStringPoolIndex@CUtlSymbolTable@@QBE_NABV01@@Z 1006f440 f i tier1:utlsymbol.obj
 0002:000174d0       ?StringFromIndex@CUtlSymbolTable@@ABEPBDABVCStringPoolIndex@1@@Z 1006f4d0 f i tier1:utlsymbol.obj
 0002:00017750       ??0CUtlSymbolTable@@QAE@HH_N@Z 1006f750 f   tier1:utlsymbol.obj
 0002:000177d0       ??0CTree@CUtlSymbolTable@@QAE@HH@Z 1006f7d0 f i tier1:utlsymbol.obj
 0002:00017850       ??0CLess@CUtlSymbolTable@@QAE@H@Z 1006f850 f i tier1:utlsymbol.obj
 0002:00017890       ??1CUtlSymbolTable@@QAE@XZ 1006f890 f   tier1:utlsymbol.obj
 0002:00017900       ??1CTree@CUtlSymbolTable@@QAE@XZ 1006f900 f i tier1:utlsymbol.obj
 0002:00017950       ?Find@CUtlSymbolTable@@QBE?AVCUtlSymbol@@PBD@Z 1006f950 f   tier1:utlsymbol.obj
 0002:00017a10       ?FindPoolWithSpace@CUtlSymbolTable@@ABEHH@Z 1006fa10 f   tier1:utlsymbol.obj
 0002:00017ac0       ?AddString@CUtlSymbolTable@@QAE?AVCUtlSymbol@@PBD@Z 1006fac0 f   tier1:utlsymbol.obj
 0002:00017e40       ??0CStringPoolIndex@CUtlSymbolTable@@QAE@XZ 1006fe40 f i tier1:utlsymbol.obj
 0002:00017e80       ?String@CUtlSymbolTable@@QBEPBDVCUtlSymbol@@@Z 1006fe80 f   tier1:utlsymbol.obj
 0002:00018010       ?RemoveAll@CUtlSymbolTable@@QAEXXZ 10070010 f   tier1:utlsymbol.obj
 0002:000180e0       ?FindOrAddFileName@CUtlFilenameSymbolTable@@QAEPAXPBD@Z 100700e0 f   tier1:utlsymbol.obj
 0002:00018390       ??0FileNameHandleInternal_t@CUtlFilenameSymbolTable@@QAE@XZ 10070390 f i tier1:utlsymbol.obj
 0002:000183e0       ?FindFileName@CUtlFilenameSymbolTable@@QAEPAXPBD@Z 100703e0 f   tier1:utlsymbol.obj
 0002:00018610       ?String@CUtlFilenameSymbolTable@@QAE_NABQAXPADH@Z 10070610 f   tier1:utlsymbol.obj
 0002:00018730       ?RemoveAll@CUtlFilenameSymbolTable@@QAEXXZ 10070730 f   tier1:utlsymbol.obj
 0002:00018780       ?SpewStrings@CUtlFilenameSymbolTable@@QAEXXZ 10070780 f   tier1:utlsymbol.obj
 0002:00018810       ??0?$CUtlRBTree@VCStringPoolIndex@CUtlSymbolTable@@GVCLess@2@V?$CUtlMemory@U?$UtlRBTreeNode_t@VCStringPoolIndex@CUtlSymbolTable@@G@@G@@@@QAE@HHABVCLess@CUtlSymbolTable@@@Z 10070810 f i tier1:utlsymbol.obj
 0002:000188c0       ??1?$CUtlRBTree@VCStringPoolIndex@CUtlSymbolTable@@GVCLess@2@V?$CUtlMemory@U?$UtlRBTreeNode_t@VCStringPoolIndex@CUtlSymbolTable@@G@@G@@@@QAE@XZ 100708c0 f i tier1:utlsymbol.obj
 0002:00018920       ??A?$CUtlRBTree@VCStringPoolIndex@CUtlSymbolTable@@GVCLess@2@V?$CUtlMemory@U?$UtlRBTreeNode_t@VCStringPoolIndex@CUtlSymbolTable@@G@@G@@@@QBEABVCStringPoolIndex@CUtlSymbolTable@@G@Z 10070920 f i tier1:utlsymbol.obj
 0002:00018980       ?IsValidIndex@?$CUtlRBTree@VCStringPoolIndex@CUtlSymbolTable@@GVCLess@2@V?$CUtlMemory@U?$UtlRBTreeNode_t@VCStringPoolIndex@CUtlSymbolTable@@G@@G@@@@QBE_NG@Z 10070980 f i tier1:utlsymbol.obj
 0002:00018a40       ?Insert@?$CUtlRBTree@VCStringPoolIndex@CUtlSymbolTable@@GVCLess@2@V?$CUtlMemory@U?$UtlRBTreeNode_t@VCStringPoolIndex@CUtlSymbolTable@@G@@G@@@@QAEGABVCStringPoolIndex@CUtlSymbolTable@@@Z 10070a40 f i tier1:utlsymbol.obj
 0002:00018b40       ?Find@?$CUtlRBTree@VCStringPoolIndex@CUtlSymbolTable@@GVCLess@2@V?$CUtlMemory@U?$UtlRBTreeNode_t@VCStringPoolIndex@CUtlSymbolTable@@G@@G@@@@QBEGABVCStringPoolIndex@CUtlSymbolTable@@@Z 10070b40 f i tier1:utlsymbol.obj
 0002:00018d30       ??7CLess@CUtlSymbolTable@@QBE_NXZ 10070d30 f i tier1:utlsymbol.obj
 0002:00018d70       ?Purge@?$CUtlRBTree@VCStringPoolIndex@CUtlSymbolTable@@GVCLess@2@V?$CUtlMemory@U?$UtlRBTreeNode_t@VCStringPoolIndex@CUtlSymbolTable@@G@@G@@@@QAEXXZ 10070d70 f i tier1:utlsymbol.obj
 0002:00018e00       ??0?$CUtlVector@PAUStringPool_t@CUtlSymbolTable@@V?$CUtlMemory@PAUStringPool_t@CUtlSymbolTable@@H@@@@QAE@HH@Z 10070e00 f i tier1:utlsymbol.obj
 0002:00018e80       ??1?$CUtlVector@PAUStringPool_t@CUtlSymbolTable@@V?$CUtlMemory@PAUStringPool_t@CUtlSymbolTable@@H@@@@QAE@XZ 10070e80 f i tier1:utlsymbol.obj
 0002:00018ee0       ??A?$CUtlVector@PAUStringPool_t@CUtlSymbolTable@@V?$CUtlMemory@PAUStringPool_t@CUtlSymbolTable@@H@@@@QBEABQAUStringPool_t@CUtlSymbolTable@@H@Z 10070ee0 f i tier1:utlsymbol.obj
 0002:00018f40       ??A?$CUtlVector@PAUStringPool_t@CUtlSymbolTable@@V?$CUtlMemory@PAUStringPool_t@CUtlSymbolTable@@H@@@@QAEAAPAUStringPool_t@CUtlSymbolTable@@H@Z 10070f40 f i tier1:utlsymbol.obj
 0002:00018fa0       ?Count@?$CUtlVector@PAUStringPool_t@CUtlSymbolTable@@V?$CUtlMemory@PAUStringPool_t@CUtlSymbolTable@@H@@@@QBEHXZ 10070fa0 f i tier1:utlsymbol.obj
 0002:00018fe0       ?AddToTail@?$CUtlVector@PAUStringPool_t@CUtlSymbolTable@@V?$CUtlMemory@PAUStringPool_t@CUtlSymbolTable@@H@@@@QAEHABQAUStringPool_t@CUtlSymbolTable@@@Z 10070fe0 f i tier1:utlsymbol.obj
 0002:00019170       ?RemoveAll@?$CUtlVector@PAUStringPool_t@CUtlSymbolTable@@V?$CUtlMemory@PAUStringPool_t@CUtlSymbolTable@@H@@@@QAEXXZ 10071170 f i tier1:utlsymbol.obj
 0002:00019200       ?ResetDbgInfo@?$CUtlRBTree@VCStringPoolIndex@CUtlSymbolTable@@GVCLess@2@V?$CUtlMemory@U?$UtlRBTreeNode_t@VCStringPoolIndex@CUtlSymbolTable@@G@@G@@@@IAEXXZ 10071200 f i tier1:utlsymbol.obj
 0002:00019260       ?IsIdxAfter@?$CUtlMemory@U?$UtlRBTreeNode_t@VCStringPoolIndex@CUtlSymbolTable@@G@@G@@QBE_NGABVIterator_t@1@@Z 10071260 f i tier1:utlsymbol.obj
 0002:000192b0       ?InvalidIterator@?$CUtlMemory@U?$UtlRBTreeNode_t@VCStringPoolIndex@CUtlSymbolTable@@G@@G@@QBE?AVIterator_t@1@XZ 100712b0 f i tier1:utlsymbol.obj
 0002:00019310       ?Base@?$CUtlVector@PAUStringPool_t@CUtlSymbolTable@@V?$CUtlMemory@PAUStringPool_t@CUtlSymbolTable@@H@@@@QAEPAPAUStringPool_t@CUtlSymbolTable@@XZ 10071310 f i tier1:utlsymbol.obj
 0002:00019360       ?ResetDbgInfo@?$CUtlVector@PAUStringPool_t@CUtlSymbolTable@@V?$CUtlMemory@PAUStringPool_t@CUtlSymbolTable@@H@@@@IAEXXZ 10071360 f i tier1:utlsymbol.obj
 0002:000193c0       ?InvalidIndex@?$CUtlMemory@U?$UtlRBTreeNode_t@VCStringPoolIndex@CUtlSymbolTable@@G@@G@@SAGXZ 100713c0 f i tier1:utlsymbol.obj
 0002:00019400       ??0Iterator_t@?$CUtlMemory@U?$UtlRBTreeNode_t@VCStringPoolIndex@CUtlSymbolTable@@G@@G@@QAE@G@Z 10071400 f i tier1:utlsymbol.obj
 0002:00019450       ??0?$CUtlMemory@U?$UtlRBTreeNode_t@VCStringPoolIndex@CUtlSymbolTable@@G@@G@@QAE@HH@Z 10071450 f i tier1:utlsymbol.obj
 0002:00019680       ??1?$CUtlMemory@U?$UtlRBTreeNode_t@VCStringPoolIndex@CUtlSymbolTable@@G@@G@@QAE@XZ 10071680 f i tier1:utlsymbol.obj
 0002:000196d0       ?IsIdxValid@?$CUtlMemory@U?$UtlRBTreeNode_t@VCStringPoolIndex@CUtlSymbolTable@@G@@G@@QBE_NG@Z 100716d0 f i tier1:utlsymbol.obj
 0002:00019750       ?Base@?$CUtlMemory@U?$UtlRBTreeNode_t@VCStringPoolIndex@CUtlSymbolTable@@G@@G@@QAEPAU?$UtlRBTreeNode_t@VCStringPoolIndex@CUtlSymbolTable@@G@@XZ 10071750 f i tier1:utlsymbol.obj
 0002:00019890       ?Purge@?$CUtlMemory@U?$UtlRBTreeNode_t@VCStringPoolIndex@CUtlSymbolTable@@G@@G@@QAEXXZ 10071890 f i tier1:utlsymbol.obj
 0002:00019940       ?Element@?$CUtlRBTree@VCStringPoolIndex@CUtlSymbolTable@@GVCLess@2@V?$CUtlMemory@U?$UtlRBTreeNode_t@VCStringPoolIndex@CUtlSymbolTable@@G@@G@@@@QBEABVCStringPoolIndex@CUtlSymbolTable@@G@Z 10071940 f i tier1:utlsymbol.obj
 0002:000199a0       ?Element@?$CUtlRBTree@VCStringPoolIndex@CUtlSymbolTable@@GVCLess@2@V?$CUtlMemory@U?$UtlRBTreeNode_t@VCStringPoolIndex@CUtlSymbolTable@@G@@G@@@@QAEAAVCStringPoolIndex@CUtlSymbolTable@@G@Z 100719a0 f i tier1:utlsymbol.obj
 0002:00019a00       ?LeftChild@?$CUtlRBTree@VCStringPoolIndex@CUtlSymbolTable@@GVCLess@2@V?$CUtlMemory@U?$UtlRBTreeNode_t@VCStringPoolIndex@CUtlSymbolTable@@G@@G@@@@QBEGG@Z 10071a00 f i tier1:utlsymbol.obj
 0002:00019a60       ?RightChild@?$CUtlRBTree@VCStringPoolIndex@CUtlSymbolTable@@GVCLess@2@V?$CUtlMemory@U?$UtlRBTreeNode_t@VCStringPoolIndex@CUtlSymbolTable@@G@@G@@@@QBEGG@Z 10071a60 f i tier1:utlsymbol.obj
 0002:00019ac0       ?InvalidIndex@?$CUtlRBTree@VCStringPoolIndex@CUtlSymbolTable@@GVCLess@2@V?$CUtlMemory@U?$UtlRBTreeNode_t@VCStringPoolIndex@CUtlSymbolTable@@G@@G@@@@SAGXZ 10071ac0 f i tier1:utlsymbol.obj
 0002:00019b10       ?RemoveAll@?$CUtlRBTree@VCStringPoolIndex@CUtlSymbolTable@@GVCLess@2@V?$CUtlMemory@U?$UtlRBTreeNode_t@VCStringPoolIndex@CUtlSymbolTable@@G@@G@@@@QAEXXZ 10071b10 f i tier1:utlsymbol.obj
 0002:0001a0c0       ?InsertAt@?$CUtlRBTree@VCStringPoolIndex@CUtlSymbolTable@@GVCLess@2@V?$CUtlMemory@U?$UtlRBTreeNode_t@VCStringPoolIndex@CUtlSymbolTable@@G@@G@@@@IAEGG_N@Z 100720c0 f i tier1:utlsymbol.obj
 0002:0001a240       ?FindInsertionPosition@?$CUtlRBTree@VCStringPoolIndex@CUtlSymbolTable@@GVCLess@2@V?$CUtlMemory@U?$UtlRBTreeNode_t@VCStringPoolIndex@CUtlSymbolTable@@G@@G@@@@IAEXABVCStringPoolIndex@CUtlSymbolTable@@AAGAA_N@Z 10072240 f i tier1:utlsymbol.obj
 0002:0001a420       ??0?$CUtlMemory@PAUStringPool_t@CUtlSymbolTable@@H@@QAE@HH@Z 10072420 f i tier1:utlsymbol.obj
 0002:0001a650       ??1?$CUtlMemory@PAUStringPool_t@CUtlSymbolTable@@H@@QAE@XZ 10072650 f i tier1:utlsymbol.obj
 0002:0001a6a0       ??A?$CUtlMemory@PAUStringPool_t@CUtlSymbolTable@@H@@QBEABQAUStringPool_t@CUtlSymbolTable@@H@Z 100726a0 f i tier1:utlsymbol.obj
 0002:0001a7f0       ??A?$CUtlMemory@PAUStringPool_t@CUtlSymbolTable@@H@@QAEAAPAUStringPool_t@CUtlSymbolTable@@H@Z 100727f0 f i tier1:utlsymbol.obj
 0002:0001aa30       ?Base@?$CUtlMemory@PAUStringPool_t@CUtlSymbolTable@@H@@QAEPAPAUStringPool_t@CUtlSymbolTable@@XZ 10072a30 f i tier1:utlsymbol.obj
 0002:0001ab70       ?Element@?$CUtlVector@PAUStringPool_t@CUtlSymbolTable@@V?$CUtlMemory@PAUStringPool_t@CUtlSymbolTable@@H@@@@QAEAAPAUStringPool_t@CUtlSymbolTable@@H@Z 10072b70 f i tier1:utlsymbol.obj
 0002:0001abd0       ?InsertBefore@?$CUtlVector@PAUStringPool_t@CUtlSymbolTable@@V?$CUtlMemory@PAUStringPool_t@CUtlSymbolTable@@H@@@@QAEHHABQAUStringPool_t@CUtlSymbolTable@@@Z 10072bd0 f i tier1:utlsymbol.obj
 0002:0001ae90       ?Purge@?$CUtlVector@PAUStringPool_t@CUtlSymbolTable@@V?$CUtlMemory@PAUStringPool_t@CUtlSymbolTable@@H@@@@QAEXXZ 10072e90 f i tier1:utlsymbol.obj
 0002:0001af00       ??$CopyConstruct@VCStringPoolIndex@CUtlSymbolTable@@@@YAXPAVCStringPoolIndex@CUtlSymbolTable@@ABV01@@Z 10072f00 f i tier1:utlsymbol.obj
 0002:0001afa0       ??$Destruct@PAUStringPool_t@CUtlSymbolTable@@@@YAXPAPAUStringPool_t@CUtlSymbolTable@@@Z 10072fa0 f i tier1:utlsymbol.obj
 0002:0001b000       ?First@?$CUtlMemory@U?$UtlRBTreeNode_t@VCStringPoolIndex@CUtlSymbolTable@@G@@G@@QBE?AVIterator_t@1@XZ 10073000 f i tier1:utlsymbol.obj
 0002:0001b0a0       ?Next@?$CUtlMemory@U?$UtlRBTreeNode_t@VCStringPoolIndex@CUtlSymbolTable@@G@@G@@QBE?AVIterator_t@1@ABV21@@Z 100730a0 f i tier1:utlsymbol.obj
 0002:0001b150       ?GetIndex@?$CUtlMemory@U?$UtlRBTreeNode_t@VCStringPoolIndex@CUtlSymbolTable@@G@@G@@QBEGABVIterator_t@1@@Z 10073150 f i tier1:utlsymbol.obj
 0002:0001b190       ?ValidateGrowSize@?$CUtlMemory@U?$UtlRBTreeNode_t@VCStringPoolIndex@CUtlSymbolTable@@G@@G@@IAEXXZ 10073190 f i tier1:utlsymbol.obj
 0002:0001b1d0       ??8Iterator_t@?$CUtlMemory@U?$UtlRBTreeNode_t@VCStringPoolIndex@CUtlSymbolTable@@G@@G@@QBE_NV01@@Z 100731d0 f i tier1:utlsymbol.obj
 0002:0001b220       ??9Iterator_t@?$CUtlMemory@U?$UtlRBTreeNode_t@VCStringPoolIndex@CUtlSymbolTable@@G@@G@@QBE_NV01@@Z 10073220 f i tier1:utlsymbol.obj
 0002:0001b270       ?ValidateGrowSize@?$CUtlMemory@PAUStringPool_t@CUtlSymbolTable@@H@@IAEXXZ 10073270 f i tier1:utlsymbol.obj
 0002:0001b2b0       ??A?$CUtlMemory@U?$UtlRBTreeNode_t@VCStringPoolIndex@CUtlSymbolTable@@G@@G@@QBEABU?$UtlRBTreeNode_t@VCStringPoolIndex@CUtlSymbolTable@@G@@G@Z 100732b0 f i tier1:utlsymbol.obj
 0002:0001b400       ??A?$CUtlMemory@U?$UtlRBTreeNode_t@VCStringPoolIndex@CUtlSymbolTable@@G@@G@@QAEAAU?$UtlRBTreeNode_t@VCStringPoolIndex@CUtlSymbolTable@@G@@G@Z 10073400 f i tier1:utlsymbol.obj
 0002:0001b640       ?IsExternallyAllocated@?$CUtlMemory@U?$UtlRBTreeNode_t@VCStringPoolIndex@CUtlSymbolTable@@G@@G@@QBE_NXZ 10073640 f i tier1:utlsymbol.obj
 0002:0001b690       ?IsReadOnly@?$CUtlMemory@U?$UtlRBTreeNode_t@VCStringPoolIndex@CUtlSymbolTable@@G@@G@@QBE_NXZ 10073690 f i tier1:utlsymbol.obj
 0002:0001b6e0       ?IsValid@?$CUtlRBTree@VCStringPoolIndex@CUtlSymbolTable@@GVCLess@2@V?$CUtlMemory@U?$UtlRBTreeNode_t@VCStringPoolIndex@CUtlSymbolTable@@G@@G@@@@QBE_NXZ 100736e0 f i tier1:utlsymbol.obj
 0002:0001b7d0       ?Count@?$CUtlRBTree@VCStringPoolIndex@CUtlSymbolTable@@GVCLess@2@V?$CUtlMemory@U?$UtlRBTreeNode_t@VCStringPoolIndex@CUtlSymbolTable@@G@@G@@@@QBEIXZ 100737d0 f i tier1:utlsymbol.obj
 0002:0001b810       ?NewNode@?$CUtlRBTree@VCStringPoolIndex@CUtlSymbolTable@@GVCLess@2@V?$CUtlMemory@U?$UtlRBTreeNode_t@VCStringPoolIndex@CUtlSymbolTable@@G@@G@@@@QAEGXZ 10073810 f i tier1:utlsymbol.obj
 0002:0001be40       ?SetLeftChild@?$CUtlRBTree@VCStringPoolIndex@CUtlSymbolTable@@GVCLess@2@V?$CUtlMemory@U?$UtlRBTreeNode_t@VCStringPoolIndex@CUtlSymbolTable@@G@@G@@@@IAEXGG@Z 10073e40 f i tier1:utlsymbol.obj
 0002:0001bea0       ?SetRightChild@?$CUtlRBTree@VCStringPoolIndex@CUtlSymbolTable@@GVCLess@2@V?$CUtlMemory@U?$UtlRBTreeNode_t@VCStringPoolIndex@CUtlSymbolTable@@G@@G@@@@IAEXGG@Z 10073ea0 f i tier1:utlsymbol.obj
 0002:0001bf10       ?LinkToParent@?$CUtlRBTree@VCStringPoolIndex@CUtlSymbolTable@@GVCLess@2@V?$CUtlMemory@U?$UtlRBTreeNode_t@VCStringPoolIndex@CUtlSymbolTable@@G@@G@@@@IAEXGG_N@Z 10073f10 f i tier1:utlsymbol.obj
 0002:0001c020       ?Links@?$CUtlRBTree@VCStringPoolIndex@CUtlSymbolTable@@GVCLess@2@V?$CUtlMemory@U?$UtlRBTreeNode_t@VCStringPoolIndex@CUtlSymbolTable@@G@@G@@@@IBEABU?$UtlRBTreeLinks_t@G@@G@Z 10074020 f i tier1:utlsymbol.obj
 0002:0001c110       ?IsIdxValid@?$CUtlMemory@PAUStringPool_t@CUtlSymbolTable@@H@@QBE_NH@Z 10074110 f i tier1:utlsymbol.obj
 0002:0001c180       ?Purge@?$CUtlMemory@PAUStringPool_t@CUtlSymbolTable@@H@@QAEXXZ 10074180 f i tier1:utlsymbol.obj
 0002:0001c230       ?IsReadOnly@?$CUtlMemory@PAUStringPool_t@CUtlSymbolTable@@H@@QBE_NXZ 10074230 f i tier1:utlsymbol.obj
 0002:0001c280       ?IsValidIndex@?$CUtlVector@PAUStringPool_t@CUtlSymbolTable@@V?$CUtlMemory@PAUStringPool_t@CUtlSymbolTable@@H@@@@QBE_NH@Z 10074280 f i tier1:utlsymbol.obj
 0002:0001c2f0       ?GrowVector@?$CUtlVector@PAUStringPool_t@CUtlSymbolTable@@V?$CUtlMemory@PAUStringPool_t@CUtlSymbolTable@@H@@@@IAEXH@Z 100742f0 f i tier1:utlsymbol.obj
 0002:0001c410       ?ShiftElementsRight@?$CUtlVector@PAUStringPool_t@CUtlSymbolTable@@V?$CUtlMemory@PAUStringPool_t@CUtlSymbolTable@@H@@@@IAEXHH@Z 10074410 f i tier1:utlsymbol.obj
 0002:0001c5d0       ??$Destruct@VCStringPoolIndex@CUtlSymbolTable@@@@YAXPAVCStringPoolIndex@CUtlSymbolTable@@@Z 100745d0 f i tier1:utlsymbol.obj
 0002:0001c630       ??$CopyConstruct@PAUStringPool_t@CUtlSymbolTable@@@@YAXPAPAUStringPool_t@CUtlSymbolTable@@ABQAU01@@Z 10074630 f i tier1:utlsymbol.obj
 0002:0001c6d0       ?IsValidIterator@?$CUtlMemory@U?$UtlRBTreeNode_t@VCStringPoolIndex@CUtlSymbolTable@@G@@G@@QBE_NABVIterator_t@1@@Z 100746d0 f i tier1:utlsymbol.obj
 0002:0001c730       ?Grow@?$CUtlMemory@U?$UtlRBTreeNode_t@VCStringPoolIndex@CUtlSymbolTable@@G@@G@@QAEXH@Z 10074730 f i tier1:utlsymbol.obj
 0002:0001ce60       ?Root@?$CUtlRBTree@VCStringPoolIndex@CUtlSymbolTable@@GVCLess@2@V?$CUtlMemory@U?$UtlRBTreeNode_t@VCStringPoolIndex@CUtlSymbolTable@@G@@G@@@@QBEGXZ 10074e60 f i tier1:utlsymbol.obj
 0002:0001cea0       ?Parent@?$CUtlRBTree@VCStringPoolIndex@CUtlSymbolTable@@GVCLess@2@V?$CUtlMemory@U?$UtlRBTreeNode_t@VCStringPoolIndex@CUtlSymbolTable@@G@@G@@@@QBEGG@Z 10074ea0 f i tier1:utlsymbol.obj
 0002:0001cf00       ?Links@?$CUtlRBTree@VCStringPoolIndex@CUtlSymbolTable@@GVCLess@2@V?$CUtlMemory@U?$UtlRBTreeNode_t@VCStringPoolIndex@CUtlSymbolTable@@G@@G@@@@IAEAAU?$UtlRBTreeLinks_t@G@@G@Z 10074f00 f i tier1:utlsymbol.obj
 0002:0001d050       ?InsertRebalance@?$CUtlRBTree@VCStringPoolIndex@CUtlSymbolTable@@GVCLess@2@V?$CUtlMemory@U?$UtlRBTreeNode_t@VCStringPoolIndex@CUtlSymbolTable@@G@@G@@@@IAEXG@Z 10075050 f i tier1:utlsymbol.obj
 0002:0001d360       ?NumAllocated@?$CUtlMemory@PAUStringPool_t@CUtlSymbolTable@@H@@QBEHXZ 10075360 f i tier1:utlsymbol.obj
 0002:0001d3a0       ?Grow@?$CUtlMemory@PAUStringPool_t@CUtlSymbolTable@@H@@QAEXH@Z 100753a0 f i tier1:utlsymbol.obj
 0002:0001dac0       ?IsExternallyAllocated@?$CUtlMemory@PAUStringPool_t@CUtlSymbolTable@@H@@QBE_NXZ 10075ac0 f i tier1:utlsymbol.obj
 0002:0001db10       ??$Construct@VCStringPoolIndex@CUtlSymbolTable@@@@YAXPAVCStringPoolIndex@CUtlSymbolTable@@@Z 10075b10 f i tier1:utlsymbol.obj
 0002:0001dba0       ?IsLeftChild@?$CUtlRBTree@VCStringPoolIndex@CUtlSymbolTable@@GVCLess@2@V?$CUtlMemory@U?$UtlRBTreeNode_t@VCStringPoolIndex@CUtlSymbolTable@@G@@G@@@@QBE_NG@Z 10075ba0 f i tier1:utlsymbol.obj
 0002:0001dc20       ?IsRightChild@?$CUtlRBTree@VCStringPoolIndex@CUtlSymbolTable@@GVCLess@2@V?$CUtlMemory@U?$UtlRBTreeNode_t@VCStringPoolIndex@CUtlSymbolTable@@G@@G@@@@QBE_NG@Z 10075c20 f i tier1:utlsymbol.obj
 0002:0001dca0       ?IsRoot@?$CUtlRBTree@VCStringPoolIndex@CUtlSymbolTable@@GVCLess@2@V?$CUtlMemory@U?$UtlRBTreeNode_t@VCStringPoolIndex@CUtlSymbolTable@@G@@G@@@@QBE_NG@Z 10075ca0 f i tier1:utlsymbol.obj
 0002:0001dcf0       ?IsRed@?$CUtlRBTree@VCStringPoolIndex@CUtlSymbolTable@@GVCLess@2@V?$CUtlMemory@U?$UtlRBTreeNode_t@VCStringPoolIndex@CUtlSymbolTable@@G@@G@@@@IBE_NG@Z 10075cf0 f i tier1:utlsymbol.obj
 0002:0001dd60       ?Color@?$CUtlRBTree@VCStringPoolIndex@CUtlSymbolTable@@GVCLess@2@V?$CUtlMemory@U?$UtlRBTreeNode_t@VCStringPoolIndex@CUtlSymbolTable@@G@@G@@@@IBE?AW4NodeColor_t@1@G@Z 10075d60 f i tier1:utlsymbol.obj
 0002:0001ddc0       ?SetColor@?$CUtlRBTree@VCStringPoolIndex@CUtlSymbolTable@@GVCLess@2@V?$CUtlMemory@U?$UtlRBTreeNode_t@VCStringPoolIndex@CUtlSymbolTable@@G@@G@@@@IAEXGW4NodeColor_t@1@@Z 10075dc0 f i tier1:utlsymbol.obj
 0002:0001de30       ?RotateLeft@?$CUtlRBTree@VCStringPoolIndex@CUtlSymbolTable@@GVCLess@2@V?$CUtlMemory@U?$UtlRBTreeNode_t@VCStringPoolIndex@CUtlSymbolTable@@G@@G@@@@IAEXG@Z 10075e30 f i tier1:utlsymbol.obj
 0002:0001e000       ?RotateRight@?$CUtlRBTree@VCStringPoolIndex@CUtlSymbolTable@@GVCLess@2@V?$CUtlMemory@U?$UtlRBTreeNode_t@VCStringPoolIndex@CUtlSymbolTable@@G@@G@@@@IAEXG@Z 10076000 f i tier1:utlsymbol.obj
 0002:0001e1d0       ?SetParent@?$CUtlRBTree@VCStringPoolIndex@CUtlSymbolTable@@GVCLess@2@V?$CUtlMemory@U?$UtlRBTreeNode_t@VCStringPoolIndex@CUtlSymbolTable@@G@@G@@@@IAEXGG@Z 100761d0 f i tier1:utlsymbol.obj
 0002:0001e240       ??1CCleanupUtlSymbolTable@@QAE@XZ 10076240 f i tier1:utlsymbol.obj
 0002:0001e2e0       ??_GCUtlSymbolTableMT@@QAEPAXI@Z 100762e0 f i tier1:utlsymbol.obj
 0002:0001e350       ??1CUtlSymbolTableMT@@QAE@XZ 10076350 f i tier1:utlsymbol.obj
 0002:0001e3a0       ??0KeyValues@@QAE@PBD@Z    100763a0 f   tier1:KeyValues.obj
 0002:0001e410       ??0KeyValues@@QAE@PBD00@Z  10076410 f   tier1:KeyValues.obj
 0002:0001e490       ??0KeyValues@@QAE@PBD0PB_W@Z 10076490 f   tier1:KeyValues.obj
 0002:0001e510       ??0KeyValues@@QAE@PBD0H@Z  10076510 f   tier1:KeyValues.obj
 0002:0001e590       ??0KeyValues@@QAE@PBD0000@Z 10076590 f   tier1:KeyValues.obj
 0002:0001e620       ??0KeyValues@@QAE@PBD0H0H@Z 10076620 f   tier1:KeyValues.obj
 0002:0001e6b0       ?Init@KeyValues@@AAEXXZ    100766b0 f   tier1:KeyValues.obj
 0002:0001e780       ??1KeyValues@@AAE@XZ       10076780 f   tier1:KeyValues.obj
 0002:0001e7d0       ?RemoveEverything@KeyValues@@AAEXXZ 100767d0 f   tier1:KeyValues.obj
 0002:0001e990       ??_GKeyValues@@AAEPAXI@Z   10076990 f i tier1:KeyValues.obj
 0002:0001ea00       ?RecursiveSaveToFile@KeyValues@@QAEXAAVCUtlBuffer@@H@Z 10076a00 f   tier1:KeyValues.obj
 0002:0001ea60       ?ChainKeyValue@KeyValues@@QAEXPAV1@@Z 10076a60 f   tier1:KeyValues.obj
 0002:0001eab0       ?GetName@KeyValues@@QBEPBDXZ 10076ab0 f   tier1:KeyValues.obj
 0002:0001eb40       ?GetNameSymbol@KeyValues@@QBEHXZ 10076b40 f   tier1:KeyValues.obj
 0002:0001eb80       ?ReadToken@KeyValues@@AAEPBDAAVCUtlBuffer@@AA_N1@Z 10076b80 f   tier1:KeyValues.obj
 0002:0001ee50       ?IsValid@CUtlBuffer@@QBE_NXZ 10076e50 f i tier1:KeyValues.obj
 0002:0001eea0       ?ReportError@CKeyValuesErrorStack@@QAEXPBD@Z 10076ea0 f i tier1:KeyValues.obj
 0002:0001f060       ?UsesEscapeSequences@KeyValues@@QAEX_N@Z 10077060 f   tier1:KeyValues.obj
 0002:0001f0b0       ?LoadFromFile@KeyValues@@QAE_NPAVIBaseFileSystem@@PBD1@Z 100770b0 f   tier1:KeyValues.obj
 0002:0001f610       ?GetOptimalReadSize@IFileSystem@@QAEIPAXI@Z 10077610 f i tier1:KeyValues.obj
 0002:0001f6f0       ?SaveToFile@KeyValues@@QAE_NPAVIBaseFileSystem@@PBD1@Z 100776f0 f   tier1:KeyValues.obj
 0002:0001f830       ?WriteIndents@KeyValues@@AAEXPAVIBaseFileSystem@@PAXPAVCUtlBuffer@@H@Z 10077830 f   tier1:KeyValues.obj
 0002:0001f8c0       ?WriteConvertedString@KeyValues@@AAEXPAVIBaseFileSystem@@PAXPAVCUtlBuffer@@PBD@Z 100778c0 f   tier1:KeyValues.obj
 0002:0001fab0       ?InternalWrite@KeyValues@@AAEXPAVIBaseFileSystem@@PAXPAVCUtlBuffer@@PBXH@Z 10077ab0 f   tier1:KeyValues.obj
 0002:0001fb50       ?RecursiveSaveToFile@KeyValues@@AAEXPAVIBaseFileSystem@@PAXPAVCUtlBuffer@@H@Z 10077b50 f   tier1:KeyValues.obj
 0002:00020510       ?FindKey@KeyValues@@QBEPAV1@H@Z 10078510 f   tier1:KeyValues.obj
 0002:00020580       ?FindKey@KeyValues@@QAEPAV1@PBD_N@Z 10078580 f   tier1:KeyValues.obj
 0002:000208b0       ?CreateNewKey@KeyValues@@QAEPAV1@XZ 100788b0 f   tier1:KeyValues.obj
 0002:000209b0       ?CreateKey@KeyValues@@AAEPAV1@PBD@Z 100789b0 f   tier1:KeyValues.obj
 0002:00020a80       ?AddSubKey@KeyValues@@QAEXPAV1@@Z 10078a80 f   tier1:KeyValues.obj
 0002:00020c10       ?RemoveSubKey@KeyValues@@QAEXPAV1@@Z 10078c10 f   tier1:KeyValues.obj
 0002:00020cc0       ?GetFirstSubKey@KeyValues@@QAEPAV1@XZ 10078cc0 f   tier1:KeyValues.obj
 0002:00020d00       ?GetNextKey@KeyValues@@QAEPAV1@XZ 10078d00 f   tier1:KeyValues.obj
 0002:00020d40       ?SetNextKey@KeyValues@@QAEXPAV1@@Z 10078d40 f   tier1:KeyValues.obj
 0002:00020d90       ?GetFirstTrueSubKey@KeyValues@@QAEPAV1@XZ 10078d90 f   tier1:KeyValues.obj
 0002:00020e00       ?GetNextTrueSubKey@KeyValues@@QAEPAV1@XZ 10078e00 f   tier1:KeyValues.obj
 0002:00020e70       ?GetFirstValue@KeyValues@@QAEPAV1@XZ 10078e70 f   tier1:KeyValues.obj
 0002:00020ee0       ?GetNextValue@KeyValues@@QAEPAV1@XZ 10078ee0 f   tier1:KeyValues.obj
 0002:00020f50       ?GetInt@KeyValues@@QAEHPBDH@Z 10078f50 f   tier1:KeyValues.obj
 0002:00021170       ?GetUint64@KeyValues@@QAE_KPBD_K@Z 10079170 f   tier1:KeyValues.obj
 0002:000212a0       ?GetPtr@KeyValues@@QAEPAXPBDPAX@Z 100792a0 f   tier1:KeyValues.obj
 0002:00021340       ?GetFloat@KeyValues@@QAEMPBDM@Z 10079340 f   tier1:KeyValues.obj
 0002:000214f0       ?GetString@KeyValues@@QAEPBDPBD0@Z 100794f0 f   tier1:KeyValues.obj
 0002:00021750       ?GetWString@KeyValues@@QAEPB_WPBDPB_W@Z 10079750 f   tier1:KeyValues.obj
 0002:000219a0       ?swprintf@@YAHPA_WPB_WZZ   100799a0 f i tier1:KeyValues.obj
 0002:00021a10       ?GetColor@KeyValues@@QAE?AVColor@@PBD@Z 10079a10 f   tier1:KeyValues.obj
 0002:00021da0       ??0Color@@QAE@HHHH@Z       10079da0 f i tier1:KeyValues.obj
 0002:00021e10       ?SetColor@Color@@QAEXHHHH@Z 10079e10 f i tier1:KeyValues.obj
 0002:00021e80       ??AColor@@QAEAAEH@Z        10079e80 f i tier1:KeyValues.obj
 0002:00021ec0       ?SetColor@KeyValues@@QAEXPBDVColor@@@Z 10079ec0 f   tier1:KeyValues.obj
 0002:00021f90       ?SetStringValue@KeyValues@@QAEXPBD@Z 10079f90 f   tier1:KeyValues.obj
 0002:000220d0       ?SetString@KeyValues@@QAEXPBD0@Z 1007a0d0 f   tier1:KeyValues.obj
 0002:00022230       ?SetWString@KeyValues@@QAEXPBDPB_W@Z 1007a230 f   tier1:KeyValues.obj
 0002:00022390       ?SetInt@KeyValues@@QAEXPBDH@Z 1007a390 f   tier1:KeyValues.obj
 0002:00022410       ?SetUint64@KeyValues@@QAEXPBD_K@Z 1007a410 f   tier1:KeyValues.obj
 0002:00022510       ?SetFloat@KeyValues@@QAEXPBDM@Z 1007a510 f   tier1:KeyValues.obj
 0002:00022590       ?SetName@KeyValues@@QAEXPBD@Z 1007a590 f   tier1:KeyValues.obj
 0002:00022630       ?SetPtr@KeyValues@@QAEXPBDPAX@Z 1007a630 f   tier1:KeyValues.obj
 0002:000226b0       ?RecursiveCopyKeyValues@KeyValues@@AAEXAAV1@@Z 1007a6b0 f   tier1:KeyValues.obj
 0002:00022c70       ??4KeyValues@@QAEAAV0@AAV0@@Z 1007ac70 f   tier1:KeyValues.obj
 0002:00022ce0       ?CopySubkeys@KeyValues@@QBEXPAV1@@Z 1007ace0 f   tier1:KeyValues.obj
 0002:00022da0       ?MakeCopy@KeyValues@@QBEPAV1@XZ 1007ada0 f   tier1:KeyValues.obj
 0002:000231d0       ?IsEmpty@KeyValues@@QAE_NPBD@Z 1007b1d0 f   tier1:KeyValues.obj
 0002:00023260       ?Clear@KeyValues@@QAEXXZ   1007b260 f   tier1:KeyValues.obj
 0002:00023310       ?GetDataType@KeyValues@@QAE?AW4types_t@1@PBD@Z 1007b310 f   tier1:KeyValues.obj
 0002:00023390       ?deleteThis@KeyValues@@QAEXXZ 1007b390 f   tier1:KeyValues.obj
 0002:00023430       ?AppendIncludedKeys@KeyValues@@AAEXAAV?$CUtlVector@PAVKeyValues@@V?$CUtlMemory@PAVKeyValues@@H@@@@@Z 1007b430 f   tier1:KeyValues.obj
 0002:000235f0       ?ParseIncludedKeys@KeyValues@@AAEXPBD0PAVIBaseFileSystem@@0AAV?$CUtlVector@PAVKeyValues@@V?$CUtlMemory@PAVKeyValues@@H@@@@@Z 1007b5f0 f   tier1:KeyValues.obj
 0002:00023b40       ?MergeBaseKeys@KeyValues@@AAEXAAV?$CUtlVector@PAVKeyValues@@V?$CUtlMemory@PAVKeyValues@@H@@@@@Z 1007bb40 f   tier1:KeyValues.obj
 0002:00023ce0       ?RecursiveMergeKeyValues@KeyValues@@AAEXPAV1@@Z 1007bce0 f   tier1:KeyValues.obj
 0002:00023ef0       ?EvaluateConditional@@YA_NPBD@Z 1007bef0 f   tier1:KeyValues.obj
 0002:00023fc0       ?LoadFromBuffer@KeyValues@@QAE_NPBDAAVCUtlBuffer@@PAVIBaseFileSystem@@0@Z 1007bfc0 f   tier1:KeyValues.obj
 0002:00024660       ?SetFilename@CKeyValuesErrorStack@@QAEXPBD@Z 1007c660 f i tier1:KeyValues.obj
 0002:000246c0       ?LoadFromBuffer@KeyValues@@QAE_NPBD0PAVIBaseFileSystem@@0@Z 1007c6c0 f   tier1:KeyValues.obj
 0002:000247c0       ?RecursiveLoadFromBuffer@KeyValues@@AAEXPBDAAVCUtlBuffer@@@Z 1007c7c0 f   tier1:KeyValues.obj
 0002:00024e80       ?TellGet@CUtlBuffer@@QBEHXZ 1007ce80 f i tier1:KeyValues.obj
 0002:00024ec0       ??0CKeyErrorContext@@QAE@PAVKeyValues@@@Z 1007cec0 f i tier1:KeyValues.obj
 0002:00024f20       ??1CKeyErrorContext@@QAE@XZ 1007cf20 f i tier1:KeyValues.obj
 0002:00024f80       ?Pop@CKeyValuesErrorStack@@QAEXXZ 1007cf80 f i tier1:KeyValues.obj
 0002:000250c0       ??0CKeyErrorContext@@QAE@H@Z 1007d0c0 f i tier1:KeyValues.obj
 0002:00025120       ?Reset@CKeyErrorContext@@QAEXH@Z 1007d120 f i tier1:KeyValues.obj
 0002:00025180       ?Reset@CKeyValuesErrorStack@@QAEXHH@Z 1007d180 f i tier1:KeyValues.obj
 0002:000252c0       ?Init@CKeyErrorContext@@AAEXH@Z 1007d2c0 f i tier1:KeyValues.obj
 0002:00025320       ?Push@CKeyValuesErrorStack@@QAEHH@Z 1007d320 f i tier1:KeyValues.obj
 0002:00025410       ?WriteAsBinary@KeyValues@@QAE_NAAVCUtlBuffer@@@Z 1007d410 f   tier1:KeyValues.obj
 0002:00025760       ?PutUnsignedChar@CUtlBuffer@@QAEXE@Z 1007d760 f i tier1:KeyValues.obj
 0002:000257c0       ?PutInt@CUtlBuffer@@QAEXH@Z 1007d7c0 f i tier1:KeyValues.obj
 0002:00025820       ?PutUnsignedInt@CUtlBuffer@@QAEXI@Z 1007d820 f i tier1:KeyValues.obj
 0002:00025880       ?PutFloat@CUtlBuffer@@QAEXM@Z 1007d880 f i tier1:KeyValues.obj
 0002:000258e0       ?PutDouble@CUtlBuffer@@QAEXN@Z 1007d8e0 f i tier1:KeyValues.obj
 0002:00025950       ?IsText@CUtlBuffer@@QBE_NXZ 1007d950 f i tier1:KeyValues.obj
 0002:000259a0       ?ReadAsBinary@KeyValues@@QAE_NAAVCUtlBuffer@@@Z 1007d9a0 f   tier1:KeyValues.obj
 0002:00025f30       ?GetUnsignedChar@CUtlBuffer@@QAEEXZ 1007df30 f i tier1:KeyValues.obj
 0002:00025fc0       ?GetInt@CUtlBuffer@@QAEHXZ 1007dfc0 f i tier1:KeyValues.obj
 0002:00026050       ?GetUnsignedInt@CUtlBuffer@@QAEIXZ 1007e050 f i tier1:KeyValues.obj
 0002:000260e0       ?GetFloat@CUtlBuffer@@QAEMXZ 1007e0e0 f i tier1:KeyValues.obj
 0002:00026170       ?GetDouble@CUtlBuffer@@QAENXZ 1007e170 f i tier1:KeyValues.obj
 0002:00026200       ??2KeyValues@@SAPAXI@Z     1007e200 f   tier1:KeyValues.obj
 0002:00026310       ??2KeyValues@@SAPAXIHPBDH@Z 1007e310 f   tier1:KeyValues.obj
 0002:00026400       ??3KeyValues@@SAXPAX@Z     1007e400 f   tier1:KeyValues.obj
 0002:00026480       ??3KeyValues@@SAXPAXHPBDH@Z 1007e480 f   tier1:KeyValues.obj
 0002:00026500       ?UnpackIntoStructure@KeyValues@@QAEXPBUKeyValuesUnpackStructure@@PAX@Z 1007e500 f   tier1:KeyValues.obj
 0002:000269e0       ?Init@Vector@@QAEXMMM@Z    1007e9e0 f i tier1:KeyValues.obj
 0002:00026a40       ??XVector@@QAEAAV0@M@Z     1007ea40 f i tier1:KeyValues.obj
 0002:00026ab0       ?r@Color@@QBEHXZ           1007eab0 f i tier1:KeyValues.obj
 0002:00026af0       ?g@Color@@QBEHXZ           1007eaf0 f i tier1:KeyValues.obj
 0002:00026b30       ?b@Color@@QBEHXZ           1007eb30 f i tier1:KeyValues.obj
 0002:00026b70       ?ProcessResolutionKeys@KeyValues@@QAE_NPBD@Z 1007eb70 f   tier1:KeyValues.obj
 0002:00026d60       ??0?$CUtlVector@PAVKeyValues@@V?$CUtlMemory@PAVKeyValues@@H@@@@QAE@HH@Z 1007ed60 f i tier1:KeyValues.obj
 0002:00026de0       ??1?$CUtlVector@PAVKeyValues@@V?$CUtlMemory@PAVKeyValues@@H@@@@QAE@XZ 1007ede0 f i tier1:KeyValues.obj
 0002:00026e40       ??A?$CUtlVector@PAVKeyValues@@V?$CUtlMemory@PAVKeyValues@@H@@@@QAEAAPAVKeyValues@@H@Z 1007ee40 f i tier1:KeyValues.obj
 0002:00026ea0       ?Count@?$CUtlVector@PAVKeyValues@@V?$CUtlMemory@PAVKeyValues@@H@@@@QBEHXZ 1007eea0 f i tier1:KeyValues.obj
 0002:00026ee0       ?AddToTail@?$CUtlVector@PAVKeyValues@@V?$CUtlMemory@PAVKeyValues@@H@@@@QAEHABQAVKeyValues@@@Z 1007eee0 f i tier1:KeyValues.obj
 0002:00027070       ??$AlignValue@I@@YAIII@Z   1007f070 f i tier1:KeyValues.obj
 0002:000270c0       ??$GetType@E@CUtlBuffer@@IAEXAAEPBD@Z 1007f0c0 f i tier1:KeyValues.obj
 0002:00027150       ??$GetType@H@CUtlBuffer@@IAEXAAHPBD@Z 1007f150 f i tier1:KeyValues.obj
 0002:000271e0       ??$GetType@I@CUtlBuffer@@IAEXAAIPBD@Z 1007f1e0 f i tier1:KeyValues.obj
 0002:00027270       ??$GetType@M@CUtlBuffer@@IAEXAAMPBD@Z 1007f270 f i tier1:KeyValues.obj
 0002:00027300       ??$GetTypeBin@M@CUtlBuffer@@IAEXAAM@Z 1007f300 f i tier1:KeyValues.obj
 0002:00027410       ?IsSwappingBytes@CByteswap@@QAE_NXZ 1007f410 f i tier1:KeyValues.obj
 0002:00027450       ?PeekGet@CUtlBuffer@@QBEPBXH@Z 1007f450 f i tier1:KeyValues.obj
 0002:000274c0       ??A?$CUtlMemory@EH@@QBEABEH@Z 1007f4c0 f i tier1:KeyValues.obj
 0002:00027610       ??$SwapBufferToTargetEndian@M@CByteswap@@QAEXPAM0H@Z 1007f610 f i tier1:KeyValues.obj
 0002:00027750       ??$GetType@N@CUtlBuffer@@IAEXAANPBD@Z 1007f750 f i tier1:KeyValues.obj
 0002:000277e0       ??$PutType@E@CUtlBuffer@@IAEXEPBD@Z 1007f7e0 f i tier1:KeyValues.obj
 0002:00027870       ??$PutType@H@CUtlBuffer@@IAEXHPBD@Z 1007f870 f i tier1:KeyValues.obj
 0002:00027900       ??$PutType@I@CUtlBuffer@@IAEXIPBD@Z 1007f900 f i tier1:KeyValues.obj
 0002:00027990       ??$PutType@M@CUtlBuffer@@IAEXMPBD@Z 1007f990 f i tier1:KeyValues.obj
 0002:00027a20       ??$PutType@N@CUtlBuffer@@IAEXNPBD@Z 1007fa20 f i tier1:KeyValues.obj
 0002:00027ac0       ?Base@?$CUtlVector@PAVKeyValues@@V?$CUtlMemory@PAVKeyValues@@H@@@@QAEPAPAVKeyValues@@XZ 1007fac0 f i tier1:KeyValues.obj
 0002:00027b10       ?ResetDbgInfo@?$CUtlVector@PAVKeyValues@@V?$CUtlMemory@PAVKeyValues@@H@@@@IAEXXZ 1007fb10 f i tier1:KeyValues.obj
 0002:00027b70       ??0?$CUtlMemory@PAVKeyValues@@H@@QAE@HH@Z 1007fb70 f i tier1:KeyValues.obj
 0002:00027da0       ??1?$CUtlMemory@PAVKeyValues@@H@@QAE@XZ 1007fda0 f i tier1:KeyValues.obj
 0002:00027df0       ??A?$CUtlMemory@PAVKeyValues@@H@@QAEAAPAVKeyValues@@H@Z 1007fdf0 f i tier1:KeyValues.obj
 0002:00028030       ?Base@?$CUtlMemory@PAVKeyValues@@H@@QAEPAPAVKeyValues@@XZ 10080030 f i tier1:KeyValues.obj
 0002:00028170       ?InsertBefore@?$CUtlVector@PAVKeyValues@@V?$CUtlMemory@PAVKeyValues@@H@@@@QAEHHABQAVKeyValues@@@Z 10080170 f i tier1:KeyValues.obj
 0002:00028430       ?Purge@?$CUtlVector@PAVKeyValues@@V?$CUtlMemory@PAVKeyValues@@H@@@@QAEXXZ 10080430 f i tier1:KeyValues.obj
 0002:000284a0       ?IsIdxValid@?$CUtlMemory@EH@@QBE_NH@Z 100804a0 f i tier1:KeyValues.obj
 0002:00028510       ??$LowLevelByteSwap@M@CByteswap@@CAXPAM0@Z 10080510 f i tier1:KeyValues.obj
 0002:00028600       ??$GetTypeBin@E@CUtlBuffer@@IAEXAAE@Z 10080600 f i tier1:KeyValues.obj
 0002:000286e0       ??$GetTypeBin@H@CUtlBuffer@@IAEXAAH@Z 100806e0 f i tier1:KeyValues.obj
 0002:000287c0       ??$GetTypeBin@I@CUtlBuffer@@IAEXAAI@Z 100807c0 f i tier1:KeyValues.obj
 0002:000288a0       ??$GetTypeBin@N@CUtlBuffer@@IAEXAAN@Z 100808a0 f i tier1:KeyValues.obj
 0002:00028970       ??$PutTypeBin@E@CUtlBuffer@@IAEXE@Z 10080970 f i tier1:KeyValues.obj
 0002:00028a50       ?PeekPut@CUtlBuffer@@QAEPAXH@Z 10080a50 f i tier1:KeyValues.obj
 0002:00028ac0       ??A?$CUtlMemory@EH@@QAEAAEH@Z 10080ac0 f i tier1:KeyValues.obj
 0002:00028cf0       ??$PutTypeBin@H@CUtlBuffer@@IAEXH@Z 10080cf0 f i tier1:KeyValues.obj
 0002:00028dc0       ??$PutTypeBin@I@CUtlBuffer@@IAEXI@Z 10080dc0 f i tier1:KeyValues.obj
 0002:00028e90       ??$PutTypeBin@M@CUtlBuffer@@IAEXM@Z 10080e90 f i tier1:KeyValues.obj
 0002:00028f60       ??$PutTypeBin@N@CUtlBuffer@@IAEXN@Z 10080f60 f i tier1:KeyValues.obj
 0002:00029030       ?ValidateGrowSize@?$CUtlMemory@PAVKeyValues@@H@@IAEXXZ 10081030 f i tier1:KeyValues.obj
 0002:00029070       ?IsIdxValid@?$CUtlMemory@PAVKeyValues@@H@@QBE_NH@Z 10081070 f i tier1:KeyValues.obj
 0002:000290e0       ?Purge@?$CUtlMemory@PAVKeyValues@@H@@QAEXXZ 100810e0 f i tier1:KeyValues.obj
 0002:00029190       ?IsReadOnly@?$CUtlMemory@PAVKeyValues@@H@@QBE_NXZ 10081190 f i tier1:KeyValues.obj
 0002:000291e0       ?Element@?$CUtlVector@PAVKeyValues@@V?$CUtlMemory@PAVKeyValues@@H@@@@QAEAAPAVKeyValues@@H@Z 100811e0 f i tier1:KeyValues.obj
 0002:00029240       ?IsValidIndex@?$CUtlVector@PAVKeyValues@@V?$CUtlMemory@PAVKeyValues@@H@@@@QBE_NH@Z 10081240 f i tier1:KeyValues.obj
 0002:000292b0       ?RemoveAll@?$CUtlVector@PAVKeyValues@@V?$CUtlMemory@PAVKeyValues@@H@@@@QAEXXZ 100812b0 f i tier1:KeyValues.obj
 0002:00029340       ?GrowVector@?$CUtlVector@PAVKeyValues@@V?$CUtlMemory@PAVKeyValues@@H@@@@IAEXH@Z 10081340 f i tier1:KeyValues.obj
 0002:00029460       ?ShiftElementsRight@?$CUtlVector@PAVKeyValues@@V?$CUtlMemory@PAVKeyValues@@H@@@@IAEXHH@Z 10081460 f i tier1:KeyValues.obj
 0002:00029620       ??$CopyConstruct@PAVKeyValues@@@@YAXPAPAVKeyValues@@ABQAV0@@Z 10081620 f i tier1:KeyValues.obj
 0002:000296c0       ??$SwapBufferToTargetEndian@E@CByteswap@@QAEXPAE0H@Z 100816c0 f i tier1:KeyValues.obj
 0002:000297f0       ??$SwapBufferToTargetEndian@H@CByteswap@@QAEXPAH0H@Z 100817f0 f i tier1:KeyValues.obj
 0002:00029930       ??$SwapBufferToTargetEndian@I@CByteswap@@QAEXPAI0H@Z 10081930 f i tier1:KeyValues.obj
 0002:00029a70       ??$SwapBufferToTargetEndian@N@CByteswap@@QAEXPAN0H@Z 10081a70 f i tier1:KeyValues.obj
 0002:00029bb0       ?NumAllocated@?$CUtlMemory@PAVKeyValues@@H@@QBEHXZ 10081bb0 f i tier1:KeyValues.obj
 0002:00029bf0       ?Grow@?$CUtlMemory@PAVKeyValues@@H@@QAEXH@Z 10081bf0 f i tier1:KeyValues.obj
 0002:0002a310       ?IsExternallyAllocated@?$CUtlMemory@PAVKeyValues@@H@@QBE_NXZ 10082310 f i tier1:KeyValues.obj
 0002:0002a360       ??$Destruct@PAVKeyValues@@@@YAXPAPAVKeyValues@@@Z 10082360 f i tier1:KeyValues.obj
 0002:0002a3c0       ??$LowLevelByteSwap@E@CByteswap@@CAXPAE0@Z 100823c0 f i tier1:KeyValues.obj
 0002:0002a4b0       ??$LowLevelByteSwap@H@CByteswap@@CAXPAH0@Z 100824b0 f i tier1:KeyValues.obj
 0002:0002a5a0       ??$LowLevelByteSwap@I@CByteswap@@CAXPAI0@Z 100825a0 f i tier1:KeyValues.obj
 0002:0002a690       ??$LowLevelByteSwap@N@CByteswap@@CAXPAN0@Z 10082690 f i tier1:KeyValues.obj
 0002:0002a780       ??0CKeyValuesErrorStack@@QAE@XZ 10082780 f i tier1:KeyValues.obj
 0002:0002a7f0       ?_V_memset@@YAXPBDHPAXHH@Z 100827f0 f   tier1:strtools.obj
 0002:0002a950       ?_V_memcpy@@YAXPBDHPAXPBXH@Z 10082950 f   tier1:strtools.obj
 0002:0002aac0       ?_V_memmove@@YAXPBDHPAXPBXH@Z 10082ac0 f   tier1:strtools.obj
 0002:0002ac30       ?_V_memcmp@@YAHPBDHPBX1H@Z 10082c30 f   tier1:strtools.obj
 0002:0002ada0       ?_V_strlen@@YAHPBDH0@Z     10082da0 f   tier1:strtools.obj
 0002:0002ae10       ?_V_strcpy@@YAXPBDHPAD0@Z  10082e10 f   tier1:strtools.obj
 0002:0002aea0       ?_V_wcslen@@YAHPBDHPB_W@Z  10082ea0 f   tier1:strtools.obj
 0002:0002aef0       ?_V_strrchr@@YAPADPBDH0D@Z 10082ef0 f   tier1:strtools.obj
 0002:0002afd0       ?_V_strcmp@@YAHPBDH00@Z    10082fd0 f   tier1:strtools.obj
 0002:0002b070       ?_V_wcscmp@@YAHPBDHPB_W1@Z 10083070 f   tier1:strtools.obj
 0002:0002b100       ?_V_stricmp@@YAHPBDH00@Z   10083100 f   tier1:strtools.obj
 0002:0002b1a0       ?_V_strstr@@YAPADPBDH00@Z  100831a0 f   tier1:strtools.obj
 0002:0002b240       ?_V_strupr@@YAPADPBDHPAD@Z 10083240 f   tier1:strtools.obj
 0002:0002b2b0       ?_V_strlower@@YAPADPBDHPAD@Z 100832b0 f   tier1:strtools.obj
 0002:0002b320       ?V_strncmp@@YAHPBD0H@Z     10083320 f   tier1:strtools.obj
 0002:0002b530       ?V_strnlwr@@YAPADPADI@Z    10083530 f   tier1:strtools.obj
 0002:0002b6f0       ?V_strncasecmp@@YAHPBD0H@Z 100836f0 f   tier1:strtools.obj
 0002:0002b950       ?V_strcasecmp@@YAHPBD0@Z   10083950 f   tier1:strtools.obj
 0002:0002b9f0       ?V_strnicmp@@YAHPBD0H@Z    100839f0 f   tier1:strtools.obj
 0002:0002bb80       ?StringAfterPrefix@@YAPBDPBD0@Z 10083b80 f   tier1:strtools.obj
 0002:0002bc80       ?StringAfterPrefixCaseSensitive@@YAPBDPBD0@Z 10083c80 f   tier1:strtools.obj
 0002:0002bd70       ?V_atoi@@YAHPBD@Z          10083d70 f   tier1:strtools.obj
 0002:0002c050       ?V_atof@@YAMPBD@Z          10084050 f   tier1:strtools.obj
 0002:0002c310       ?V_normalizeFloatString@@YAXPAD@Z 10084310 f   tier1:strtools.obj
 0002:0002c400       ?strchr@@YAPADPADH@Z       10084400 f i tier1:strtools.obj
 0002:0002c460       ?V_stristr@@YAPBDPBD0@Z    10084460 f   tier1:strtools.obj
 0002:0002c5f0       ?V_stristr@@YAPADPADPBD@Z  100845f0 f   tier1:strtools.obj
 0002:0002c690       ?V_strnistr@@YAPBDPBD0H@Z  10084690 f   tier1:strtools.obj
 0002:0002c860       ?V_strnchr@@YAPBDPBDDH@Z   10084860 f   tier1:strtools.obj
 0002:0002c8e0       ?V_strncpy@@YAXPADPBDH@Z   100848e0 f   tier1:strtools.obj
 0002:0002ca80       ?V_wcsncpy@@YAXPA_WPB_WH@Z 10084a80 f   tier1:strtools.obj
 0002:0002cc10       ?V_snprintf@@YAHPADHPBDZZ  10084c10 f   tier1:strtools.obj
 0002:0002cdd0       ?V_vsnprintf@@YAHPADHPBD0@Z 10084dd0 f   tier1:strtools.obj
 0002:0002cf80       ?V_strncat@@YAPADPADPBDIH@Z 10084f80 f   tier1:strtools.obj
 0002:0002d1c0       ?V_pretifymem@@YAPADMH_N@Z 100851c0 f   tier1:strtools.obj
 0002:0002d560       ?strstr@@YAPADPADPBD@Z     10085560 f i tier1:strtools.obj
 0002:0002d5c0       ?FloatMakePositive@@YAMM@Z 100855c0 f i tier1:strtools.obj
 0002:0002d610       ?V_pretifynum@@YAPAD_J@Z   10085610 f   tier1:strtools.obj
 0002:0002dad0       ?V_UTF8ToUnicode@@YAHPBDPA_WH@Z 10085ad0 f   tier1:strtools.obj
 0002:0002dba0       ?V_UnicodeToUTF8@@YAHPB_WPADH@Z 10085ba0 f   tier1:strtools.obj
 0002:0002dc60       ?V_hextobinary@@YAXPBDHPAEH@Z 10085c60 f   tier1:strtools.obj
 0002:0002df30       ?V_binarytohex@@YAXPBEHPADH@Z 10085f30 f   tier1:strtools.obj
 0002:0002e110       ?V_FileBase@@YAXPBDPADH@Z  10086110 f   tier1:strtools.obj
 0002:0002e5d0       ?V_StripTrailingSlash@@YAXPAD@Z 100865d0 f   tier1:strtools.obj
 0002:0002e760       ?V_StripExtension@@YAXPBDPADH@Z 10086760 f   tier1:strtools.obj
 0002:0002e8d0       ?V_DefaultExtension@@YAXPADPBDH@Z 100868d0 f   tier1:strtools.obj
 0002:0002ed70       ?V_SetExtension@@YAXPADPBDH@Z 10086d70 f   tier1:strtools.obj
 0002:0002ede0       ?V_StripFilename@@YAXPAD@Z 10086de0 f   tier1:strtools.obj
 0002:0002eea0       ?V_FixSlashes@@YAXPADD@Z   10086ea0 f   tier1:strtools.obj
 0002:0002ef10       ?V_FixDoubleSlashes@@YAXPAD@Z 10086f10 f   tier1:strtools.obj
 0002:0002f030       ?V_StripLastDir@@YA_NPADH@Z 10087030 f   tier1:strtools.obj
 0002:0002f2b0       ?V_UnqualifiedFileName@@YAPBDPBD@Z 100872b0 f   tier1:strtools.obj
 0002:0002f350       ?V_ComposeFileName@@YAXPBD0PADH@Z 10087350 f   tier1:strtools.obj
 0002:0002f3f0       ?V_ExtractFilePath@@YA_NPBDPADH@Z 100873f0 f   tier1:strtools.obj
 0002:0002f630       ?V_ExtractFileExtension@@YAXPBDPADH@Z 10087630 f   tier1:strtools.obj
 0002:0002f6b0       ?V_GetFileExtension@@YAPBDPBD@Z 100876b0 f   tier1:strtools.obj
 0002:0002f760       ?V_RemoveDotSlashes@@YA_NPADD@Z 10087760 f   tier1:strtools.obj
 0002:0002faa0       ?V_AppendSlash@@YAXPADH@Z  10087aa0 f   tier1:strtools.obj
 0002:0002fb80       ?V_MakeAbsolutePath@@YAXPADHPBD1@Z 10087b80 f   tier1:strtools.obj
 0002:0002fd20       ?V_MakeRelativePath@@YA_NPBD0PADH@Z 10087d20 f   tier1:strtools.obj
 0002:0002fff0       ?V_IsAbsolutePath@@YA_NPBD@Z 10087ff0 f   tier1:strtools.obj
 0002:000300c0       ?V_StrSubst@@YA_NPBD00PADH_N@Z 100880c0 f   tier1:strtools.obj
 0002:00030390       ?AllocString@@YAPADPBDH@Z  10088390 f   tier1:strtools.obj
 0002:00030480       ?V_SplitString2@@YAXPBDPAPBDHAAV?$CUtlVector@PADV?$CUtlMemory@PADH@@@@@Z 10088480 f   tier1:strtools.obj
 0002:00030610       ?V_SplitString@@YAXPBD0AAV?$CUtlVector@PADV?$CUtlMemory@PADH@@@@@Z 10088610 f   tier1:strtools.obj
 0002:00030670       ?V_StrSlice@@YAXPBDHHPADH@Z 10088670 f   tier1:strtools.obj
 0002:000307c0       ?V_StrLeft@@YAXPBDHPADH@Z  100887c0 f   tier1:strtools.obj
 0002:00030840       ?V_StrRight@@YAXPBDHPADH@Z 10088840 f   tier1:strtools.obj
 0002:000308f0       ?V_strtowcs@@YAXPBDHPA_WH@Z 100888f0 f   tier1:strtools.obj
 0002:00030970       ?V_wcstostr@@YAXPB_WHPADH@Z 10088970 f   tier1:strtools.obj
 0002:000309f0       ?V_AddBackSlashesToSpecialChars@@YAPADPBD@Z 100889f0 f   tier1:strtools.obj
 0002:00030bb0       ?AddToTail@?$CUtlVector@PADV?$CUtlMemory@PADH@@@@QAEHABQAD@Z 10088bb0 f i tier1:strtools.obj
 0002:00030d40       ?Purge@?$CUtlVector@PADV?$CUtlMemory@PADH@@@@QAEXXZ 10088d40 f i tier1:strtools.obj
 0002:00030db0       ??$AssertValidWritePtr@X@@YAXPAXH@Z 10088db0 f i tier1:strtools.obj
 0002:00030e10       ??$AssertValidReadPtr@$$CBX@@YAXPBXH@Z 10088e10 f i tier1:strtools.obj
 0002:00030e70       ??$AssertValidWritePtr@D@@YAXPADH@Z 10088e70 f i tier1:strtools.obj
 0002:00030ed0       ??$AssertValidWritePtr@_W@@YAXPA_WH@Z 10088ed0 f i tier1:strtools.obj
 0002:00030f30       ??$AssertValidReadPtr@$$CB_W@@YAXPB_WH@Z 10088f30 f i tier1:strtools.obj
 0002:00030f90       ?Base@?$CUtlVector@PADV?$CUtlMemory@PADH@@@@QAEPAPADXZ 10088f90 f i tier1:strtools.obj
 0002:00030fe0       ?ResetDbgInfo@?$CUtlVector@PADV?$CUtlMemory@PADH@@@@IAEXXZ 10088fe0 f i tier1:strtools.obj
 0002:00031040       ?Base@?$CUtlMemory@PADH@@QAEPAPADXZ 10089040 f i tier1:strtools.obj
 0002:00031180       ?Purge@?$CUtlMemory@PADH@@QAEXXZ 10089180 f i tier1:strtools.obj
 0002:00031230       ?Count@?$CUtlVector@PADV?$CUtlMemory@PADH@@@@QBEHXZ 10089230 f i tier1:strtools.obj
 0002:00031270       ?InsertBefore@?$CUtlVector@PADV?$CUtlMemory@PADH@@@@QAEHHABQAD@Z 10089270 f i tier1:strtools.obj
 0002:00031530       ?RemoveAll@?$CUtlVector@PADV?$CUtlMemory@PADH@@@@QAEXXZ 10089530 f i tier1:strtools.obj
 0002:000315c0       ?IsExternallyAllocated@?$CUtlMemory@PADH@@QBE_NXZ 100895c0 f i tier1:strtools.obj
 0002:00031610       ?IsReadOnly@?$CUtlMemory@PADH@@QBE_NXZ 10089610 f i tier1:strtools.obj
 0002:00031660       ?Element@?$CUtlVector@PADV?$CUtlMemory@PADH@@@@QAEAAPADH@Z 10089660 f i tier1:strtools.obj
 0002:000316c0       ?IsValidIndex@?$CUtlVector@PADV?$CUtlMemory@PADH@@@@QBE_NH@Z 100896c0 f i tier1:strtools.obj
 0002:00031730       ?GrowVector@?$CUtlVector@PADV?$CUtlMemory@PADH@@@@IAEXH@Z 10089730 f i tier1:strtools.obj
 0002:00031850       ?ShiftElementsRight@?$CUtlVector@PADV?$CUtlMemory@PADH@@@@IAEXHH@Z 10089850 f i tier1:strtools.obj
 0002:00031a10       ??$CopyConstruct@PAD@@YAXPAPADABQAD@Z 10089a10 f i tier1:strtools.obj
 0002:00031ab0       ??$Destruct@PAD@@YAXPAPAD@Z 10089ab0 f i tier1:strtools.obj
 0002:00031b10       ??A?$CUtlMemory@PADH@@QAEAAPADH@Z 10089b10 f i tier1:strtools.obj
 0002:00031d50       ?NumAllocated@?$CUtlMemory@PADH@@QBEHXZ 10089d50 f i tier1:strtools.obj
 0002:00031d90       ?Grow@?$CUtlMemory@PADH@@QAEXH@Z 10089d90 f i tier1:strtools.obj
 0002:000324b0       ?IsIdxValid@?$CUtlMemory@PADH@@QBE_NH@Z 1008a4b0 f i tier1:strtools.obj
 0002:00032520       ?GetCStringCharConversion@@YAPAVCUtlCharConversion@@XZ 1008a520 f   tier1:utlbuffer.obj
 0002:00032560       ?GetNoEscCharConversion@@YAPAVCUtlCharConversion@@XZ 1008a560 f   tier1:utlbuffer.obj
 0002:000325a0       ??0CUtlCStringConversion@@QAE@DPBDHPAUConversionArray_t@CUtlCharConversion@@@Z 1008a5a0 f   tier1:utlbuffer.obj
 0002:00032680       ?FindConversion@CUtlCStringConversion@@UAEDPBDPAH@Z 1008a680 f   tier1:utlbuffer.obj
 0002:000326f0       ??0CUtlCharConversion@@QAE@DPBDHPAUConversionArray_t@0@@Z 1008a6f0 f   tier1:utlbuffer.obj
 0002:00032970       ?GetEscapeChar@CUtlCharConversion@@QBEDXZ 1008a970 f   tier1:utlbuffer.obj
 0002:000329b0       ?GetDelimiter@CUtlCharConversion@@QBEPBDXZ 1008a9b0 f   tier1:utlbuffer.obj
 0002:000329f0       ?GetDelimiterLength@CUtlCharConversion@@QBEHXZ 1008a9f0 f   tier1:utlbuffer.obj
 0002:00032a30       ?GetConversionString@CUtlCharConversion@@QBEPBDD@Z 1008aa30 f   tier1:utlbuffer.obj
 0002:00032a80       ?GetConversionLength@CUtlCharConversion@@QBEHD@Z 1008aa80 f   tier1:utlbuffer.obj
 0002:00032ad0       ?MaxConversionLength@CUtlCharConversion@@QBEHXZ 1008aad0 f   tier1:utlbuffer.obj
 0002:00032b10       ?FindConversion@CUtlCharConversion@@UAEDPBDPAH@Z 1008ab10 f   tier1:utlbuffer.obj
 0002:00032c00       ??0CUtlBuffer@@QAE@HHH@Z   1008ac00 f   tier1:utlbuffer.obj
 0002:00032d10       ??0CByteswap@@QAE@XZ       1008ad10 f i tier1:utlbuffer.obj
 0002:00032d70       ?IsMachineBigEndian@CByteswap@@SA_NXZ 1008ad70 f i tier1:utlbuffer.obj
 0002:00032dc0       ?SetTargetBigEndian@CByteswap@@QAEX_N@Z 1008adc0 f i tier1:utlbuffer.obj
 0002:00032e60       ?IsReadOnly@CUtlBuffer@@QBE_NXZ 1008ae60 f i tier1:utlbuffer.obj
 0002:00032eb0       ??0CUtlBuffer@@QAE@PBXHH@Z 1008aeb0 f   tier1:utlbuffer.obj
 0002:000330a0       ?SetBufferType@CUtlBuffer@@QAEX_N0@Z 1008b0a0 f   tier1:utlbuffer.obj
 0002:000334a0       ?TellMaxPut@CUtlBuffer@@QBEHXZ 1008b4a0 f i tier1:utlbuffer.obj
 0002:000334e0       ?ContainsCRLF@CUtlBuffer@@QBE_NXZ 1008b4e0 f i tier1:utlbuffer.obj
 0002:00033570       ?SetExternalBuffer@CUtlBuffer@@QAEXPAXHHH@Z 1008b570 f   tier1:utlbuffer.obj
 0002:00033630       ?AssumeMemory@CUtlBuffer@@QAEXPAXHHH@Z 1008b630 f   tier1:utlbuffer.obj
 0002:000336f0       ?EnsureCapacity@CUtlBuffer@@QAEXH@Z 1008b6f0 f   tier1:utlbuffer.obj
 0002:000337b0       ?IsGrowable@CUtlBuffer@@QBE_NXZ 1008b7b0 f i tier1:utlbuffer.obj
 0002:00033800       ?Get@CUtlBuffer@@QAEXPAXH@Z 1008b800 f   tier1:utlbuffer.obj
 0002:000338b0       ?GetUpTo@CUtlBuffer@@QAEHPAXH@Z 1008b8b0 f   tier1:utlbuffer.obj
 0002:00033960       ?EatWhiteSpace@CUtlBuffer@@QAEXXZ 1008b960 f   tier1:utlbuffer.obj
 0002:00033a20       ?EatCPPComment@CUtlBuffer@@QAE_NXZ 1008ba20 f   tier1:utlbuffer.obj
 0002:00033b30       ?GetChar@CUtlBuffer@@QAEDXZ 1008bb30 f i tier1:utlbuffer.obj
 0002:00033bc0       ?PeekWhiteSpace@CUtlBuffer@@IAEHH@Z 1008bbc0 f   tier1:utlbuffer.obj
 0002:00033c90       ?PeekStringLength@CUtlBuffer@@QAEHXZ 1008bc90 f   tier1:utlbuffer.obj
 0002:00033ea0       ?PeekLineLength@CUtlBuffer@@IAEHXZ 1008bea0 f   tier1:utlbuffer.obj
 0002:00034040       ?PeekStringMatch@CUtlBuffer@@IAE_NHPBDH@Z 1008c040 f   tier1:utlbuffer.obj
 0002:000340e0       ?PeekDelimitedStringLength@CUtlBuffer@@QAEHPAVCUtlCharConversion@@_N@Z 1008c0e0 f   tier1:utlbuffer.obj
 0002:00034360       ?GetString@CUtlBuffer@@QAEXPADH@Z 1008c360 f   tier1:utlbuffer.obj
 0002:00034610       ??0CDbgFmtMsg@@QAA@PBDZZ   1008c610 f i tier1:utlbuffer.obj
 0002:00034690       ??BCDbgFmtMsg@@QBEPBDXZ    1008c690 f i tier1:utlbuffer.obj
 0002:000346d0       ?GetLine@CUtlBuffer@@QAEXPADH@Z 1008c6d0 f   tier1:utlbuffer.obj
 0002:00034900       ?GetDelimitedCharInternal@CUtlBuffer@@IAEDPAVCUtlCharConversion@@@Z 1008c900 f   tier1:utlbuffer.obj
 0002:00034a20       ?GetDelimitedChar@CUtlBuffer@@QAEDPAVCUtlCharConversion@@@Z 1008ca20 f   tier1:utlbuffer.obj
 0002:00034aa0       ?GetDelimitedString@CUtlBuffer@@QAEXPAVCUtlCharConversion@@PADH@Z 1008caa0 f   tier1:utlbuffer.obj
 0002:00034c60       ?CheckGet@CUtlBuffer@@IAE_NH@Z 1008cc60 f   tier1:utlbuffer.obj
 0002:00034d60       ?CheckPeekGet@CUtlBuffer@@IAE_NHH@Z 1008cd60 f   tier1:utlbuffer.obj
 0002:00034df0       ?CheckArbitraryPeekGet@CUtlBuffer@@IAE_NHAAH@Z 1008cdf0 f   tier1:utlbuffer.obj
 0002:00034f10       ?PeekGet@CUtlBuffer@@QAEPBXHH@Z 1008cf10 f   tier1:utlbuffer.obj
 0002:00034fa0       ?SeekGet@CUtlBuffer@@QAEXW4SeekType_t@1@H@Z 1008cfa0 f   tier1:utlbuffer.obj
 0002:000350d0       ?Size@CUtlBuffer@@QBEHXZ   1008d0d0 f i tier1:utlbuffer.obj
 0002:00035120       ?VaScanf@CUtlBuffer@@QAEHPBDPAD@Z 1008d120 f   tier1:utlbuffer.obj
 0002:00035930       ?Scanf@CUtlBuffer@@QAAHPBDZZ 1008d930 f   tier1:utlbuffer.obj
 0002:000359a0       ?GetToken@CUtlBuffer@@QAE_NPBD@Z 1008d9a0 f   tier1:utlbuffer.obj
 0002:00035c40       ?ParseToken@CUtlBuffer@@QAE_NPBD0PADH@Z 1008dc40 f   tier1:utlbuffer.obj
 0002:00035fe0       ?ParseToken@CUtlBuffer@@QAEHPAUcharacterset_t@@PADH_N@Z 1008dfe0 f   tier1:utlbuffer.obj
 0002:00036340       ?Put@CUtlBuffer@@QAEXPBXH@Z 1008e340 f   tier1:utlbuffer.obj
 0002:00036400       ?PutString@CUtlBuffer@@QAEXPBD@Z 1008e400 f   tier1:utlbuffer.obj
 0002:000365f0       ?WasLastCharacterCR@CUtlBuffer@@IAE_NXZ 1008e5f0 f i tier1:utlbuffer.obj
 0002:00036680       ?TellPut@CUtlBuffer@@QBEHXZ 1008e680 f i tier1:utlbuffer.obj
 0002:000366c0       ?PutTabs@CUtlBuffer@@IAEXXZ 1008e6c0 f i tier1:utlbuffer.obj
 0002:00036770       ?PutDelimitedChar@CUtlBuffer@@QAEXPAVCUtlCharConversion@@D@Z 1008e770 f   tier1:utlbuffer.obj
 0002:00036800       ?PutChar@CUtlBuffer@@QAEXD@Z 1008e800 f i tier1:utlbuffer.obj
 0002:00036880       ?PutDelimitedCharInternal@CUtlBuffer@@IAEXPAVCUtlCharConversion@@D@Z 1008e880 f i tier1:utlbuffer.obj
 0002:00036930       ?PutDelimitedString@CUtlBuffer@@QAEXPAVCUtlCharConversion@@PBD@Z 1008e930 f   tier1:utlbuffer.obj
 0002:00036ab0       ?VaPrintf@CUtlBuffer@@QAEXPBDPAD@Z 1008eab0 f   tier1:utlbuffer.obj
 0002:00036c70       ?Printf@CUtlBuffer@@QAAXPBDZZ 1008ec70 f   tier1:utlbuffer.obj
 0002:00036ce0       ?SetOverflowFuncs@CUtlBuffer@@IAEXP81@AE_NH@Z0@Z 1008ece0 f   tier1:utlbuffer.obj
 0002:00036d30       ?OnPutOverflow@CUtlBuffer@@IAE_NH@Z 1008ed30 f   tier1:utlbuffer.obj
 0002:00036da0       ?OnGetOverflow@CUtlBuffer@@IAE_NH@Z 1008eda0 f   tier1:utlbuffer.obj
 0002:00036e10       ?PutOverflow@CUtlBuffer@@IAE_NH@Z 1008ee10 f   tier1:utlbuffer.obj
 0002:00036ed0       ?GetOverflow@CUtlBuffer@@IAE_NH@Z 1008eed0 f   tier1:utlbuffer.obj
 0002:00036f10       ?CheckPut@CUtlBuffer@@IAE_NH@Z 1008ef10 f   tier1:utlbuffer.obj
 0002:00036ff0       ?SeekPut@CUtlBuffer@@QAEXW4SeekType_t@1@H@Z 1008eff0 f   tier1:utlbuffer.obj
 0002:000370d0       ?ActivateByteSwapping@CUtlBuffer@@QAEX_N@Z 1008f0d0 f   tier1:utlbuffer.obj
 0002:00037130       ?ActivateByteSwapping@CByteswap@@QAEX_N@Z 1008f130 f i tier1:utlbuffer.obj
 0002:000371a0       ?SetBigEndian@CUtlBuffer@@QAEX_N@Z 1008f1a0 f   tier1:utlbuffer.obj
 0002:00037200       ?IsBigEndian@CUtlBuffer@@QAE_NXZ 1008f200 f   tier1:utlbuffer.obj
 0002:00037260       ?IsTargetBigEndian@CByteswap@@QAE_NXZ 1008f260 f i tier1:utlbuffer.obj
 0002:000372b0       ?AddNullTermination@CUtlBuffer@@IAEXXZ 1008f2b0 f   tier1:utlbuffer.obj
 0002:00037380       ?ConvertCRLF@CUtlBuffer@@QAE_NAAV1@@Z 1008f380 f   tier1:utlbuffer.obj
 0002:00037790       ?Purge@CUtlBuffer@@QAEXXZ  1008f790 f i tier1:utlbuffer.obj
 0002:00037820       ??0CUtlInplaceBuffer@@QAE@HHH@Z 1008f820 f   tier1:utlbuffer.obj
 0002:00037890       ?InplaceGetLinePtr@CUtlInplaceBuffer@@QAE_NPAPADPAH@Z 1008f890 f   tier1:utlbuffer.obj
 0002:00037a70       ?InplaceGetLinePtr@CUtlInplaceBuffer@@QAEPADXZ 1008fa70 f   tier1:utlbuffer.obj
 0002:00037db0       ??0?$CUtlMemory@EH@@QAE@PAEH@Z 1008fdb0 f i tier1:utlbuffer.obj
 0002:00037e10       ??0?$CUtlMemory@EH@@QAE@HH@Z 1008fe10 f i tier1:utlbuffer.obj
 0002:00038040       ?SetExternalBuffer@?$CUtlMemory@EH@@QAEXPAEH@Z 10090040 f i tier1:utlbuffer.obj
 0002:000380c0       ?AssumeMemory@?$CUtlMemory@EH@@QAEXPAEH@Z 100900c0 f i tier1:utlbuffer.obj
 0002:00038130       ?ConvertToGrowableMemory@?$CUtlMemory@EH@@QAEXH@Z 10090130 f i tier1:utlbuffer.obj
 0002:000382a0       ?NumAllocated@?$CUtlMemory@EH@@QBEHXZ 100902a0 f i tier1:utlbuffer.obj
 0002:000382e0       ?Grow@?$CUtlMemory@EH@@QAEXH@Z 100902e0 f i tier1:utlbuffer.obj
 0002:00038a00       ?EnsureCapacity@?$CUtlMemory@EH@@QAEXH@Z 10090a00 f i tier1:utlbuffer.obj
 0002:00038cf0       ??$GetType@D@CUtlBuffer@@IAEXAADPBD@Z 10090cf0 f i tier1:utlbuffer.obj
 0002:00038d80       ??$PutTypeBin@D@CUtlBuffer@@IAEXD@Z 10090d80 f i tier1:utlbuffer.obj
 0002:00038e60       ?ValidateGrowSize@?$CUtlMemory@EH@@IAEXXZ 10090e60 f i tier1:utlbuffer.obj
 0002:00038ea0       ??$GetTypeBin@D@CUtlBuffer@@IAEXAAD@Z 10090ea0 f i tier1:utlbuffer.obj
 0002:00038f80       ??$SwapBufferToTargetEndian@D@CByteswap@@QAEXPAD0H@Z 10090f80 f i tier1:utlbuffer.obj
 0002:000390b0       ??$LowLevelByteSwap@D@CByteswap@@CAXPAD0@Z 100910b0 f i tier1:utlbuffer.obj
 0002:000391a0       ??0CUtlNoEscConversion@@QAE@DPBDHPAUConversionArray_t@CUtlCharConversion@@@Z 100911a0 f i tier1:utlbuffer.obj
 0002:00039220       ?FindConversion@CUtlNoEscConversion@@UAEDPBDPAH@Z 10091220 f i tier1:utlbuffer.obj
 0002:00039270       ??0InterfaceReg@@QAE@P6APAXXZPBD@Z 10091270 f   tier1:interface.obj
 0002:000392e0       _CreateInterface           100912e0 f   tier1:interface.obj
 0002:000393a0       ?Sys_IsDebuggerPresent@@YA_NXZ 100913a0 f   tier1:interface.obj
 0002:00039400       ?ThreadedLoadLibraryFunc@@YAIPAX@Z 10091400 f   tier1:interface.obj
 0002:000394d0       ?Sys_LoadLibrary@@YAPAUHINSTANCE__@@PBD@Z 100914d0 f   tier1:interface.obj
 0002:00039720       ?ThreadWaitForObject@@YAHPAX_NI@Z 10091720 f i tier1:interface.obj
 0002:00039790       ?Sys_LoadModule@@YAPAVCSysModule@@PBD@Z 10091790 f   tier1:interface.obj
 0002:00039bf0       ?Sys_UnloadModule@@YAXPAVCSysModule@@@Z 10091bf0 f   tier1:interface.obj
 0002:00039c60       ?Sys_GetFactory@@YAP6APAXPBDPAH@ZPAVCSysModule@@@Z 10091c60 f   tier1:interface.obj
 0002:00039cd0       ?Sys_GetFactoryThis@@YAP6APAXPBDPAH@ZXZ 10091cd0 f   tier1:interface.obj
 0002:00039d10       ?Sys_GetFactory@@YAP6APAXPBDPAH@Z0@Z 10091d10 f   tier1:interface.obj
 0002:00039df0       ?Sys_LoadInterface@@YA_NPBD0PAPAVCSysModule@@PAPAX@Z 10091df0 f   tier1:interface.obj
 0002:00039ed0       ??0CDllDemandLoader@@QAE@PBD@Z 10091ed0 f   tier1:interface.obj
 0002:00039f40       ??_GCDllDemandLoader@@UAEPAXI@Z 10091f40 f i tier1:interface.obj
 0002:00039f40       ??_ECDllDemandLoader@@UAEPAXI@Z 10091f40 f i tier1:interface.obj
 0002:00039fb0       ??1CDllDemandLoader@@UAE@XZ 10091fb0 f   tier1:interface.obj
 0002:0003a010       ?GetFactory@CDllDemandLoader@@QAEP6APAXPBDPAH@ZXZ 10092010 f   tier1:interface.obj
 0002:0003a0c0       ?Unload@CDllDemandLoader@@QAEXXZ 100920c0 f   tier1:interface.obj
 0002:0003a130       ?StrLess@@YA_NABQBD0@Z     10092130 f   tier1:stringpool.obj
 0002:0003a1b0       ??0CStringPool@@QAE@XZ     100921b0 f   tier1:stringpool.obj
 0002:0003a220       ??1CStringPool@@QAE@XZ     10092220 f   tier1:stringpool.obj
 0002:0003a280       ?Count@CStringPool@@QBEIXZ 10092280 f   tier1:stringpool.obj
 0002:0003a2d0       ?Find@CStringPool@@QAEPBDPBD@Z 100922d0 f   tier1:stringpool.obj
 0002:0003a360       ?Allocate@CStringPool@@QAEPBDPBD@Z 10092360 f   tier1:stringpool.obj
 0002:0003a480       ?MemAlloc_StrDup@@YAPADPBD0I@Z 10092480 f i tier1:stringpool.obj
 0002:0003a540       ?FreeAll@CStringPool@@QAEXXZ 10092540 f   tier1:stringpool.obj
 0002:0003a610       ??0CCountedStringPool@@QAE@XZ 10092610 f   tier1:stringpool.obj
 0002:0003a7c0       ??_GCCountedStringPool@@UAEPAXI@Z 100927c0 f i tier1:stringpool.obj
 0002:0003a7c0       ??_ECCountedStringPool@@UAEPAXI@Z 100927c0 f i tier1:stringpool.obj
 0002:0003a830       ??1CCountedStringPool@@UAE@XZ 10092830 f   tier1:stringpool.obj
 0002:0003a8b0       ?FreeAll@CCountedStringPool@@QAEXXZ 100928b0 f   tier1:stringpool.obj
 0002:0003aa70       ?FindStringHandle@CCountedStringPool@@QAEGPBD@Z 10092a70 f   tier1:stringpool.obj
 0002:0003ab80       ?FindString@CCountedStringPool@@QAEPADPBD@Z 10092b80 f   tier1:stringpool.obj
 0002:0003ac00       ?ReferenceStringHandle@CCountedStringPool@@QAEGPBD@Z 10092c00 f   tier1:stringpool.obj
 0002:0003aed0       ?ReferenceString@CCountedStringPool@@QAEPADPBD@Z 10092ed0 f   tier1:stringpool.obj
 0002:0003af50       ?DereferenceString@CCountedStringPool@@QAEXPBD@Z 10092f50 f   tier1:stringpool.obj
 0002:0003b210       ?HandleToString@CCountedStringPool@@QAEPADG@Z 10093210 f   tier1:stringpool.obj
 0002:0003b270       ?SpewStrings@CCountedStringPool@@QAEXXZ 10093270 f   tier1:stringpool.obj
 0002:0003b390       ??0?$CUtlRBTree@PBDGP6A_NABQBD0@ZV?$CUtlMemory@U?$UtlRBTreeNode_t@PBDG@@G@@@@QAE@HHABQ6A_NABQBD0@Z@Z 10093390 f i tier1:stringpool.obj
 0002:0003b450       ??1?$CUtlRBTree@PBDGP6A_NABQBD0@ZV?$CUtlMemory@U?$UtlRBTreeNode_t@PBDG@@G@@@@QAE@XZ 10093450 f i tier1:stringpool.obj
 0002:0003b4b0       ??A?$CUtlRBTree@PBDGP6A_NABQBD0@ZV?$CUtlMemory@U?$UtlRBTreeNode_t@PBDG@@G@@@@QAEAAPBDG@Z 100934b0 f i tier1:stringpool.obj
 0002:0003b510       ?Count@?$CUtlRBTree@PBDGP6A_NABQBD0@ZV?$CUtlMemory@U?$UtlRBTreeNode_t@PBDG@@G@@@@QBEIXZ 10093510 f i tier1:stringpool.obj
 0002:0003b550       ?IsValidIndex@?$CUtlRBTree@PBDGP6A_NABQBD0@ZV?$CUtlMemory@U?$UtlRBTreeNode_t@PBDG@@G@@@@QBE_NG@Z 10093550 f i tier1:stringpool.obj
 0002:0003b610       ?InvalidIndex@?$CUtlRBTree@PBDGP6A_NABQBD0@ZV?$CUtlMemory@U?$UtlRBTreeNode_t@PBDG@@G@@@@SAGXZ 10093610 f i tier1:stringpool.obj
 0002:0003b660       ?Insert@?$CUtlRBTree@PBDGP6A_NABQBD0@ZV?$CUtlMemory@U?$UtlRBTreeNode_t@PBDG@@G@@@@QAEGABQBD@Z 10093660 f i tier1:stringpool.obj
 0002:0003b760       ?Find@?$CUtlRBTree@PBDGP6A_NABQBD0@ZV?$CUtlMemory@U?$UtlRBTreeNode_t@PBDG@@G@@@@QBEGABQBD@Z 10093760 f i tier1:stringpool.obj
 0002:0003b960       ?RemoveAll@?$CUtlRBTree@PBDGP6A_NABQBD0@ZV?$CUtlMemory@U?$UtlRBTreeNode_t@PBDG@@G@@@@QAEXXZ 10093960 f i tier1:stringpool.obj
 0002:0003bf10       ?FirstInorder@?$CUtlRBTree@PBDGP6A_NABQBD0@ZV?$CUtlMemory@U?$UtlRBTreeNode_t@PBDG@@G@@@@QBEGXZ 10093f10 f i tier1:stringpool.obj
 0002:0003bfb0       ?NextInorder@?$CUtlRBTree@PBDGP6A_NABQBD0@ZV?$CUtlMemory@U?$UtlRBTreeNode_t@PBDG@@G@@@@QBEGG@Z 10093fb0 f i tier1:stringpool.obj
 0002:0003c1d0       ??0?$CUtlVector@GV?$CUtlMemory@GH@@@@QAE@HH@Z 100941d0 f i tier1:stringpool.obj
 0002:0003c250       ??1?$CUtlVector@GV?$CUtlMemory@GH@@@@QAE@XZ 10094250 f i tier1:stringpool.obj
 0002:0003c2b0       ??A?$CUtlVector@GV?$CUtlMemory@GH@@@@QAEAAGH@Z 100942b0 f i tier1:stringpool.obj
 0002:0003c310       ?Count@?$CUtlVector@GV?$CUtlMemory@GH@@@@QBEHXZ 10094310 f i tier1:stringpool.obj
 0002:0003c350       ?EnsureCount@?$CUtlVector@GV?$CUtlMemory@GH@@@@QAEXH@Z 10094350 f i tier1:stringpool.obj
 0002:0003c3d0       ??0?$CUtlVector@Uhash_item_t@CCountedStringPool@@V?$CUtlMemory@Uhash_item_t@CCountedStringPool@@H@@@@QAE@HH@Z 100943d0 f i tier1:stringpool.obj
 0002:0003c450       ??1?$CUtlVector@Uhash_item_t@CCountedStringPool@@V?$CUtlMemory@Uhash_item_t@CCountedStringPool@@H@@@@QAE@XZ 10094450 f i tier1:stringpool.obj
 0002:0003c4b0       ??A?$CUtlVector@Uhash_item_t@CCountedStringPool@@V?$CUtlMemory@Uhash_item_t@CCountedStringPool@@H@@@@QAEAAUhash_item_t@CCountedStringPool@@H@Z 100944b0 f i tier1:stringpool.obj
 0002:0003c510       ?Count@?$CUtlVector@Uhash_item_t@CCountedStringPool@@V?$CUtlMemory@Uhash_item_t@CCountedStringPool@@H@@@@QBEHXZ 10094510 f i tier1:stringpool.obj
 0002:0003c550       ?AddToTail@?$CUtlVector@Uhash_item_t@CCountedStringPool@@V?$CUtlMemory@Uhash_item_t@CCountedStringPool@@H@@@@QAEHXZ 10094550 f i tier1:stringpool.obj
 0002:0003c5b0       ?RemoveAll@?$CUtlVector@Uhash_item_t@CCountedStringPool@@V?$CUtlMemory@Uhash_item_t@CCountedStringPool@@H@@@@QAEXXZ 100945b0 f i tier1:stringpool.obj
 0002:0003c640       ?ResetDbgInfo@?$CUtlRBTree@PBDGP6A_NABQBD0@ZV?$CUtlMemory@U?$UtlRBTreeNode_t@PBDG@@G@@@@IAEXXZ 10094640 f i tier1:stringpool.obj
 0002:0003c6a0       ?First@?$CUtlMemory@U?$UtlRBTreeNode_t@PBDG@@G@@QBE?AVIterator_t@1@XZ 100946a0 f i tier1:stringpool.obj
 0002:0003c740       ?Next@?$CUtlMemory@U?$UtlRBTreeNode_t@PBDG@@G@@QBE?AVIterator_t@1@ABV21@@Z 10094740 f i tier1:stringpool.obj
 0002:0003c7f0       ?GetIndex@?$CUtlMemory@U?$UtlRBTreeNode_t@PBDG@@G@@QBEGABVIterator_t@1@@Z 100947f0 f i tier1:stringpool.obj
 0002:0003c830       ?IsIdxAfter@?$CUtlMemory@U?$UtlRBTreeNode_t@PBDG@@G@@QBE_NGABVIterator_t@1@@Z 10094830 f i tier1:stringpool.obj
 0002:0003c880       ?InvalidIterator@?$CUtlMemory@U?$UtlRBTreeNode_t@PBDG@@G@@QBE?AVIterator_t@1@XZ 10094880 f i tier1:stringpool.obj
 0002:0003c8e0       ?InvalidIndex@?$CUtlMemory@U?$UtlRBTreeNode_t@PBDG@@G@@SAGXZ 100948e0 f i tier1:stringpool.obj
 0002:0003c920       ??8Iterator_t@?$CUtlMemory@U?$UtlRBTreeNode_t@PBDG@@G@@QBE_NV01@@Z 10094920 f i tier1:stringpool.obj
 0002:0003c970       ??9Iterator_t@?$CUtlMemory@U?$UtlRBTreeNode_t@PBDG@@G@@QBE_NV01@@Z 10094970 f i tier1:stringpool.obj
 0002:0003c9c0       ?ResetDbgInfo@?$CUtlVector@GV?$CUtlMemory@GH@@@@IAEXXZ 100949c0 f i tier1:stringpool.obj
 0002:0003ca20       ?ResetDbgInfo@?$CUtlVector@Uhash_item_t@CCountedStringPool@@V?$CUtlMemory@Uhash_item_t@CCountedStringPool@@H@@@@IAEXXZ 10094a20 f i tier1:stringpool.obj
 0002:0003ca80       ??0Iterator_t@?$CUtlMemory@U?$UtlRBTreeNode_t@PBDG@@G@@QAE@G@Z 10094a80 f i tier1:stringpool.obj
 0002:0003cad0       ?Base@?$CUtlVector@GV?$CUtlMemory@GH@@@@QAEPAGXZ 10094ad0 f i tier1:stringpool.obj
 0002:0003cb20       ?Base@?$CUtlVector@Uhash_item_t@CCountedStringPool@@V?$CUtlMemory@Uhash_item_t@CCountedStringPool@@H@@@@QAEPAUhash_item_t@CCountedStringPool@@XZ 10094b20 f i tier1:stringpool.obj
 0002:0003cb70       ??0?$CUtlMemory@U?$UtlRBTreeNode_t@PBDG@@G@@QAE@HH@Z 10094b70 f i tier1:stringpool.obj
 0002:0003cda0       ??1?$CUtlMemory@U?$UtlRBTreeNode_t@PBDG@@G@@QAE@XZ 10094da0 f i tier1:stringpool.obj
 0002:0003cdf0       ?IsIdxValid@?$CUtlMemory@U?$UtlRBTreeNode_t@PBDG@@G@@QBE_NG@Z 10094df0 f i tier1:stringpool.obj
 0002:0003ce70       ?Base@?$CUtlMemory@U?$UtlRBTreeNode_t@PBDG@@G@@QAEPAU?$UtlRBTreeNode_t@PBDG@@XZ 10094e70 f i tier1:stringpool.obj
 0002:0003cfb0       ?Element@?$CUtlRBTree@PBDGP6A_NABQBD0@ZV?$CUtlMemory@U?$UtlRBTreeNode_t@PBDG@@G@@@@QBEABQBDG@Z 10094fb0 f i tier1:stringpool.obj
 0002:0003d010       ?Element@?$CUtlRBTree@PBDGP6A_NABQBD0@ZV?$CUtlMemory@U?$UtlRBTreeNode_t@PBDG@@G@@@@QAEAAPBDG@Z 10095010 f i tier1:stringpool.obj
 0002:0003d070       ?Parent@?$CUtlRBTree@PBDGP6A_NABQBD0@ZV?$CUtlMemory@U?$UtlRBTreeNode_t@PBDG@@G@@@@QBEGG@Z 10095070 f i tier1:stringpool.obj
 0002:0003d0d0       ?LeftChild@?$CUtlRBTree@PBDGP6A_NABQBD0@ZV?$CUtlMemory@U?$UtlRBTreeNode_t@PBDG@@G@@@@QBEGG@Z 100950d0 f i tier1:stringpool.obj
 0002:0003d130       ?RightChild@?$CUtlRBTree@PBDGP6A_NABQBD0@ZV?$CUtlMemory@U?$UtlRBTreeNode_t@PBDG@@G@@@@QBEGG@Z 10095130 f i tier1:stringpool.obj
 0002:0003d190       ?IsRightChild@?$CUtlRBTree@PBDGP6A_NABQBD0@ZV?$CUtlMemory@U?$UtlRBTreeNode_t@PBDG@@G@@@@QBE_NG@Z 10095190 f i tier1:stringpool.obj
 0002:0003d210       ?IsValid@?$CUtlRBTree@PBDGP6A_NABQBD0@ZV?$CUtlMemory@U?$UtlRBTreeNode_t@PBDG@@G@@@@QBE_NXZ 10095210 f i tier1:stringpool.obj
 0002:0003d300       ?Purge@?$CUtlRBTree@PBDGP6A_NABQBD0@ZV?$CUtlMemory@U?$UtlRBTreeNode_t@PBDG@@G@@@@QAEXXZ 10095300 f i tier1:stringpool.obj
 0002:0003d390       ?SetLeftChild@?$CUtlRBTree@PBDGP6A_NABQBD0@ZV?$CUtlMemory@U?$UtlRBTreeNode_t@PBDG@@G@@@@IAEXGG@Z 10095390 f i tier1:stringpool.obj
 0002:0003d3f0       ?SetRightChild@?$CUtlRBTree@PBDGP6A_NABQBD0@ZV?$CUtlMemory@U?$UtlRBTreeNode_t@PBDG@@G@@@@IAEXGG@Z 100953f0 f i tier1:stringpool.obj
 0002:0003d460       ?InsertAt@?$CUtlRBTree@PBDGP6A_NABQBD0@ZV?$CUtlMemory@U?$UtlRBTreeNode_t@PBDG@@G@@@@IAEGG_N@Z 10095460 f i tier1:stringpool.obj
 0002:0003d5e0       ?FindInsertionPosition@?$CUtlRBTree@PBDGP6A_NABQBD0@ZV?$CUtlMemory@U?$UtlRBTreeNode_t@PBDG@@G@@@@IAEXABQBDAAGAA_N@Z 100955e0 f i tier1:stringpool.obj
 0002:0003d7d0       ??0?$CUtlMemory@GH@@QAE@HH@Z 100957d0 f i tier1:stringpool.obj
 0002:0003da00       ??1?$CUtlMemory@GH@@QAE@XZ 10095a00 f i tier1:stringpool.obj
 0002:0003da50       ??A?$CUtlMemory@GH@@QAEAAGH@Z 10095a50 f i tier1:stringpool.obj
 0002:0003dc90       ?Base@?$CUtlMemory@GH@@QAEPAGXZ 10095c90 f i tier1:stringpool.obj
 0002:0003ddd0       ?AddMultipleToTail@?$CUtlVector@GV?$CUtlMemory@GH@@@@QAEHHPBG@Z 10095dd0 f i tier1:stringpool.obj
 0002:0003df70       ?Purge@?$CUtlVector@GV?$CUtlMemory@GH@@@@QAEXXZ 10095f70 f i tier1:stringpool.obj
 0002:0003dfe0       ??0?$CUtlMemory@Uhash_item_t@CCountedStringPool@@H@@QAE@HH@Z 10095fe0 f i tier1:stringpool.obj
 0002:0003e210       ??1?$CUtlMemory@Uhash_item_t@CCountedStringPool@@H@@QAE@XZ 10096210 f i tier1:stringpool.obj
 0002:0003e260       ??A?$CUtlMemory@Uhash_item_t@CCountedStringPool@@H@@QAEAAUhash_item_t@CCountedStringPool@@H@Z 10096260 f i tier1:stringpool.obj
 0002:0003e4a0       ?Base@?$CUtlMemory@Uhash_item_t@CCountedStringPool@@H@@QAEPAUhash_item_t@CCountedStringPool@@XZ 100964a0 f i tier1:stringpool.obj
 0002:0003e5e0       ?Element@?$CUtlVector@Uhash_item_t@CCountedStringPool@@V?$CUtlMemory@Uhash_item_t@CCountedStringPool@@H@@@@QAEAAUhash_item_t@CCountedStringPool@@H@Z 100965e0 f i tier1:stringpool.obj
 0002:0003e640       ?InsertBefore@?$CUtlVector@Uhash_item_t@CCountedStringPool@@V?$CUtlMemory@Uhash_item_t@CCountedStringPool@@H@@@@QAEHH@Z 10096640 f i tier1:stringpool.obj
 0002:0003e7d0       ?Purge@?$CUtlVector@Uhash_item_t@CCountedStringPool@@V?$CUtlMemory@Uhash_item_t@CCountedStringPool@@H@@@@QAEXXZ 100967d0 f i tier1:stringpool.obj
 0002:0003e840       ??$CopyConstruct@PBD@@YAXPAPBDABQBD@Z 10096840 f i tier1:stringpool.obj
 0002:0003e8e0       ??$Destruct@PBD@@YAXPAPBD@Z 100968e0 f i tier1:stringpool.obj
 0002:0003e940       ??$Destruct@Uhash_item_t@CCountedStringPool@@@@YAXPAUhash_item_t@CCountedStringPool@@@Z 10096940 f i tier1:stringpool.obj
 0002:0003e9a0       ?ValidateGrowSize@?$CUtlMemory@U?$UtlRBTreeNode_t@PBDG@@G@@IAEXXZ 100969a0 f i tier1:stringpool.obj
 0002:0003e9e0       ?ValidateGrowSize@?$CUtlMemory@GH@@IAEXXZ 100969e0 f i tier1:stringpool.obj
 0002:0003ea20       ?ValidateGrowSize@?$CUtlMemory@Uhash_item_t@CCountedStringPool@@H@@IAEXXZ 10096a20 f i tier1:stringpool.obj
 0002:0003ea60       ??A?$CUtlMemory@U?$UtlRBTreeNode_t@PBDG@@G@@QBEABU?$UtlRBTreeNode_t@PBDG@@G@Z 10096a60 f i tier1:stringpool.obj
 0002:0003ebb0       ??A?$CUtlMemory@U?$UtlRBTreeNode_t@PBDG@@G@@QAEAAU?$UtlRBTreeNode_t@PBDG@@G@Z 10096bb0 f i tier1:stringpool.obj
 0002:0003edf0       ?Purge@?$CUtlMemory@U?$UtlRBTreeNode_t@PBDG@@G@@QAEXXZ 10096df0 f i tier1:stringpool.obj
 0002:0003eea0       ?IsReadOnly@?$CUtlMemory@U?$UtlRBTreeNode_t@PBDG@@G@@QBE_NXZ 10096ea0 f i tier1:stringpool.obj
 0002:0003eef0       ?Root@?$CUtlRBTree@PBDGP6A_NABQBD0@ZV?$CUtlMemory@U?$UtlRBTreeNode_t@PBDG@@G@@@@QBEGXZ 10096ef0 f i tier1:stringpool.obj
 0002:0003ef30       ?NewNode@?$CUtlRBTree@PBDGP6A_NABQBD0@ZV?$CUtlMemory@U?$UtlRBTreeNode_t@PBDG@@G@@@@QAEGXZ 10096f30 f i tier1:stringpool.obj
 0002:0003f560       ?LinkToParent@?$CUtlRBTree@PBDGP6A_NABQBD0@ZV?$CUtlMemory@U?$UtlRBTreeNode_t@PBDG@@G@@@@IAEXGG_N@Z 10097560 f i tier1:stringpool.obj
 0002:0003f670       ?Links@?$CUtlRBTree@PBDGP6A_NABQBD0@ZV?$CUtlMemory@U?$UtlRBTreeNode_t@PBDG@@G@@@@IAEAAU?$UtlRBTreeLinks_t@G@@G@Z 10097670 f i tier1:stringpool.obj
 0002:0003f7c0       ?Links@?$CUtlRBTree@PBDGP6A_NABQBD0@ZV?$CUtlMemory@U?$UtlRBTreeNode_t@PBDG@@G@@@@IBEABU?$UtlRBTreeLinks_t@G@@G@Z 100977c0 f i tier1:stringpool.obj
 0002:0003f8b0       ?IsIdxValid@?$CUtlMemory@GH@@QBE_NH@Z 100978b0 f i tier1:stringpool.obj
 0002:0003f920       ?Purge@?$CUtlMemory@GH@@QAEXXZ 10097920 f i tier1:stringpool.obj
 0002:0003f9d0       ?IsReadOnly@?$CUtlMemory@GH@@QBE_NXZ 100979d0 f i tier1:stringpool.obj
 0002:0003fa20       ?InsertMultipleBefore@?$CUtlVector@GV?$CUtlMemory@GH@@@@QAEHHHPBG@Z 10097a20 f i tier1:stringpool.obj
 0002:0003fc40       ?RemoveAll@?$CUtlVector@GV?$CUtlMemory@GH@@@@QAEXXZ 10097c40 f i tier1:stringpool.obj
 0002:0003fcd0       ?IsIdxValid@?$CUtlMemory@Uhash_item_t@CCountedStringPool@@H@@QBE_NH@Z 10097cd0 f i tier1:stringpool.obj
 0002:0003fd40       ?Purge@?$CUtlMemory@Uhash_item_t@CCountedStringPool@@H@@QAEXXZ 10097d40 f i tier1:stringpool.obj
 0002:0003fdf0       ?IsReadOnly@?$CUtlMemory@Uhash_item_t@CCountedStringPool@@H@@QBE_NXZ 10097df0 f i tier1:stringpool.obj
 0002:0003fe40       ?IsValidIndex@?$CUtlVector@Uhash_item_t@CCountedStringPool@@V?$CUtlMemory@Uhash_item_t@CCountedStringPool@@H@@@@QBE_NH@Z 10097e40 f i tier1:stringpool.obj
 0002:0003feb0       ?GrowVector@?$CUtlVector@Uhash_item_t@CCountedStringPool@@V?$CUtlMemory@Uhash_item_t@CCountedStringPool@@H@@@@IAEXH@Z 10097eb0 f i tier1:stringpool.obj
 0002:0003ffd0       ?ShiftElementsRight@?$CUtlVector@Uhash_item_t@CCountedStringPool@@V?$CUtlMemory@Uhash_item_t@CCountedStringPool@@H@@@@IAEXHH@Z 10097fd0 f i tier1:stringpool.obj
 0002:00040190       ??$Construct@Uhash_item_t@CCountedStringPool@@@@YAXPAUhash_item_t@CCountedStringPool@@@Z 10098190 f i tier1:stringpool.obj
 0002:000401f0       ?IsValidIterator@?$CUtlMemory@U?$UtlRBTreeNode_t@PBDG@@G@@QBE_NABVIterator_t@1@@Z 100981f0 f i tier1:stringpool.obj
 0002:00040250       ?Grow@?$CUtlMemory@U?$UtlRBTreeNode_t@PBDG@@G@@QAEXH@Z 10098250 f i tier1:stringpool.obj
 0002:00040980       ?IsExternallyAllocated@?$CUtlMemory@U?$UtlRBTreeNode_t@PBDG@@G@@QBE_NXZ 10098980 f i tier1:stringpool.obj
 0002:000409d0       ?InsertRebalance@?$CUtlRBTree@PBDGP6A_NABQBD0@ZV?$CUtlMemory@U?$UtlRBTreeNode_t@PBDG@@G@@@@IAEXG@Z 100989d0 f i tier1:stringpool.obj
 0002:00040ce0       ?IsExternallyAllocated@?$CUtlMemory@GH@@QBE_NXZ 10098ce0 f i tier1:stringpool.obj
 0002:00040d30       ?Element@?$CUtlVector@GV?$CUtlMemory@GH@@@@QAEAAGH@Z 10098d30 f i tier1:stringpool.obj
 0002:00040d90       ?IsValidIndex@?$CUtlVector@GV?$CUtlMemory@GH@@@@QBE_NH@Z 10098d90 f i tier1:stringpool.obj
 0002:00040e00       ?GrowVector@?$CUtlVector@GV?$CUtlMemory@GH@@@@IAEXH@Z 10098e00 f i tier1:stringpool.obj
 0002:00040f20       ?ShiftElementsRight@?$CUtlVector@GV?$CUtlMemory@GH@@@@IAEXHH@Z 10098f20 f i tier1:stringpool.obj
 0002:000410e0       ?NumAllocated@?$CUtlMemory@Uhash_item_t@CCountedStringPool@@H@@QBEHXZ 100990e0 f i tier1:stringpool.obj
 0002:00041120       ?Grow@?$CUtlMemory@Uhash_item_t@CCountedStringPool@@H@@QAEXH@Z 10099120 f i tier1:stringpool.obj
 0002:00041840       ?IsExternallyAllocated@?$CUtlMemory@Uhash_item_t@CCountedStringPool@@H@@QBE_NXZ 10099840 f i tier1:stringpool.obj
 0002:00041890       ??$Construct@PBD@@YAXPAPBD@Z 10099890 f i tier1:stringpool.obj
 0002:000418f0       ??$Construct@G@@YAXPAG@Z   100998f0 f i tier1:stringpool.obj
 0002:00041950       ??$Destruct@G@@YAXPAG@Z    10099950 f i tier1:stringpool.obj
 0002:000419b0       ?IsLeftChild@?$CUtlRBTree@PBDGP6A_NABQBD0@ZV?$CUtlMemory@U?$UtlRBTreeNode_t@PBDG@@G@@@@QBE_NG@Z 100999b0 f i tier1:stringpool.obj
 0002:00041a30       ?IsRoot@?$CUtlRBTree@PBDGP6A_NABQBD0@ZV?$CUtlMemory@U?$UtlRBTreeNode_t@PBDG@@G@@@@QBE_NG@Z 10099a30 f i tier1:stringpool.obj
 0002:00041a80       ?IsRed@?$CUtlRBTree@PBDGP6A_NABQBD0@ZV?$CUtlMemory@U?$UtlRBTreeNode_t@PBDG@@G@@@@IBE_NG@Z 10099a80 f i tier1:stringpool.obj
 0002:00041af0       ?Color@?$CUtlRBTree@PBDGP6A_NABQBD0@ZV?$CUtlMemory@U?$UtlRBTreeNode_t@PBDG@@G@@@@IBE?AW4NodeColor_t@1@G@Z 10099af0 f i tier1:stringpool.obj
 0002:00041b50       ?SetColor@?$CUtlRBTree@PBDGP6A_NABQBD0@ZV?$CUtlMemory@U?$UtlRBTreeNode_t@PBDG@@G@@@@IAEXGW4NodeColor_t@1@@Z 10099b50 f i tier1:stringpool.obj
 0002:00041bc0       ?RotateLeft@?$CUtlRBTree@PBDGP6A_NABQBD0@ZV?$CUtlMemory@U?$UtlRBTreeNode_t@PBDG@@G@@@@IAEXG@Z 10099bc0 f i tier1:stringpool.obj
 0002:00041d90       ?RotateRight@?$CUtlRBTree@PBDGP6A_NABQBD0@ZV?$CUtlMemory@U?$UtlRBTreeNode_t@PBDG@@G@@@@IAEXG@Z 10099d90 f i tier1:stringpool.obj
 0002:00041f60       ?NumAllocated@?$CUtlMemory@GH@@QBEHXZ 10099f60 f i tier1:stringpool.obj
 0002:00041fa0       ?Grow@?$CUtlMemory@GH@@QAEXH@Z 10099fa0 f i tier1:stringpool.obj
 0002:000426c0       ?SetParent@?$CUtlRBTree@PBDGP6A_NABQBD0@ZV?$CUtlMemory@U?$UtlRBTreeNode_t@PBDG@@G@@@@IAEXGG@Z 1009a6c0 f i tier1:stringpool.obj
 0002:000430f0       ?HashString@@YIIPBD@Z      1009b0f0 f   tier1:generichash.obj
 0002:00043210       ?HashStringCaseless@@YIIPBD@Z 1009b210 f   tier1:generichash.obj
 0002:00043320       ?HashStringCaselessConventional@@YIIPBD@Z 1009b320 f   tier1:generichash.obj
 0002:000433c0       ?HashInt@@YIIH@Z           1009b3c0 f   tier1:generichash.obj
 0002:000434a0       ?Hash4@@YIIPBX@Z           1009b4a0 f   tier1:generichash.obj
 0002:00043590       ?Hash8@@YIIPBX@Z           1009b590 f   tier1:generichash.obj
 0002:00043700       ?Hash12@@YIIPBX@Z          1009b700 f   tier1:generichash.obj
 0002:000438f0       ?Hash16@@YIIPBX@Z          1009b8f0 f   tier1:generichash.obj
 0002:00043b50       ?HashBlock@@YIIPBXI@Z      1009bb50 f   tier1:generichash.obj
 0002:00043c30       ?ConVar_Register@@YAXHPAVIConCommandBaseAccessor@@@Z 1009bc30 f   tier1:convar.obj
 0002:00043e60       ?ConVar_Unregister@@YAXXZ  1009be60 f   tier1:convar.obj
 0002:00044000       ??0ConCommandBase@@QAE@XZ  1009c000 f   tier1:convar.obj
 0002:00044080       ??_EConCommandBase@@UAEPAXI@Z 1009c080 f i tier1:convar.obj
 0002:00044080       ??_GConCommandBase@@UAEPAXI@Z 1009c080 f i tier1:convar.obj
 0002:000440f0       ??0ConCommandBase@@QAE@PBD0H@Z 1009c0f0 f   tier1:convar.obj
 0002:00044160       ??1ConCommandBase@@UAE@XZ  1009c160 f   tier1:convar.obj
 0002:000441a0       ?IsCommand@ConCommandBase@@UBE_NXZ 1009c1a0 f   tier1:convar.obj
 0002:000441e0       ?GetDLLIdentifier@ConCommandBase@@UBEHXZ 1009c1e0 f   tier1:convar.obj
 0002:00044220       ?Create@ConCommandBase@@MAEXPBD0H@Z 1009c220 f   tier1:convar.obj
 0002:00044410       ?Init@ConCommandBase@@MAEXXZ 1009c410 f   tier1:convar.obj
 0002:00044490       ?Shutdown@ConCommandBase@@IAEXXZ 1009c490 f   tier1:convar.obj
 0002:00044510       ?GetName@ConCommandBase@@UBEPBDXZ 1009c510 f   tier1:convar.obj
 0002:00044550       ?IsFlagSet@ConCommandBase@@UBE_NH@Z 1009c550 f   tier1:convar.obj
 0002:000445a0       ?AddFlags@ConCommandBase@@UAEXH@Z 1009c5a0 f   tier1:convar.obj
 0002:000445f0       ?GetNext@ConCommandBase@@QBEPBV1@XZ 1009c5f0 f   tier1:convar.obj
 0002:00044630       ?GetNext@ConCommandBase@@QAEPAV1@XZ 1009c630 f   tier1:convar.obj
 0002:00044670       ?CopyString@ConCommandBase@@IAEPADPBD@Z 1009c670 f   tier1:convar.obj
 0002:00044740       ?GetHelpText@ConCommandBase@@UBEPBDXZ 1009c740 f   tier1:convar.obj
 0002:00044780       ?IsRegistered@ConCommandBase@@UBE_NXZ 1009c780 f   tier1:convar.obj
 0002:000447c0       ??0CCommand@@QAE@XZ        1009c7c0 f   tier1:convar.obj
 0002:00044840       ??0CCommand@@QAE@HPAPBD@Z  1009c840 f   tier1:convar.obj
 0002:00044b40       ?Reset@CCommand@@QAEXXZ    1009cb40 f   tier1:convar.obj
 0002:00044ba0       ?DefaultBreakSet@CCommand@@SAPAUcharacterset_t@@XZ 1009cba0 f   tier1:convar.obj
 0002:00044be0       ?Tokenize@CCommand@@QAE_NPBDPAUcharacterset_t@@@Z 1009cbe0 f   tier1:convar.obj
 0002:00045260       ?FindArg@CCommand@@QBEPBDPBD@Z 1009d260 f   tier1:convar.obj
 0002:00045360       ?ArgC@CCommand@@QBEHXZ     1009d360 f i tier1:convar.obj
 0002:000453a0       ?Arg@CCommand@@QBEPBDH@Z   1009d3a0 f i tier1:convar.obj
 0002:00045410       ?FindArgInt@CCommand@@QBEHPBDH@Z 1009d410 f   tier1:convar.obj
 0002:00045490       ?DefaultCompletionFunc@@YAHPBDQAY0EA@D@Z 1009d490 f   tier1:convar.obj
 0002:000454c0       ??0ConCommand@@QAE@PBDP6AXXZ0HP6AH0QAY0EA@D@Z@Z 1009d4c0 f   tier1:convar.obj
 0002:000455c0       ??_GConCommand@@UAEPAXI@Z  1009d5c0 f i tier1:convar.obj
 0002:000455c0       ??_EConCommand@@UAEPAXI@Z  1009d5c0 f i tier1:convar.obj
 0002:00045630       ??0ConCommand@@QAE@PBDP6AXABVCCommand@@@Z0HP6AH0QAY0EA@D@Z@Z 1009d630 f   tier1:convar.obj
 0002:00045730       ??0ConCommand@@QAE@PBDPAVICommandCallback@@0HPAVICommandCompletionCallback@@@Z 1009d730 f   tier1:convar.obj
 0002:00045810       ??1ConCommand@@UAE@XZ      1009d810 f   tier1:convar.obj
 0002:00045870       ?IsCommand@ConCommand@@UBE_NXZ 1009d870 f   tier1:convar.obj
 0002:000458b0       ?Dispatch@ConCommand@@UAEXABVCCommand@@@Z 1009d8b0 f   tier1:convar.obj
 0002:00045ae0       ?AutoCompleteSuggest@ConCommand@@UAEHPBDAAV?$CUtlVector@VCUtlString@@V?$CUtlMemory@VCUtlString@@H@@@@@Z 1009dae0 f   tier1:convar.obj
 0002:00045da0       ??1CUtlString@@QAE@XZ      1009dda0 f i tier1:convar.obj
 0002:00045df0       ??1CUtlBinaryBlock@@QAE@XZ 1009ddf0 f i tier1:convar.obj
 0002:00045e40       ?CanAutoComplete@ConCommand@@UAE_NXZ 1009de40 f   tier1:convar.obj
 0002:00045e80       ??0ConVar@@QAE@PBD0H@Z     1009de80 f   tier1:convar.obj
 0002:00045f30       ??_GConVar@@UAEPAXI@Z      1009df30 f i tier1:convar.obj
 0002:00045f30       ??_EConVar@@UAEPAXI@Z      1009df30 f i tier1:convar.obj
 0002:00045fa0       ??0IConVar@@QAE@XZ         1009dfa0 f i tier1:convar.obj
 0002:00045ff0       ??0ConVar@@QAE@PBD0H0@Z    1009dff0 f   tier1:convar.obj
 0002:000460a0       ??0ConVar@@QAE@PBD0H0_NM1M@Z 1009e0a0 f   tier1:convar.obj
 0002:00046160       ??0ConVar@@QAE@PBD0H0P6AXPAVIConVar@@0M@Z@Z 1009e160 f   tier1:convar.obj
 0002:00046220       ??0ConVar@@QAE@PBD0H0_NM1MP6AXPAVIConVar@@0M@Z@Z 1009e220 f   tier1:convar.obj
 0002:000462e0       ??1ConVar@@UAE@XZ          1009e2e0 f   tier1:convar.obj
 0002:00046380       ?InstallChangeCallback@ConVar@@QAEXP6AXPAVIConVar@@PBDM@Z@Z 1009e380 f   tier1:convar.obj
 0002:00046550       ?IsFlagSet@ConVar@@UBE_NH@Z 1009e550 f   tier1:convar.obj
 0002:000465a0       ?GetHelpText@ConVar@@UBEPBDXZ 1009e5a0 f   tier1:convar.obj
 0002:000465e0       ?AddFlags@ConVar@@UAEXH@Z  1009e5e0 f   tier1:convar.obj
 0002:00046640       ?IsRegistered@ConVar@@UBE_NXZ 1009e640 f   tier1:convar.obj
 0002:00046680       ?GetName@ConVar@@UBEPBDXZ  1009e680 f   tier1:convar.obj
 0002:000466c0       ?IsCommand@ConVar@@UBE_NXZ 1009e6c0 f   tier1:convar.obj
 0002:00046700       ?Init@ConVar@@EAEXXZ       1009e700 f   tier1:convar.obj
 0002:00046750       ?InternalSetValue@ConVar@@EAEXPBD@Z 1009e750 f   tier1:convar.obj
 0002:000469c0       ?ChangeStringValue@ConVar@@EAEXPBDM@Z 1009e9c0 f   tier1:convar.obj
 0002:00046d10       ?ClampValue@ConVar@@EAE_NAAM@Z 1009ed10 f   tier1:convar.obj
 0002:00046dc0       ?InternalSetFloatValue@ConVar@@EAEXM@Z 1009edc0 f   tier1:convar.obj
 0002:00047100       ?InternalSetIntValue@ConVar@@EAEXH@Z 1009f100 f   tier1:convar.obj
 0002:00047460       ?Create@ConVar@@EAEXPBD0H0_NM1MP6AXPAVIConVar@@0M@Z@Z 1009f460 f   tier1:convar.obj
 0002:00047910       ?SetValue@ConVar@@UAEXPBD@Z 1009f910 f   tier1:convar.obj
 0002:00047990       ?SetValue@ConVar@@UAEXM@Z  1009f990 f   tier1:convar.obj
 0002:00047a10       ?SetValue@ConVar@@UAEXH@Z  1009fa10 f   tier1:convar.obj
 0002:00047a90       ?Revert@ConVar@@QAEXXZ     1009fa90 f   tier1:convar.obj
 0002:00047b10       ?GetMin@ConVar@@QBE_NAAM@Z 1009fb10 f   tier1:convar.obj
 0002:00047b70       ?GetMax@ConVar@@QBE_NAAM@Z 1009fb70 f   tier1:convar.obj
 0002:00047bd0       ?GetDefault@ConVar@@QBEPBDXZ 1009fbd0 f   tier1:convar.obj
 0002:00047c10       ??0ConVarRef@@QAE@PBD@Z    1009fc10 f   tier1:convar.obj
 0002:00047c70       ??0ConVarRef@@QAE@PBD_N@Z  1009fc70 f   tier1:convar.obj
 0002:00047cd0       ?Init@ConVarRef@@QAEXPBD_N@Z 1009fcd0 f   tier1:convar.obj
 0002:00047e80       ??0ConVarRef@@QAE@PAVIConVar@@@Z 1009fe80 f   tier1:convar.obj
 0002:00047f50       ?IsValid@ConVarRef@@QBE_NXZ 1009ff50 f   tier1:convar.obj
 0002:00047fc0       ?ConVar_PrintFlags@@YAXPBVConCommandBase@@@Z 1009ffc0 f   tier1:convar.obj
 0002:00048320       ?ConVar_PrintDescription@@YAXPBVConCommandBase@@@Z 100a0320 f   tier1:convar.obj
 0002:000488a0       ?fabs@@YAMM@Z              100a08a0 f i tier1:convar.obj
 0002:00048900       _fabsf                     100a0900 f i tier1:convar.obj
 0002:00048950       ?GetFloat@ConVar@@QBEMXZ   100a0950 f i tier1:convar.obj
 0002:00048990       ?GetInt@ConVar@@QBEHXZ     100a0990 f i tier1:convar.obj
 0002:000489d0       ?GetString@ConVar@@QBEPBDXZ 100a09d0 f i tier1:convar.obj
 0002:00048a60       ??0Color@@QAE@XZ           100a0a60 f i tier1:convar.obj
 0002:00048ab0       ?AddToTail@?$CUtlVector@VCUtlString@@V?$CUtlMemory@VCUtlString@@H@@@@QAEHABVCUtlString@@@Z 100a0ab0 f i tier1:convar.obj
 0002:00048c40       ?Base@?$CUtlVector@VCUtlString@@V?$CUtlMemory@VCUtlString@@H@@@@QAEPAVCUtlString@@XZ 100a0c40 f i tier1:convar.obj
 0002:00048c90       ?Base@?$CUtlMemory@VCUtlString@@H@@QAEPAVCUtlString@@XZ 100a0c90 f i tier1:convar.obj
 0002:00048dd0       ?Count@?$CUtlVector@VCUtlString@@V?$CUtlMemory@VCUtlString@@H@@@@QBEHXZ 100a0dd0 f i tier1:convar.obj
 0002:00048e10       ?InsertBefore@?$CUtlVector@VCUtlString@@V?$CUtlMemory@VCUtlString@@H@@@@QAEHHABVCUtlString@@@Z 100a0e10 f i tier1:convar.obj
 0002:000490d0       ?IsReadOnly@?$CUtlMemory@VCUtlString@@H@@QBE_NXZ 100a10d0 f i tier1:convar.obj
 0002:00049120       ?Element@?$CUtlVector@VCUtlString@@V?$CUtlMemory@VCUtlString@@H@@@@QAEAAVCUtlString@@H@Z 100a1120 f i tier1:convar.obj
 0002:00049180       ?IsValidIndex@?$CUtlVector@VCUtlString@@V?$CUtlMemory@VCUtlString@@H@@@@QBE_NH@Z 100a1180 f i tier1:convar.obj
 0002:000491f0       ?GrowVector@?$CUtlVector@VCUtlString@@V?$CUtlMemory@VCUtlString@@H@@@@IAEXH@Z 100a11f0 f i tier1:convar.obj
 0002:00049310       ?ShiftElementsRight@?$CUtlVector@VCUtlString@@V?$CUtlMemory@VCUtlString@@H@@@@IAEXHH@Z 100a1310 f i tier1:convar.obj
 0002:000494d0       ??$CopyConstruct@VCUtlString@@@@YAXPAVCUtlString@@ABV0@@Z 100a14d0 f i tier1:convar.obj
 0002:00049560       ?ResetDbgInfo@?$CUtlVector@VCUtlString@@V?$CUtlMemory@VCUtlString@@H@@@@IAEXXZ 100a1560 f i tier1:convar.obj
 0002:000495c0       ??A?$CUtlMemory@VCUtlString@@H@@QAEAAVCUtlString@@H@Z 100a15c0 f i tier1:convar.obj
 0002:00049800       ?NumAllocated@?$CUtlMemory@VCUtlString@@H@@QBEHXZ 100a1800 f i tier1:convar.obj
 0002:00049840       ?Grow@?$CUtlMemory@VCUtlString@@H@@QAEXH@Z 100a1840 f i tier1:convar.obj
 0002:00049f60       ?IsIdxValid@?$CUtlMemory@VCUtlString@@H@@QBE_NH@Z 100a1f60 f i tier1:convar.obj
 0002:00049fd0       ?IsExternallyAllocated@?$CUtlMemory@VCUtlString@@H@@QBE_NXZ 100a1fd0 f i tier1:convar.obj
 0002:0004a020       ?GetName@ConVar@@WBI@BEPBDXZ 100a2020 f i tier1:convar.obj
 0002:0004a030       ?IsFlagSet@ConVar@@WBI@BE_NH@Z 100a2030 f i tier1:convar.obj
 0002:0004a040       ??0CDefaultAccessor@@QAE@XZ 100a2040 f i tier1:convar.obj
 0002:0004a0a0       ?RegisterConCommandBase@CDefaultAccessor@@UAE_NPAVConCommandBase@@@Z 100a20a0 f i tier1:convar.obj
 0002:0004a120       ??0IConCommandBaseAccessor@@QAE@XZ 100a2120 f i tier1:convar.obj
 0002:0004a170       ??0CEmptyConVar@@QAE@XZ    100a2170 f i tier1:convar.obj
 0002:0004a1f0       ?SetValue@CEmptyConVar@@UAEXPBD@Z 100a21f0 f i tier1:convar.obj
 0002:0004a230       ?SetValue@CEmptyConVar@@UAEXM@Z 100a2230 f i tier1:convar.obj
 0002:0004a270       ?SetValue@CEmptyConVar@@UAEXH@Z 100a2270 f i tier1:convar.obj
 0002:0004a2b0       ?GetName@CEmptyConVar@@UBEPBDXZ 100a22b0 f i tier1:convar.obj
 0002:0004a2f0       ?IsFlagSet@CEmptyConVar@@UBE_NH@Z 100a22f0 f i tier1:convar.obj
 0002:0004a330       ??_GCEmptyConVar@@UAEPAXI@Z 100a2330 f i tier1:convar.obj
 0002:0004a330       ??_ECEmptyConVar@@UAEPAXI@Z 100a2330 f i tier1:convar.obj
 0002:0004a3a0       ??1CEmptyConVar@@UAE@XZ    100a23a0 f i tier1:convar.obj
 0002:0004a3f0       ?GetName@CEmptyConVar@@WBI@BEPBDXZ 100a23f0 f i tier1:convar.obj
 0002:0004a400       ?IsFlagSet@CEmptyConVar@@WBI@BE_NH@Z 100a2400 f i tier1:convar.obj
 0002:0004a410       ?ConnectTier1Libraries@@YAXPAP6APAXPBDPAH@ZH@Z 100a2410 f   tier1:tier1.obj
 0002:0004a510       ?DisconnectTier1Libraries@@YAXXZ 100a2510 f   tier1:tier1.obj
 0002:0004a580       ?CharacterSetBuild@@YAXPAUcharacterset_t@@PBD@Z 100a2580 f   tier1:characterset.obj
 0002:0004a630       ??0CUtlBinaryBlock@@QAE@HH@Z 100a2630 f   tier1:utlstring.obj
 0002:0004a6a0       ??0CUtlBinaryBlock@@QAE@PAXHH@Z 100a26a0 f   tier1:utlstring.obj
 0002:0004a710       ??0CUtlBinaryBlock@@QAE@PBXH@Z 100a2710 f   tier1:utlstring.obj
 0002:0004a780       ??0CUtlBinaryBlock@@QAE@ABV0@@Z 100a2780 f   tier1:utlstring.obj
 0002:0004a800       ?Get@CUtlBinaryBlock@@QBEPBXXZ 100a2800 f i tier1:utlstring.obj
 0002:0004a850       ?Length@CUtlBinaryBlock@@QBEHXZ 100a2850 f i tier1:utlstring.obj
 0002:0004a890       ?Get@CUtlBinaryBlock@@QBEXPAXH@Z 100a2890 f   tier1:utlstring.obj
 0002:0004aa10       ?SetLength@CUtlBinaryBlock@@QAEXH@Z 100a2a10 f   tier1:utlstring.obj
 0002:0004ac00       ?Set@CUtlBinaryBlock@@QAEXPBXH@Z 100a2c00 f   tier1:utlstring.obj
 0002:0004adf0       ??4CUtlBinaryBlock@@QAEAAV0@ABV0@@Z 100a2df0 f   tier1:utlstring.obj
 0002:0004af60       ??8CUtlBinaryBlock@@QBE_NABV0@@Z 100a2f60 f   tier1:utlstring.obj
 0002:0004b000       ??0CUtlString@@QAE@XZ      100a3000 f   tier1:utlstring.obj
 0002:0004b060       ??0CUtlString@@QAE@PBD@Z   100a3060 f   tier1:utlstring.obj
 0002:0004b0d0       ??0CUtlString@@QAE@ABV0@@Z 100a30d0 f   tier1:utlstring.obj
 0002:0004b140       ??0CUtlString@@QAE@PAXHH@Z 100a3140 f   tier1:utlstring.obj
 0002:0004b1b0       ??0CUtlString@@QAE@PBXH@Z  100a31b0 f   tier1:utlstring.obj
 0002:0004b210       ?Set@CUtlString@@QAEXPBD@Z 100a3210 f   tier1:utlstring.obj
 0002:0004b3c0       ?IsReadOnly@CUtlBinaryBlock@@QBE_NXZ 100a33c0 f i tier1:utlstring.obj
 0002:0004b410       ?Length@CUtlString@@QBEHXZ 100a3410 f   tier1:utlstring.obj
 0002:0004b490       ?SetLength@CUtlString@@QAEXH@Z 100a3490 f   tier1:utlstring.obj
 0002:0004b610       ?Get@CUtlString@@QBEPBDXZ  100a3610 f   tier1:utlstring.obj
 0002:0004b680       ??BCUtlString@@QBEPBDXZ    100a3680 f   tier1:utlstring.obj
 0002:0004b6d0       ?Get@CUtlString@@QAEPADXZ  100a36d0 f   tier1:utlstring.obj
 0002:0004b850       ?Get@CUtlBinaryBlock@@QAEPAXXZ 100a3850 f i tier1:utlstring.obj
 0002:0004b8a0       ??ACUtlBinaryBlock@@QAEAAEH@Z 100a38a0 f i tier1:utlstring.obj
 0002:0004b900       ??4CUtlString@@QAEAAV0@ABV0@@Z 100a3900 f   tier1:utlstring.obj
 0002:0004ba60       ??4CUtlString@@QAEAAV0@PBD@Z 100a3a60 f   tier1:utlstring.obj
 0002:0004bbc0       ??8CUtlString@@QBE_NABV0@@Z 100a3bc0 f   tier1:utlstring.obj
 0002:0004bc20       ??8CUtlString@@QBE_NPBD@Z  100a3c20 f   tier1:utlstring.obj
 0002:0004bc90       ??YCUtlString@@QAEAAV0@ABV0@@Z 100a3c90 f   tier1:utlstring.obj
 0002:0004be90       ??YCUtlString@@QAEAAV0@PBD@Z 100a3e90 f   tier1:utlstring.obj
 0002:0004c0a0       ??YCUtlString@@QAEAAV0@D@Z 100a40a0 f   tier1:utlstring.obj
 0002:0004c240       ??YCUtlString@@QAEAAV0@H@Z 100a4240 f   tier1:utlstring.obj
 0002:0004c4e0       ??YCUtlString@@QAEAAV0@N@Z 100a44e0 f   tier1:utlstring.obj
 0002:0004c6a0       ?Format@CUtlString@@QAAHPBDZZ 100a46a0 f   tier1:utlstring.obj
 0002:0004c8a0       ?StripTrailingSlash@CUtlString@@QAEXXZ 100a48a0 f   tier1:utlstring.obj
 0002:0004c970       ?IsEmpty@CUtlString@@QBE_NXZ 100a4970 f i tier1:utlstring.obj
 0002:0004c9d0       ??0?$CUtlMemory@EH@@QAE@PBEH@Z 100a49d0 f i tier1:utlstring.obj
 0002:0004ca30       ?Base@?$CUtlMemory@EH@@QBEPBEXZ 100a4a30 f i tier1:utlstring.obj
 0002:0004ca6a       __ExitOnFatalAssert        100a4a6a f   tier0:tier0.dll
 0002:0004ca70       _DoNewAssertDialog         100a4a70 f   tier0:tier0.dll
 0002:0004ca76       _ShouldUseNewAssertDialog  100a4a76 f   tier0:tier0.dll
 0002:0004ca7c       __SpewMessage              100a4a7c f   tier0:tier0.dll
 0002:0004ca82       __SpewInfo                 100a4a82 f   tier0:tier0.dll
 0002:0004ca88       _Error                     100a4a88 f   tier0:tier0.dll
 0002:0004ca8e       ??0CThreadSpinRWLock@@QAE@XZ 100a4a8e f   tier0:tier0.dll
 0002:0004ca94       ?UnlockWrite@CThreadSpinRWLock@@QAEXXZ 100a4a94 f   tier0:tier0.dll
 0002:0004ca9a       ?LockForWrite@CThreadSpinRWLock@@QAEXXZ 100a4a9a f   tier0:tier0.dll
 0002:0004caa0       ?UnlockRead@CThreadSpinRWLock@@QAEXXZ 100a4aa0 f   tier0:tier0.dll
 0002:0004caa6       ?LockForRead@CThreadSpinRWLock@@QAEXXZ 100a4aa6 f   tier0:tier0.dll
 0002:0004caac       _Warning                   100a4aac f   tier0:tier0.dll
 0002:0004cab2       _DevMsg                    100a4ab2 f   tier0:tier0.dll
 0002:0004cab8       ?DevMsg@@YAXPBDZZ          100a4ab8 f   tier0:tier0.dll
 0002:0004cabe       _AssertValidStringPtr      100a4abe f   tier0:tier0.dll
 0002:0004cac4       __AssertValidWritePtr      100a4ac4 f   tier0:tier0.dll
 0002:0004caca       __AssertValidReadPtr       100a4aca f   tier0:tier0.dll
 0002:0004cad0       _Plat_IsInDebugSession     100a4ad0 f   tier0:tier0.dll
 0002:0004cad6       _ReleaseThreadHandle       100a4ad6 f   tier0:tier0.dll
 0002:0004cadc       _CreateSimpleThread        100a4adc f   tier0:tier0.dll
 0002:0004cae2       _GetThreadedLoadLibraryFunc 100a4ae2 f   tier0:tier0.dll
 0002:0004cae8       _ThreadWaitForObjects      100a4ae8 f   tier0:tier0.dll
 0002:0004caee       _CommandLine_Tier0         100a4aee f   tier0:tier0.dll
 0002:0004caf4       _Msg                       100a4af4 f   tier0:tier0.dll
 0002:0004cafa       ?ConMsg@@YAXPBDZZ          100a4afa f   tier0:tier0.dll
 0002:0004cb00       ?ConColorMsg@@YAXABVColor@@PBDZZ 100a4b00 f   tier0:tier0.dll
 0002:0004cb10       __RTC_CheckEsp             100a4b10 f   LIBCMTD:stack.obj
 0002:0004cb40       @_RTC_CheckStackVars@8     100a4b40 f   LIBCMTD:stack.obj
 0002:0004cbc0       @_RTC_AllocaHelper@12      100a4bc0 f   LIBCMTD:stack.obj
 0002:0004cc00       @_RTC_CheckStackVars2@12   100a4c00 f   LIBCMTD:stack.obj
 0002:0004cd10       __RTC_InitBase             100a4d10 f   LIBCMTD:init.obj
 0002:0004cd50       __RTC_Shutdown             100a4d50 f   LIBCMTD:init.obj
 0002:0004cd70       ?name@type_info@@QBEPBDPAU__type_info_node@@@Z 100a4d70 f   LIBCMTD:typinfo.obj
 0002:0004cda0       ??1type_info@@UAE@XZ       100a4da0 f   LIBCMTD:typinfo.obj
 0002:0004cdd0       ??_Gtype_info@@UAEPAXI@Z   100a4dd0 f i LIBCMTD:typinfo.obj
 0002:0004cdd0       ??_Etype_info@@UAEPAXI@Z   100a4dd0 f i LIBCMTD:typinfo.obj
 0002:0004ce10       ?_name_internal_method@type_info@@QBEPBDPAU__type_info_node@@@Z 100a4e10 f   LIBCMTD:typinfo.obj
 0002:0004ce40       ?_type_info_dtor_internal_method@type_info@@QAEXXZ 100a4e40 f   LIBCMTD:typinfo.obj
 0002:0004ce60       ??8type_info@@QBE_NABV0@@Z 100a4e60 f   LIBCMTD:typinfo.obj
 0002:0004cea0       ??9type_info@@QBE_NABV0@@Z 100a4ea0 f   LIBCMTD:typinfo.obj
 0002:0004cee0       ?before@type_info@@QBEHABV1@@Z 100a4ee0 f   LIBCMTD:typinfo.obj
 0002:0004cf20       ?raw_name@type_info@@QBEPBDXZ 100a4f20 f   LIBCMTD:typinfo.obj
 0002:0004cf40       ??0type_info@@AAE@ABV0@@Z  100a4f40 f   LIBCMTD:typinfo.obj
 0002:0004cf60       ??4type_info@@AAEAAV0@ABV0@@Z 100a4f60 f   LIBCMTD:typinfo.obj
 0002:0004cf80       __purecall                 100a4f80 f   LIBCMTD:purevirt.obj
 0002:0004cfd0       __set_purecall_handler     100a4fd0 f   LIBCMTD:purevirt.obj
 0002:0004d020       __get_purecall_handler     100a5020 f   LIBCMTD:purevirt.obj
 0002:0004d040       _getenv                    100a5040 f   LIBCMTD:getenv.obj
 0002:0004d1f0       __getenv_helper_nolock     100a51f0 f   LIBCMTD:getenv.obj
 0002:0004d350       _getenv_s                  100a5350 f   LIBCMTD:getenv.obj
 0002:0004d600       __invoke_watson_if_error   100a5600 f i LIBCMTD:getenv.obj
 0002:0004d640       __dupenv_s                 100a5640 f   LIBCMTD:getenv.obj
 0002:0004d670       __dupenv_s_dbg             100a5670 f   LIBCMTD:getenv.obj
 0002:0004d950       _strncpy                   100a5950 f   LIBCMTD:strncpy.obj
 0002:0004dac0       _fclose                    100a5ac0 f   LIBCMTD:fclose.obj
 0002:0004dc10       __fclose_nolock            100a5c10 f   LIBCMTD:fclose.obj
 0002:0004dd50       _fread_s                   100a5d50 f   LIBCMTD:fread.obj
 0002:0004dfe0       __fread_nolock_s           100a5fe0 f   LIBCMTD:fread.obj
 0002:0004e530       _fread                     100a6530 f   LIBCMTD:fread.obj
 0002:0004e560       __fread_nolock             100a6560 f   LIBCMTD:fread.obj
 0002:0004e590       __fsopen                   100a6590 f   LIBCMTD:fopen.obj
 0002:0004e820       _fopen                     100a6820 f   LIBCMTD:fopen.obj
 0002:0004e840       _fopen_s                   100a6840 f   LIBCMTD:fopen.obj
 0002:0004e910       __stat64i32                100a6910 f   LIBCMTD:stati32.obj
 0002:0004f210       __mkdir                    100a7210 f   LIBCMTD:mkdir.obj
 0002:0004f270       __access                   100a7270 f   LIBCMTD:access.obj
 0002:0004f2a0       __access_s                 100a72a0 f   LIBCMTD:access.obj
 0002:0004f450       _fprintf                   100a7450 f   LIBCMTD:fprintf.obj
 0002:0004f7f0       __fprintf_l                100a77f0 f   LIBCMTD:fprintf.obj
 0002:0004f820       __fprintf_s_l              100a7820 f   LIBCMTD:fprintf.obj
 0002:0004f850       _fprintf_s                 100a7850 f   LIBCMTD:fprintf.obj
 0002:0004f880       __fprintf_p_l              100a7880 f   LIBCMTD:fprintf.obj
 0002:0004f8b0       __fprintf_p                100a78b0 f   LIBCMTD:fprintf.obj
 0002:0004f8e0       ___clean_type_info_names   100a78e0 f   LIBCMTD:tncleanup.obj
 0002:0004f900       _memset                    100a7900 f   LIBCMTD:memset.obj
 0002:0004f9a0       __fpmath                   100a79a0 f   LIBCMTD:fpinit.obj
 0002:0004f9d0       __fpclear                  100a79d0 f   LIBCMTD:fpinit.obj
 0002:0004f9e0       __cfltcvt_init             100a79e0 f   LIBCMTD:fpinit.obj
 0002:0004fa70       ___setfflag                100a7a70 f   LIBCMTD:fpinit.obj
 0002:0004faa0       __onexit                   100a7aa0 f   LIBCMTD:onexit.obj
 0002:0004fce0       _atexit                    100a7ce0 f   LIBCMTD:onexit.obj
 0002:0004fd00       ___onexitinit              100a7d00 f   LIBCMTD:onexit.obj
 0002:0004fd70       _strrchr                   100a7d70 f   LIBCMTD:strrchr.obj
 0002:0004fdb0       _memcpy                    100a7db0 f   LIBCMTD:memcpy.obj
 0002:000501f0       __vsnprintf_l              100a81f0 f   LIBCMTD:vsnprint.obj
 0002:00050400       __vsnprintf                100a8400 f   LIBCMTD:vsnprint.obj
 0002:00050430       __wassert                  100a8430 f   LIBCMTD:wassert.obj
 0002:00051540       __invoke_watson_if_oneof   100a9540 f i LIBCMTD:wassert.obj
 0002:000515e0       _strlen                    100a95e0 f   LIBCMTD:strlen.obj
 0002:00051690       __CRT_INIT@12              100a9690 f   LIBCMTD:dllcrt0.obj
 0002:00051a20       __set_osplatform           100a9a20 f i LIBCMTD:dllcrt0.obj
 0002:00051a30       __set_osver                100a9a30 f i LIBCMTD:dllcrt0.obj
 0002:00051a40       __set_winver               100a9a40 f i LIBCMTD:dllcrt0.obj
 0002:00051a50       __set_winmajor             100a9a50 f i LIBCMTD:dllcrt0.obj
 0002:00051a60       __set_winminor             100a9a60 f i LIBCMTD:dllcrt0.obj
 0002:00051a70       __DllMainCRTStartup@12     100a9a70 f   LIBCMTD:dllcrt0.obj
 0002:00051cc0       _strcmp                    100a9cc0 f   LIBCMTD:strcmp.obj
 0002:00051d70       __isalpha_l                100a9d70 f i LIBCMTD:_ctype.obj
 0002:00051e20       ??0_LocaleUpdate@@QAE@PAUlocaleinfo_struct@@@Z 100a9e20 f i LIBCMTD:_ctype.obj
 0002:00051f30       ??1_LocaleUpdate@@QAE@XZ   100a9f30 f i LIBCMTD:_ctype.obj
 0002:00051f70       ?GetLocaleT@_LocaleUpdate@@QAEPAUlocaleinfo_struct@@XZ 100a9f70 f i LIBCMTD:_ctype.obj
 0002:00051f90       _isalpha                   100a9f90 f i LIBCMTD:_ctype.obj
 0002:00051fd0       __isupper_l                100a9fd0 f i LIBCMTD:_ctype.obj
 0002:00052070       _isupper                   100aa070 f i LIBCMTD:_ctype.obj
 0002:000520b0       __islower_l                100aa0b0 f i LIBCMTD:_ctype.obj
 0002:00052150       _islower                   100aa150 f i LIBCMTD:_ctype.obj
 0002:00052190       __isdigit_l                100aa190 f i LIBCMTD:_ctype.obj
 0002:00052230       _isdigit                   100aa230 f i LIBCMTD:_ctype.obj
 0002:00052270       __isxdigit_l               100aa270 f i LIBCMTD:_ctype.obj
 0002:00052320       _isxdigit                  100aa320 f i LIBCMTD:_ctype.obj
 0002:00052360       __isspace_l                100aa360 f i LIBCMTD:_ctype.obj
 0002:00052400       _isspace                   100aa400 f i LIBCMTD:_ctype.obj
 0002:00052440       __ispunct_l                100aa440 f i LIBCMTD:_ctype.obj
 0002:000524e0       _ispunct                   100aa4e0 f i LIBCMTD:_ctype.obj
 0002:00052520       __isalnum_l                100aa520 f i LIBCMTD:_ctype.obj
 0002:000525d0       _isalnum                   100aa5d0 f i LIBCMTD:_ctype.obj
 0002:00052610       __isprint_l                100aa610 f i LIBCMTD:_ctype.obj
 0002:000526c0       _isprint                   100aa6c0 f i LIBCMTD:_ctype.obj
 0002:00052700       __isgraph_l                100aa700 f i LIBCMTD:_ctype.obj
 0002:000527b0       _isgraph                   100aa7b0 f i LIBCMTD:_ctype.obj
 0002:000527f0       __iscntrl_l                100aa7f0 f i LIBCMTD:_ctype.obj
 0002:00052890       _iscntrl                   100aa890 f i LIBCMTD:_ctype.obj
 0002:000528d0       ___isascii                 100aa8d0 f i LIBCMTD:_ctype.obj
 0002:000528f0       ___toascii                 100aa8f0 f i LIBCMTD:_ctype.obj
 0002:00052900       __iscsymf_l                100aa900 f i LIBCMTD:_ctype.obj
 0002:00052950       ___iscsymf                 100aa950 f i LIBCMTD:_ctype.obj
 0002:00052990       __iscsym_l                 100aa990 f i LIBCMTD:_ctype.obj
 0002:000529e0       ___iscsym                  100aa9e0 f i LIBCMTD:_ctype.obj
 0002:00052a30       __alloca_probe_16          100aaa30 f   LIBCMTD:alloca16.obj
 0002:00052a46       __alloca_probe_8           100aaa46     LIBCMTD:alloca16.obj
 0002:00052a80       _strchr                    100aaa80 f   LIBCMTD:strchr.obj
 0002:00052a86       ___from_strstr_to_strchr   100aaa86     LIBCMTD:strchr.obj
 0002:00052b80       _atol                      100aab80 f   LIBCMTD:atox.obj
 0002:00052ba0       __atol_l                   100aaba0 f   LIBCMTD:atox.obj
 0002:00052bc0       _atoi                      100aabc0 f   LIBCMTD:atox.obj
 0002:00052be0       __atoi_l                   100aabe0 f   LIBCMTD:atox.obj
 0002:00052c00       __atoi64                   100aac00 f   LIBCMTD:atox.obj
 0002:00052c20       __atoi64_l                 100aac20 f   LIBCMTD:atox.obj
 0002:00052c40       __wtol                     100aac40 f   LIBCMTD:wtox.obj
 0002:00052c60       __wtol_l                   100aac60 f   LIBCMTD:wtox.obj
 0002:00052c80       __wtoi                     100aac80 f   LIBCMTD:wtox.obj
 0002:00052ca0       __wtoi_l                   100aaca0 f   LIBCMTD:wtox.obj
 0002:00052cc0       __wtoi64                   100aacc0 f   LIBCMTD:wtox.obj
 0002:00052ce0       __wtoi64_l                 100aace0 f   LIBCMTD:wtox.obj
 0002:00052d00       __ftol2_sse                100aad00 f   LIBCMTD:ftol2.obj
 0002:00052d09       __ftol2_pentium4           100aad09 f   LIBCMTD:ftol2.obj
 0002:00052d1c       __ftol2_sse_excpt          100aad1c f   LIBCMTD:ftol2.obj
 0002:00052d36       __ftol2                    100aad36 f   LIBCMTD:ftol2.obj
 0002:00052de0       __wtof_l                   100aade0 f   LIBCMTD:wtof.obj
 0002:00052f10       __wtof                     100aaf10 f   LIBCMTD:wtof.obj
 0002:00052f30       ___wstrgtold12             100aaf30 f   LIBCMTD:wtof.obj
 0002:00052fa0       ___WSTRINGTOLD             100aafa0 f   LIBCMTD:wtof.obj
 0002:00053000       __atof_l                   100ab000 f   LIBCMTD:atof.obj
 0002:00053180       _atof                      100ab180 f   LIBCMTD:atof.obj
 0002:000531a0       ___strgtold12              100ab1a0 f   LIBCMTD:atof.obj
 0002:00053210       ___STRINGTOLD              100ab210 f   LIBCMTD:atof.obj
 0002:00053270       __vswprintf_l              100ab270 f   LIBCMTD:vswprint.obj
 0002:000534b0       __vswprintf                100ab4b0 f   LIBCMTD:vswprint.obj
 0002:000534e0       ___vswprintf_l             100ab4e0 f   LIBCMTD:vswprint.obj
 0002:00053510       __vscwprintf_helper        100ab510 f   LIBCMTD:vswprint.obj
 0002:00053600       __vscwprintf               100ab600 f   LIBCMTD:vswprint.obj
 0002:00053630       __vscwprintf_l             100ab630 f   LIBCMTD:vswprint.obj
 0002:00053660       __vscwprintf_p             100ab660 f   LIBCMTD:vswprint.obj
 0002:00053690       __vscwprintf_p_l           100ab690 f   LIBCMTD:vswprint.obj
 0002:000536c0       _sscanf                    100ab6c0 f   LIBCMTD:sscanf.obj
 0002:00053890       __sscanf_l                 100ab890 f   LIBCMTD:sscanf.obj
 0002:000538d0       _sscanf_s                  100ab8d0 f   LIBCMTD:sscanf.obj
 0002:00053910       __sscanf_s_l               100ab910 f   LIBCMTD:sscanf.obj
 0002:00053950       _wcslen                    100ab950 f   LIBCMTD:wcslen.obj
 0002:00053990       __strtod_l                 100ab990 f   LIBCMTD:strtod.obj
 0002:00053c00       _strtod                    100abc00 f   LIBCMTD:strtod.obj
 0002:00053c20       _strtol                    100abc20 f   LIBCMTD:strtol.obj
 0002:00054290       __strtol_l                 100ac290 f   LIBCMTD:strtol.obj
 0002:000542c0       _strtoul                   100ac2c0 f   LIBCMTD:strtol.obj
 0002:00054320       __strtoul_l                100ac320 f   LIBCMTD:strtol.obj
 0002:00054350       __allmul                   100ac350 f   LIBCMTD:llmul.obj
 0002:000543a0       _memmove                   100ac3a0 f   LIBCMTD:memmove.obj
 0002:000547e0       _memcmp                    100ac7e0 f   LIBCMTD:memcmp.obj
 0002:000554e0       _strcpy                    100ad4e0 f   LIBCMTD:strcat.obj
 0002:000554f0       _strcat                    100ad4f0 f   LIBCMTD:strcat.obj
 0002:00055620       _strstr                    100ad620 f   LIBCMTD:strstr.obj
 0002:000556d0       __tolower                  100ad6d0 f   LIBCMTD:tolower.obj
 0002:000556e0       __tolower_l                100ad6e0 f   LIBCMTD:tolower.obj
 0002:00055930       _tolower                   100ad930 f   LIBCMTD:tolower.obj
 0002:00055990       _wcsncpy                   100ad990 f   LIBCMTD:wcsncpy.obj
 0002:00055a20       _strncat                   100ada20 f   LIBCMTD:strncat.obj
 0002:00055bb0       __allrem                   100adbb0 f   LIBCMTD:llrem.obj
 0002:00055c90       __alldiv                   100adc90 f   LIBCMTD:lldiv.obj
 0002:00055d70       __getcwd                   100add70 f   LIBCMTD:getcwd.obj
 0002:00055e20       __getcwd_dbg               100ade20 f   LIBCMTD:getcwd.obj
 0002:00055ee0       __getdcwd                  100adee0 f   LIBCMTD:getcwd.obj
 0002:00055f90       __getdcwd_dbg              100adf90 f   LIBCMTD:getcwd.obj
 0002:00056050       __getdcwd_nolock           100ae050 f   LIBCMTD:getcwd.obj
 0002:00056080       __getdcwd_lk_dbg           100ae080 f   LIBCMTD:getcwd.obj
 0002:00056370       __validdrive               100ae370 f   LIBCMTD:getcwd.obj
 0002:000563e0       __toupper                  100ae3e0 f   LIBCMTD:toupper.obj
 0002:000563f0       __toupper_l                100ae3f0 f   LIBCMTD:toupper.obj
 0002:00056640       _toupper                   100ae640 f   LIBCMTD:toupper.obj
 0002:000566a0       __chkstk                   100ae6a0 f   LIBCMTD:chkstk.obj
 0002:000566a0       __alloca_probe             100ae6a0     LIBCMTD:chkstk.obj
 0002:000566e0       ___RTCastToVoid            100ae6e0 f   LIBCMTD:rtti.obj
 0002:000567e0       ___RTtypeid                100ae7e0 f   LIBCMTD:rtti.obj
 0002:00056960       ___RTDynamicCast           100ae960 f   LIBCMTD:rtti.obj
 0002:00057220       _DebuggerKnownHandle       100af220 f   LIBCMTD:error.obj
 0002:000572f0       ?_RTC_Failure@@YAXPAXH@Z   100af2f0 f   LIBCMTD:error.obj
 0002:000576f0       ?_RTC_StackFailure@@YAXPAXPBD@Z 100af6f0 f   LIBCMTD:error.obj
 0002:00057860       ?_RTC_AllocaFailure@@YAXPAXPAU_RTC_ALLOCA_NODE@@H@Z 100af860 f   LIBCMTD:error.obj
 0002:00057a70       __RTC_UninitUse            100afa70 f   LIBCMTD:error.obj
 0002:00057bc0       __RTC_NumErrors            100afbc0 f   LIBCMTD:userapi.obj
 0002:00057bd0       __RTC_GetErrDesc           100afbd0 f   LIBCMTD:userapi.obj
 0002:00057bf0       __RTC_SetErrorType         100afbf0 f   LIBCMTD:userapi.obj
 0002:00057c20       __RTC_SetErrorFunc         100afc20 f   LIBCMTD:userapi.obj
 0002:00057c50       __RTC_SetErrorFuncW        100afc50 f   LIBCMTD:userapi.obj
 0002:00057c80       ?_RTC_GetErrorFunc@@YAP6AHHPBDH00ZZPBX@Z 100afc80 f   LIBCMTD:userapi.obj
 0002:00057c90       ?_RTC_GetErrorFuncW@@YAP6AHHPB_WH00ZZPBX@Z 100afc90 f   LIBCMTD:userapi.obj
 0002:00057ca0       __chkesp                   100afca0 f   LIBCMTD:chkesp.obj
 0002:00057cf0       __CRT_RTC_INIT             100afcf0 f   LIBCMTD:chkesp.obj
 0002:00057d00       __CRT_RTC_INITW            100afd00 f   LIBCMTD:chkesp.obj
 0002:00057d10       ?_Type_info_dtor@type_info@@CAXPAV1@@Z 100afd10 f   LIBCMTD:typname.obj
 0002:00057e60       ?_Name_base@type_info@@CAPBDPBV1@PAU__type_info_node@@@Z 100afe60 f   LIBCMTD:typname.obj
 0002:00058070       ?_Type_info_dtor_internal@type_info@@CAXPAV1@@Z 100b0070 f   LIBCMTD:typname.obj
 0002:000581c0       ___unDNameHelper           100b01c0 f   LIBCMTD:typname.obj
 0002:00058210       ?_Name_base_internal@type_info@@CAPBDPBV1@PAU__type_info_node@@@Z 100b0210 f   LIBCMTD:typname.obj
 0002:00058410       ___clean_type_info_names_internal 100b0410 f   LIBCMTD:typname.obj
 0002:000584f0       _abort                     100b04f0 f   LIBCMTD:abort.obj
 0002:00058670       __set_abort_behavior       100b0670 f   LIBCMTD:abort.obj
 0002:000586b0       __FF_MSGBANNER             100b06b0 f   LIBCMTD:crt0msg.obj
 0002:00058710       __NMSG_WRITE               100b0710 f   LIBCMTD:crt0msg.obj
 0002:00058a50       __GET_RTERRMSG             100b0a50 f   LIBCMTD:crt0msg.obj
 0002:00058aa0       __encode_pointer           100b0aa0 f   LIBCMTD:tidtable.obj
 0002:00058b60       __encoded_null             100b0b60 f   LIBCMTD:tidtable.obj
 0002:00058b80       __decode_pointer           100b0b80 f   LIBCMTD:tidtable.obj
 0002:00058c40       ___crtTlsAlloc@4           100b0c40 f   LIBCMTD:tidtable.obj
 0002:00058c50       ___fls_getvalue@4          100b0c50 f   LIBCMTD:tidtable.obj
 0002:00058c70       ___get_flsindex            100b0c70 f   LIBCMTD:tidtable.obj
 0002:00058c80       ___set_flsgetvalue         100b0c80 f   LIBCMTD:tidtable.obj
 0002:00058cc0       ___fls_setvalue@8          100b0cc0 f   LIBCMTD:tidtable.obj
 0002:00058cf0       __mtinit                   100b0cf0 f   LIBCMTD:tidtable.obj
 0002:00058f80       __mtterm                   100b0f80 f   LIBCMTD:tidtable.obj
 0002:00058ff0       __initptd                  100b0ff0 f   LIBCMTD:tidtable.obj
 0002:00059160       __getptd_noexit            100b1160 f   LIBCMTD:tidtable.obj
 0002:00059250       __getptd                   100b1250 f   LIBCMTD:tidtable.obj
 0002:00059280       __freefls@4                100b1280 f   LIBCMTD:tidtable.obj
 0002:000594e0       __freeptd                  100b14e0 f   LIBCMTD:tidtable.obj
 0002:00059580       ___threadid                100b1580 f   LIBCMTD:tidtable.obj
 0002:00059590       ___threadhandle            100b1590 f   LIBCMTD:tidtable.obj
 0002:000595a0       ___getlocaleinfo           100b15a0 f   LIBCMTD:inithelp.obj
 0002:000598f0       __initp_misc_purevirt      100b18f0 f   LIBCMTD:inithelp.obj
 0002:00059900       __mtinitlocks              100b1900 f   LIBCMTD:mlock.obj
 0002:000599b0       __mtdeletelocks            100b19b0 f   LIBCMTD:mlock.obj
 0002:00059aa0       __mtinitlocknum            100b1aa0 f   LIBCMTD:mlock.obj
 0002:00059c40       __lock                     100b1c40 f   LIBCMTD:mlock.obj
 0002:00059c90       __unlock                   100b1c90 f   LIBCMTD:mlock.obj
 0002:00059cb0       __lockerr_exit             100b1cb0 f   LIBCMTD:mlock.obj
 0002:00059ce0       _strnlen                   100b1ce0 f   LIBCMTD:strlen_s.obj
 0002:00059d30       __initp_misc_invarg        100b1d30 f   LIBCMTD:invarg.obj
 0002:00059d40       __invalid_parameter        100b1d40 f   LIBCMTD:invarg.obj
 0002:00059dc0       __invoke_watson            100b1dc0 f   LIBCMTD:invarg.obj
 0002:00059f40       __set_invalid_parameter_handler 100b1f40 f   LIBCMTD:invarg.obj
 0002:00059f90       __get_invalid_parameter_handler 100b1f90 f   LIBCMTD:invarg.obj
 0002:00059fd0       ?_invalid_parameter@@YAXPBG00II@Z 100b1fd0 f   LIBCMTD:invarg.obj
 0002:0005a000       ?_invoke_watson@@YAXPBG00II@Z 100b2000 f   LIBCMTD:invarg.obj
 0002:0005a030       __dosmaperr                100b2030 f   LIBCMTD:dosmap.obj
 0002:0005a060       __get_errno_from_oserr     100b2060 f   LIBCMTD:dosmap.obj
 0002:0005a0f0       __set_errno                100b20f0 f   LIBCMTD:dosmap.obj
 0002:0005a130       __get_errno                100b2130 f   LIBCMTD:dosmap.obj
 0002:0005a1d0       __set_doserrno             100b21d0 f   LIBCMTD:dosmap.obj
 0002:0005a210       __get_doserrno             100b2210 f   LIBCMTD:dosmap.obj
 0002:0005a2b0       __errno                    100b22b0 f   LIBCMTD:dosmap.obj
 0002:0005a2e0       ___doserrno                100b22e0 f   LIBCMTD:dosmap.obj
 0002:0005a310       __except_handler4          100b2310 f   LIBCMTD:chandler4.obj
 0002:0005a5b0       __mbsnbicoll_l             100b25b0 f   LIBCMTD:mbsnbico.obj
 0002:0005a880       __mbsnbicoll               100b2880 f   LIBCMTD:mbsnbico.obj
 0002:0005a8b0       ___wtomb_environ           100b28b0 f   LIBCMTD:wtombenv.obj
 0002:0005a9d0       __cinit                    100b29d0 f   LIBCMTD:crt0dat.obj
 0002:0005aaa0       _exit                      100b2aa0 f   LIBCMTD:crt0dat.obj
 0002:0005aac0       __exit                     100b2ac0 f   LIBCMTD:crt0dat.obj
 0002:0005aae0       __cexit                    100b2ae0 f   LIBCMTD:crt0dat.obj
 0002:0005ab00       __c_exit                   100b2b00 f   LIBCMTD:crt0dat.obj
 0002:0005ab20       __amsg_exit                100b2b20 f   LIBCMTD:crt0dat.obj
 0002:0005ab70       ___freeCrtMemory           100b2b70 f   LIBCMTD:crt0dat.obj
 0002:0005aeb0       ___crtCorExitProcess       100b2eb0 f   LIBCMTD:crt0dat.obj
 0002:0005af00       ___crtExitProcess          100b2f00 f   LIBCMTD:crt0dat.obj
 0002:0005af30       __lockexit                 100b2f30 f   LIBCMTD:crt0dat.obj
 0002:0005af50       __unlockexit               100b2f50 f   LIBCMTD:crt0dat.obj
 0002:0005af70       __init_pointers            100b2f70 f   LIBCMTD:crt0dat.obj
 0002:0005b050       __initterm_e               100b3050 f   LIBCMTD:crt0dat.obj
 0002:0005b0a0       __get_osplatform           100b30a0 f   LIBCMTD:crt0dat.obj
 0002:0005b1d0       __get_osver                100b31d0 f   LIBCMTD:crt0dat.obj
 0002:0005b300       __get_winver               100b3300 f   LIBCMTD:crt0dat.obj
 0002:0005b430       __get_winmajor             100b3430 f   LIBCMTD:crt0dat.obj
 0002:0005b560       __get_winminor             100b3560 f   LIBCMTD:crt0dat.obj
 0002:0005b690       __get_wpgmptr              100b3690 f   LIBCMTD:crt0dat.obj
 0002:0005b7c0       __get_pgmptr               100b37c0 f   LIBCMTD:crt0dat.obj
 0002:0005b8f0       _strcpy_s                  100b38f0 f   LIBCMTD:strcpy_s.obj
 0002:0005bc80       ___iob_func                100b3c80 f   LIBCMTD:_file.obj
 0002:0005bc90       ___initstdio               100b3c90 f   LIBCMTD:_file.obj
 0002:0005be30       ___endstdio                100b3e30 f   LIBCMTD:_file.obj
 0002:0005be70       __lock_file                100b3e70 f   LIBCMTD:_file.obj
 0002:0005bec0       __lock_file2               100b3ec0 f   LIBCMTD:_file.obj
 0002:0005bf00       __unlock_file              100b3f00 f   LIBCMTD:_file.obj
 0002:0005bf50       __unlock_file2             100b3f50 f   LIBCMTD:_file.obj
 0002:0005bf90       __close                    100b3f90 f   LIBCMTD:close.obj
 0002:0005c220       __close_nolock             100b4220 f   LIBCMTD:close.obj
 0002:0005c320       __fileno                   100b4320 f   LIBCMTD:fileno.obj
 0002:0005c3b0       __freebuf                  100b43b0 f   LIBCMTD:_freebuf.obj
 0002:0005c460       _fflush                    100b4460 f   LIBCMTD:fflush.obj
 0002:0005c520       __fflush_nolock            100b4520 f   LIBCMTD:fflush.obj
 0002:0005c590       __flush                    100b4590 f   LIBCMTD:fflush.obj
 0002:0005c680       __flushall                 100b4680 f   LIBCMTD:fflush.obj
 0002:0005c8b0       __filbuf                   100b48b0 f   LIBCMTD:_filbuf.obj
 0002:0005cb90       __read                     100b4b90 f   LIBCMTD:read.obj
 0002:0005ce40       __read_nolock              100b4e40 f   LIBCMTD:read.obj
 0002:0005e040       _memcpy_s                  100b6040 f   LIBCMTD:memcpy_s.obj
 0002:0005e230       __openfile                 100b6230 f   LIBCMTD:_open.obj
 0002:0005eaf0       __getstream                100b6af0 f   LIBCMTD:stream.obj
 0002:0005edac       __local_unwind4            100b6dac f   LIBCMTD:exsup4.obj
 0002:0005ee82       __seh_longjmp_unwind4@4    100b6e82 f   LIBCMTD:exsup4.obj
 0002:0005ee9e       @_EH4_CallFilterFunc@8     100b6e9e f   LIBCMTD:exsup4.obj
 0002:0005eeb5       @_EH4_TransferToHandler@8  100b6eb5 f   LIBCMTD:exsup4.obj
 0002:0005eece       @_EH4_GlobalUnwind@4       100b6ece f   LIBCMTD:exsup4.obj
 0002:0005eee8       @_EH4_LocalUnwind@16       100b6ee8 f   LIBCMTD:exsup4.obj
 0002:0005ef60       ___dtoxmode                100b6f60 f   LIBCMTD:stat.obj
 0002:0005f0f0       __stat32                   100b70f0 f   LIBCMTD:stat.obj
 0002:0005f9c0       ___loctotime64_t           100b79c0 f   LIBCMTD:dtoxtm64.obj
 0002:000600b0       __getdrive                 100b80b0 f   LIBCMTD:drive.obj
 0002:00060240       __chdrive                  100b8240 f   LIBCMTD:drive.obj
 0002:000603d0       __mbctolower_l             100b83d0 f   LIBCMTD:mbtolwr.obj
 0002:00060570       __mbctolower               100b8570 f   LIBCMTD:mbtolwr.obj
 0002:00060590       __mbspbrk_l                100b8590 f   LIBCMTD:mbspbrk.obj
 0002:00060850       __mbspbrk                  100b8850 f   LIBCMTD:mbspbrk.obj
 0002:00060870       @__security_check_cookie@4 100b8870 f   LIBCMTD:secchk.obj
 0002:00060890       __fullpath                 100b8890 f   LIBCMTD:fullpath.obj
 0002:000608c0       __fullpath_dbg             100b88c0 f   LIBCMTD:fullpath.obj
 0002:00060ae0       __stbuf                    100b8ae0 f   LIBCMTD:_sftbuf.obj
 0002:00060c90       __ftbuf                    100b8c90 f   LIBCMTD:_sftbuf.obj
 0002:00060d40       __output_l                 100b8d40 f   LIBCMTD:output.obj
 0002:000626d0       _get_int_arg               100ba6d0 f i LIBCMTD:output.obj
 0002:000626f0       _get_int64_arg             100ba6f0 f i LIBCMTD:output.obj
 0002:00062720       _get_short_arg             100ba720 f i LIBCMTD:output.obj
 0002:00062750       __ioinit                   100ba750 f   LIBCMTD:ioinit.obj
 0002:00062cf0       __ioterm                   100bacf0 f   LIBCMTD:ioinit.obj
 0002:00062dc0       _vfprintf_helper           100badc0 f   LIBCMTD:vfprintf.obj
 0002:00063160       __vfprintf_l               100bb160 f   LIBCMTD:vfprintf.obj
 0002:00063190       __vfprintf_s_l             100bb190 f   LIBCMTD:vfprintf.obj
 0002:000631c0       __vfprintf_p_l             100bb1c0 f   LIBCMTD:vfprintf.obj
 0002:000631f0       _vfprintf                  100bb1f0 f   LIBCMTD:vfprintf.obj
 0002:00063220       _vfprintf_s                100bb220 f   LIBCMTD:vfprintf.obj
 0002:00063250       __vfprintf_p               100bb250 f   LIBCMTD:vfprintf.obj
 0002:00063280       __VEC_memzero              100bb280 f   LIBCMTD:p4_memset.obj
 0002:000633b0       __sse2_mathfcns_init       100bb3b0 f   LIBCMTD:mathfcns.obj
 0002:000633e0       __set_SSE2_enable          100bb3e0 f   LIBCMTD:mathfcns.obj
 0002:00063410       __setdefaultprecision      100bb410 f   LIBCMTD:fp8.obj
 0002:00063460       __ms_p5_test_fdiv          100bb460 f   LIBCMTD:testfdiv.obj
 0002:000634c0       __ms_p5_mp_test_fdiv       100bb4c0 f   LIBCMTD:testfdiv.obj
 0002:00063520       __forcdecpt                100bb520 f   LIBCMTD:cvt.obj
 0002:00063540       __forcdecpt_l              100bb540 f   LIBCMTD:cvt.obj
 0002:00063630       __cropzeros                100bb630 f   LIBCMTD:cvt.obj
 0002:00063650       __cropzeros_l              100bb650 f   LIBCMTD:cvt.obj
 0002:000637a0       __positive                 100bb7a0 f   LIBCMTD:cvt.obj
 0002:000637e0       __fassign_l                100bb7e0 f   LIBCMTD:cvt.obj
 0002:00063850       __fassign                  100bb850 f   LIBCMTD:cvt.obj
 0002:00063880       __cftoe_l                  100bb880 f   LIBCMTD:cvt.obj
 0002:00063f20       __cftoe                    100bbf20 f   LIBCMTD:cvt.obj
 0002:00063f50       __cftoa_l                  100bbf50 f   LIBCMTD:cvt.obj
 0002:00064910       __cftoa                    100bc910 f   LIBCMTD:cvt.obj
 0002:00064940       __cftof_l                  100bc940 f   LIBCMTD:cvt.obj
 0002:00064e40       __cftof                    100bce40 f   LIBCMTD:cvt.obj
 0002:00064e70       __cftog_l                  100bce70 f   LIBCMTD:cvt.obj
 0002:00065120       __cftog                    100bd120 f   LIBCMTD:cvt.obj
 0002:00065150       __cfltcvt_l                100bd150 f   LIBCMTD:cvt.obj
 0002:00065240       __cfltcvt                  100bd240 f   LIBCMTD:cvt.obj
 0002:000652b0       __initp_misc_cfltcvt_tab   100bd2b0 f   LIBCMTD:cmiscdat.obj
 0002:00065300       __VEC_memcpy               100bd300 f   LIBCMTD:p4_memcpy.obj
 0002:000654d0       __flsbuf                   100bd4d0 f   LIBCMTD:_flsbuf.obj
 0002:00065840       __initp_misc_winsig        100bd840 f   LIBCMTD:winsig.obj
 0002:00065870       _signal                    100bd870 f   LIBCMTD:winsig.obj
 0002:00065e40       _raise                     100bde40 f   LIBCMTD:winsig.obj
 0002:00066280       ___get_sigabrt             100be280 f   LIBCMTD:winsig.obj
 0002:000662a0       ___fpecode                 100be2a0 f   LIBCMTD:winsig.obj
 0002:000662b0       ___pxcptinfoptrs           100be2b0 f   LIBCMTD:winsig.obj
 0002:000662c0       ___crtMessageBoxW          100be2c0 f   LIBCMTD:crtmboxw.obj
 0002:000665c0       __itow_s                   100be5c0 f   LIBCMTD:xtows.obj
 0002:00066a80       __ltow_s                   100bea80 f   LIBCMTD:xtows.obj
 0002:00066ad0       __ultow_s                  100bead0 f   LIBCMTD:xtows.obj
 0002:00066b00       __i64tow_s                 100beb00 f   LIBCMTD:xtows.obj
 0002:00067010       __ui64tow_s                100bf010 f   LIBCMTD:xtows.obj
 0002:00067040       _wcsncat_s                 100bf040 f   LIBCMTD:wcsncat_s.obj
 0002:00067620       _wcsncpy_s                 100bf620 f   LIBCMTD:wcsncpy_s.obj
 0002:00067b20       _wcscat_s                  100bfb20 f   LIBCMTD:wcscat_s.obj
 0002:00068000       _wcscpy_s                  100c0000 f   LIBCMTD:wcscpy_s.obj
 0002:000683a0       _fwprintf                  100c03a0 f   LIBCMTD:fwprintf.obj
 0002:00068580       __fwprintf_l               100c0580 f   LIBCMTD:fwprintf.obj
 0002:000685b0       __fwprintf_s_l             100c05b0 f   LIBCMTD:fwprintf.obj
 0002:000685e0       _fwprintf_s                100c05e0 f   LIBCMTD:fwprintf.obj
 0002:00068610       __fwprintf_p_l             100c0610 f   LIBCMTD:fwprintf.obj
 0002:00068640       __fwprintf_p               100c0640 f   LIBCMTD:fwprintf.obj
 0002:00068670       _setvbuf                   100c0670 f   LIBCMTD:setvbuf.obj
 0002:00068a00       __set_error_mode           100c0a00 f   LIBCMTD:errmode.obj
 0002:00068af0       ___set_app_type            100c0af0 f   LIBCMTD:errmode.obj
 0002:00068b00       ___get_app_type            100c0b00 f   LIBCMTD:errmode.obj
 0002:00068b10       __assert                   100c0b10 f   LIBCMTD:assert.obj
 0002:000698a0       _strcat_s                  100c18a0 f   LIBCMTD:strcat_s.obj
 0002:00069d70       __wcstombs_l_helper        100c1d70 f   LIBCMTD:wcstombs.obj
 0002:0006a410       __wcstombs_l               100c2410 f   LIBCMTD:wcstombs.obj
 0002:0006a440       _wcstombs                  100c2440 f   LIBCMTD:wcstombs.obj
 0002:0006a470       __wcstombs_s_l             100c2470 f   LIBCMTD:wcstombs.obj
 0002:0006a7d0       _wcstombs_s                100c27d0 f   LIBCMTD:wcstombs.obj
 0002:0006a800       __vswprintf_helper         100c2800 f   LIBCMTD:vswprnc.obj
 0002:0006aac0       __vswprintf_c              100c2ac0 f   LIBCMTD:vswprnc.obj
 0002:0006ab20       __vswprintf_c_l            100c2b20 f   LIBCMTD:vswprnc.obj
 0002:0006ab80       __vswprintf_s_l            100c2b80 f   LIBCMTD:vswprnc.obj
 0002:0006ae80       _vswprintf_s               100c2e80 f   LIBCMTD:vswprnc.obj
 0002:0006aeb0       __vsnwprintf_s_l           100c2eb0 f   LIBCMTD:vswprnc.obj
 0002:0006b350       __vsnwprintf_s             100c3350 f   LIBCMTD:vswprnc.obj
 0002:0006b380       __vswprintf_p              100c3380 f   LIBCMTD:vswprnc.obj
 0002:0006b3e0       __vswprintf_p_l            100c33e0 f   LIBCMTD:vswprnc.obj
 0002:0006b440       __setenvp                  100c3440 f   LIBCMTD:stdenvp.obj
 0002:0006b640       __setargv                  100c3640 f   LIBCMTD:stdargv.obj
 0002:0006b7a0       __set_pgmptr               100c37a0 f i LIBCMTD:stdargv.obj
 0002:0006bbf0       ___crtGetEnvironmentStringsA 100c3bf0 f   LIBCMTD:a_env.obj
 0002:0006be90       __RTC_Initialize           100c3e90 f   LIBCMTD:initsect.obj
 0002:0006bec0       __RTC_Terminate            100c3ec0 f   LIBCMTD:initsect.obj
 0002:0006bef0       ___security_init_cookie    100c3ef0 f   LIBCMTD:gs_support.obj
 0002:0006c050       __initp_misc_winxfltr      100c4050 f   LIBCMTD:winxfltr.obj
 0002:0006c060       ___CppXcptFilter           100c4060 f   LIBCMTD:winxfltr.obj
 0002:0006c090       __XcptFilter               100c4090 f   LIBCMTD:winxfltr.obj
 0002:0006c350       _DllMain@12                100c4350 f   LIBCMTD:dllmain.obj
 0002:0006c360       __chvalidator              100c4360 f   LIBCMTD:isctype.obj
 0002:0006c3c0       __chvalidator_l            100c43c0 f   LIBCMTD:isctype.obj
 0002:0006c4a0       __isctype_l                100c44a0 f   LIBCMTD:isctype.obj
 0002:0006c600       __isctype                  100c4600 f   LIBCMTD:isctype.obj
 0002:0006c650       ___updatetmbcinfo          100c4650 f   LIBCMTD:mbctype.obj
 0002:0006c7a0       __setmbcp                  100c47a0 f   LIBCMTD:mbctype.obj
 0002:0006cc30       __setmbcp_nolock           100c4c30 f   LIBCMTD:mbctype.obj
 0002:0006d5d0       __getmbcp                  100c55d0 f   LIBCMTD:mbctype.obj
 0002:0006d660       ___initmbctable            100c5660 f   LIBCMTD:mbctype.obj
 0002:0006d690       ____setlc_active_func      100c5690 f   LIBCMTD:setlocal.obj
 0002:0006d6a0       ____unguarded_readlc_active_add_func 100c56a0 f   LIBCMTD:setlocal.obj
 0002:0006d6b0       ___freetlocinfo            100c56b0 f   LIBCMTD:setlocal.obj
 0002:0006da50       ___addlocaleref            100c5a50 f   LIBCMTD:setlocal.obj
 0002:0006dbc0       ___removelocaleref         100c5bc0 f   LIBCMTD:setlocal.obj
 0002:0006dd40       ___updatetlocinfo          100c5d40 f   LIBCMTD:setlocal.obj
 0002:0006dee0       __configthreadlocale       100c5ee0 f   LIBCMTD:setlocal.obj
 0002:0006e030       __locterm                  100c6030 f   LIBCMTD:setlocal.obj
 0002:0006e0f0       __free_locale              100c60f0 f   LIBCMTD:setlocal.obj
 0002:0006e250       ___free_locale             100c6250 f   LIBCMTD:setlocal.obj
 0002:0006e270       __create_locale            100c6270 f   LIBCMTD:setlocal.obj
 0002:0006e510       ___create_locale           100c6510 f   LIBCMTD:setlocal.obj
 0002:0006e530       __get_current_locale       100c6530 f   LIBCMTD:setlocal.obj
 0002:0006e660       ___get_current_locale      100c6660 f   LIBCMTD:setlocal.obj
 0002:0006e670       _setlocale                 100c6670 f   LIBCMTD:setlocal.obj
 0002:0006f920       __expandlocale             100c7920 f   LIBCMTD:setlocal.obj
 0002:0006fc70       ___init_dummy              100c7c70 f   LIBCMTD:setlocal.obj
 0002:0006fc80       __strcats                  100c7c80 f   LIBCMTD:setlocal.obj
 0002:0006fd10       ___lc_strtolc              100c7d10 f   LIBCMTD:setlocal.obj
 0002:0006ff90       ___lc_lctostr              100c7f90 f   LIBCMTD:setlocal.obj
 0002:00070050       __strtoi64                 100c8050 f   LIBCMTD:strtoq.obj
 0002:00070710       __strtoi64_l               100c8710 f   LIBCMTD:strtoq.obj
 0002:00070740       __strtoui64                100c8740 f   LIBCMTD:strtoq.obj
 0002:000707a0       __strtoui64_l              100c87a0 f   LIBCMTD:strtoq.obj
 0002:000707d0       _wcstol                    100c87d0 f   LIBCMTD:wcstol.obj
 0002:00070d70       __wcstol_l                 100c8d70 f   LIBCMTD:wcstol.obj
 0002:00070da0       _wcstoul                   100c8da0 f   LIBCMTD:wcstol.obj
 0002:00070e00       __wcstoul_l                100c8e00 f   LIBCMTD:wcstol.obj
 0002:00070e30       __wcstoi64                 100c8e30 f   LIBCMTD:wcstoq.obj
 0002:00071510       __wcstoi64_l               100c9510 f   LIBCMTD:wcstoq.obj
 0002:00071540       __wcstoui64                100c9540 f   LIBCMTD:wcstoq.obj
 0002:000715a0       __wcstoui64_l              100c95a0 f   LIBCMTD:wcstoq.obj
 0002:000715d0       __wfltin2                  100c95d0 f   LIBCMTD:wcfin.obj
 0002:000716e0       __iswctype_l               100c96e0 f   LIBCMTD:iswctype.obj
 0002:000717b0       _iswctype                  100c97b0 f   LIBCMTD:iswctype.obj
 0002:00071860       _is_wctype                 100c9860 f   LIBCMTD:iswctype.obj
 0002:00071880       ___wstrgtold12_l           100c9880 f   LIBCMTD:wstrgtold.obj
 0002:000725f0       ___multtenpow12            100ca5f0 f i LIBCMTD:wstrgtold.obj
 0002:00072700       ___ld12mul                 100ca700 f i LIBCMTD:wstrgtold.obj
 0002:00072bf0       ___addl                    100cabf0 f i LIBCMTD:wstrgtold.obj
 0002:00072c40       ___shl_12                  100cac40 f i LIBCMTD:wstrgtold.obj
 0002:00072cc0       ___shr_12                  100cacc0 f i LIBCMTD:wstrgtold.obj
 0002:00072d40       ___WSTRINGTOLD_L           100cad40 f   LIBCMTD:wstrgtold.obj
 0002:00072dd0       __fltin2                   100cadd0 f   LIBCMTD:cfin.obj
 0002:00072ee0       ___strgtold12_l            100caee0 f   LIBCMTD:strgtold.obj
 0002:00073c30       ___STRINGTOLD_L            100cbc30 f   LIBCMTD:strgtold.obj
 0002:00073cc0       __woutput_l                100cbcc0 f   LIBCMTD:woutput.obj
 0002:00075300       __validate_param_reuseW    100cd300 f   LIBCMTD:woutputp.obj
 0002:00075600       __woutput_p_l              100cd600 f   LIBCMTD:woutputp.obj
 0002:00079b00       __input_l                  100d1b00 f   LIBCMTD:input.obj
 0002:0007b960       __INTRN_LOCALE_CONV        100d3960 f i LIBCMTD:input.obj
 0002:0007bab0       __input_s_l                100d3ab0 f   LIBCMTD:inputs.obj
 0002:0007dee0       ?_JumpToContinuation@@YGXPAXPAUEHRegistrationNode@@@Z 100d5ee0 f   LIBCMTD:trnsctrl.obj
 0002:0007df20       ?_CallMemberFunction0@@YGXPAX0@Z 100d5f20 f   LIBCMTD:trnsctrl.obj
 0002:0007df30       ?_CallMemberFunction1@@YGXPAX00@Z 100d5f30 f   LIBCMTD:trnsctrl.obj
 0002:0007df40       ?_CallMemberFunction2@@YGXPAX00H@Z 100d5f40 f   LIBCMTD:trnsctrl.obj
 0002:0007df50       ?_UnwindNestedFrames@@YGXPAUEHRegistrationNode@@PAUEHExceptionRecord@@@Z 100d5f50 f   LIBCMTD:trnsctrl.obj
 0002:0007dfc0       ___CxxFrameHandler         100d5fc0 f   LIBCMTD:trnsctrl.obj
 0002:0007e010       ___CxxFrameHandler3        100d6010 f   LIBCMTD:trnsctrl.obj
 0002:0007e060       ___CxxFrameHandler2        100d6060 f   LIBCMTD:trnsctrl.obj
 0002:0007e0b0       ___CxxLongjmpUnwind@4      100d60b0 f   LIBCMTD:trnsctrl.obj
 0002:0007e0e0       ?_CallCatchBlock2@@YAPAXPAUEHRegistrationNode@@PBU_s_FuncInfo@@PAXHK@Z 100d60e0 f   LIBCMTD:trnsctrl.obj
 0002:0007e1d0       ?_CallSETranslator@@YAHPAUEHExceptionRecord@@PAUEHRegistrationNode@@PAX2PBU_s_FuncInfo@@H1@Z 100d61d0 f   LIBCMTD:trnsctrl.obj
 0002:0007e3e0       ?_GetRangeOfTrysToCheck@@YAPBU_s_TryBlockMapEntry@@PBU_s_FuncInfo@@HHPAI1@Z 100d63e0 f   LIBCMTD:trnsctrl.obj
 0002:0007e490       __CreateFrameInfo          100d6490 f   LIBCMTD:trnsctrl.obj
 0002:0007e4d0       __IsExceptionObjectToBeDestroyed 100d64d0 f   LIBCMTD:trnsctrl.obj
 0002:0007e510       __FindAndUnlinkFrame       100d6510 f   LIBCMTD:trnsctrl.obj
 0002:0007e580       ___crtLCMapStringA         100d6580 f   LIBCMTD:a_map.obj
 0002:0007ec30       __MarkAllocaS              100d6c30 f i LIBCMTD:a_map.obj
 0002:0007ec60       __freea                    100d6c60 f i LIBCMTD:a_map.obj
 0002:0007ed40       __isleadbyte_l             100d6d40 f i LIBCMTD:_wctype.obj
 0002:0007eda0       _isleadbyte                100d6da0 f i LIBCMTD:_wctype.obj
 0002:0007edc0       __iswalpha_l               100d6dc0 f i LIBCMTD:_wctype.obj
 0002:0007edf0       _iswalpha                  100d6df0 f i LIBCMTD:_wctype.obj
 0002:0007ee10       __iswupper_l               100d6e10 f i LIBCMTD:_wctype.obj
 0002:0007ee30       _iswupper                  100d6e30 f i LIBCMTD:_wctype.obj
 0002:0007ee50       __iswlower_l               100d6e50 f i LIBCMTD:_wctype.obj
 0002:0007ee70       _iswlower                  100d6e70 f i LIBCMTD:_wctype.obj
 0002:0007ee90       __iswdigit_l               100d6e90 f i LIBCMTD:_wctype.obj
 0002:0007eeb0       _iswdigit                  100d6eb0 f i LIBCMTD:_wctype.obj
 0002:0007eed0       __iswxdigit_l              100d6ed0 f i LIBCMTD:_wctype.obj
 0002:0007ef00       _iswxdigit                 100d6f00 f i LIBCMTD:_wctype.obj
 0002:0007ef20       __iswspace_l               100d6f20 f i LIBCMTD:_wctype.obj
 0002:0007ef40       _iswspace                  100d6f40 f i LIBCMTD:_wctype.obj
 0002:0007ef60       __iswpunct_l               100d6f60 f i LIBCMTD:_wctype.obj
 0002:0007ef80       _iswpunct                  100d6f80 f i LIBCMTD:_wctype.obj
 0002:0007efa0       __iswalnum_l               100d6fa0 f i LIBCMTD:_wctype.obj
 0002:0007efd0       _iswalnum                  100d6fd0 f i LIBCMTD:_wctype.obj
 0002:0007eff0       __iswprint_l               100d6ff0 f i LIBCMTD:_wctype.obj
 0002:0007f020       _iswprint                  100d7020 f i LIBCMTD:_wctype.obj
 0002:0007f040       __iswgraph_l               100d7040 f i LIBCMTD:_wctype.obj
 0002:0007f070       _iswgraph                  100d7070 f i LIBCMTD:_wctype.obj
 0002:0007f090       __iswcntrl_l               100d7090 f i LIBCMTD:_wctype.obj
 0002:0007f0b0       _iswcntrl                  100d70b0 f i LIBCMTD:_wctype.obj
 0002:0007f0d0       _iswascii                  100d70d0 f i LIBCMTD:_wctype.obj
 0002:0007f0f0       __iswcsym_l                100d70f0 f i LIBCMTD:_wctype.obj
 0002:0007f140       ___iswcsym                 100d7140 f i LIBCMTD:_wctype.obj
 0002:0007f190       __iswcsymf_l               100d7190 f i LIBCMTD:_wctype.obj
 0002:0007f1e0       ___iswcsymf                100d71e0 f i LIBCMTD:_wctype.obj
 0002:0007f230       ??0exception@std@@QAE@XZ   100d7230 f   LIBCMTD:stdexcpt.obj
 0002:0007f270       ??_Eexception@std@@UAEPAXI@Z 100d7270 f i LIBCMTD:stdexcpt.obj
 0002:0007f270       ??_Gexception@std@@UAEPAXI@Z 100d7270 f i LIBCMTD:stdexcpt.obj
 0002:0007f2b0       ??0exception@std@@QAE@ABQBD@Z 100d72b0 f   LIBCMTD:stdexcpt.obj
 0002:0007f360       ??0exception@std@@QAE@ABQBDH@Z 100d7360 f   LIBCMTD:stdexcpt.obj
 0002:0007f3a0       ??0exception@std@@QAE@ABV01@@Z 100d73a0 f   LIBCMTD:stdexcpt.obj
 0002:0007f470       ??4exception@std@@QAEAAV01@ABV01@@Z 100d7470 f   LIBCMTD:stdexcpt.obj
 0002:0007f540       ??1exception@std@@UAE@XZ   100d7540 f   LIBCMTD:stdexcpt.obj
 0002:0007f580       ?what@exception@std@@UBEPBDXZ 100d7580 f   LIBCMTD:stdexcpt.obj
 0002:0007f5b0       ??0bad_cast@std@@QAE@PBD@Z 100d75b0 f   LIBCMTD:stdexcpt.obj
 0002:0007f5e0       ??_Ebad_cast@std@@UAEPAXI@Z 100d75e0 f i LIBCMTD:stdexcpt.obj
 0002:0007f5e0       ??_Gbad_cast@std@@UAEPAXI@Z 100d75e0 f i LIBCMTD:stdexcpt.obj
 0002:0007f620       ??0bad_cast@std@@QAE@ABV01@@Z 100d7620 f   LIBCMTD:stdexcpt.obj
 0002:0007f650       ??1bad_cast@std@@UAE@XZ    100d7650 f   LIBCMTD:stdexcpt.obj
 0002:0007f680       ??0bad_typeid@std@@QAE@PBD@Z 100d7680 f   LIBCMTD:stdexcpt.obj
 0002:0007f6b0       ??_Ebad_typeid@std@@UAEPAXI@Z 100d76b0 f i LIBCMTD:stdexcpt.obj
 0002:0007f6b0       ??_Gbad_typeid@std@@UAEPAXI@Z 100d76b0 f i LIBCMTD:stdexcpt.obj
 0002:0007f6f0       ??0bad_typeid@std@@QAE@ABV01@@Z 100d76f0 f   LIBCMTD:stdexcpt.obj
 0002:0007f720       ??1bad_typeid@std@@UAE@XZ  100d7720 f   LIBCMTD:stdexcpt.obj
 0002:0007f750       ??0__non_rtti_object@std@@QAE@PBD@Z 100d7750 f   LIBCMTD:stdexcpt.obj
 0002:0007f780       ??_G__non_rtti_object@std@@UAEPAXI@Z 100d7780 f i LIBCMTD:stdexcpt.obj
 0002:0007f780       ??_E__non_rtti_object@std@@UAEPAXI@Z 100d7780 f i LIBCMTD:stdexcpt.obj
 0002:0007f7c0       ??0__non_rtti_object@std@@QAE@ABV01@@Z 100d77c0 f   LIBCMTD:stdexcpt.obj
 0002:0007f7f0       ??1__non_rtti_object@std@@UAE@XZ 100d77f0 f   LIBCMTD:stdexcpt.obj
 0002:0007f820       __CxxThrowException@8      100d7820 f   LIBCMTD:throw.obj
 0002:0007f890       ?_RTC_GetSrcLine@@YAHPAEPA_WKPAH1K@Z 100d7890 f   LIBCMTD:pdblkup.obj
 0002:0007fe40       ___unDName                 100d7e40 f   LIBCMTD:undname.obj
 0002:0007ff50       ?Constructor@HeapManager@@QAEXP6APAXI@ZP6AXPAX@Z@Z 100d7f50 f i LIBCMTD:undname.obj
 0002:0007ffa0       ?Destructor@HeapManager@@QAEXXZ 100d7fa0 f i LIBCMTD:undname.obj
 0002:00080000       ___unDNameEx               100d8000 f   LIBCMTD:undname.obj
 0002:00080110       ??0UnDecorator@@QAE@PADPBDHP6APADJ@ZK@Z 100d8110 f i LIBCMTD:undname.obj
 0002:000801d0       ??BUnDecorator@@QAEPADXZ   100d81d0 f i LIBCMTD:undname.obj
 0002:00080490       ?dbGetString@DName@@QBEPADXZ 100d8490 f   LIBCMTD:undname.obj
 0002:000804c0       ?getDecoratedName@UnDecorator@@CA?AVDName@@XZ 100d84c0 f   LIBCMTD:undname.obj
 0002:00080890       ?getSymbolName@UnDecorator@@CA?AVDName@@XZ 100d8890 f i LIBCMTD:undname.obj
 0002:00080920       ?getZName@UnDecorator@@CA?AVDName@@_N@Z 100d8920 f   LIBCMTD:undname.obj
 0002:00080c20       ?getOperatorName@UnDecorator@@CA?AVDName@@_NPA_N@Z 100d8c20 f i LIBCMTD:undname.obj
 0002:00081780       ?getStringEncoding@UnDecorator@@CA?AVDName@@PADH@Z 100d9780 f   LIBCMTD:undname.obj
 0002:000818c0       ?getScope@UnDecorator@@CA?AVDName@@XZ 100d98c0 f   LIBCMTD:undname.obj
 0002:00081d90       ?getSignedDimension@UnDecorator@@CA?AVDName@@XZ 100d9d90 f   LIBCMTD:undname.obj
 0002:00081e30       ?getDimension@UnDecorator@@CA?AVDName@@_N@Z 100d9e30 f   LIBCMTD:undname.obj
 0002:00082190       ?getNumberOfDimensions@UnDecorator@@CAHXZ 100da190 f   LIBCMTD:undname.obj
 0002:000822d0       ?getTemplateName@UnDecorator@@CA?AVDName@@_N@Z 100da2d0 f   LIBCMTD:undname.obj
 0002:00082530       ?getTemplateArgumentList@UnDecorator@@CA?AVDName@@XZ 100da530 f   LIBCMTD:undname.obj
 0002:00082850       ?getTemplateConstant@UnDecorator@@CA?AVDName@@XZ 100da850 f   LIBCMTD:undname.obj
 0002:00082e00       ?composeDeclaration@UnDecorator@@CA?AVDName@@ABV2@@Z 100dae00 f i LIBCMTD:undname.obj
 0002:00084970       ?getTypeEncoding@UnDecorator@@CAHXZ 100dc970 f i LIBCMTD:undname.obj
 0002:00085560       ?getBasedType@UnDecorator@@CA?AVDName@@XZ 100dd560 f   LIBCMTD:undname.obj
 0002:00085650       ?getScopedName@UnDecorator@@CA?AVDName@@XZ 100dd650 f   LIBCMTD:undname.obj
 0002:000857b0       ?getCallingConvention@UnDecorator@@CA?AVDName@@XZ 100dd7b0 f   LIBCMTD:undname.obj
 0002:00085960       ?getReturnType@UnDecorator@@CA?AVDName@@PAV2@@Z 100dd960 f   LIBCMTD:undname.obj
 0002:000859c0       ?getDataType@UnDecorator@@CA?AVDName@@PAV2@@Z 100dd9c0 f   LIBCMTD:undname.obj
 0002:00085b10       ?getPrimaryDataType@UnDecorator@@CA?AVDName@@ABV2@@Z 100ddb10 f   LIBCMTD:undname.obj
 0002:00085e60       ?getArgumentTypes@UnDecorator@@CA?AVDName@@XZ 100dde60 f   LIBCMTD:undname.obj
 0002:00086010       ?getArgumentList@UnDecorator@@CA?AVDName@@XZ 100de010 f   LIBCMTD:undname.obj
 0002:00086190       ?getThrowTypes@UnDecorator@@CA?AVDName@@XZ 100de190 f   LIBCMTD:undname.obj
 0002:00086260       ?getBasicDataType@UnDecorator@@CA?AVDName@@ABV2@@Z 100de260 f   LIBCMTD:undname.obj
 0002:00086900       ?getECSUDataType@UnDecorator@@CA?AVDName@@XZ 100de900 f   LIBCMTD:undname.obj
 0002:00086b40       ?getECSUName@UnDecorator@@CA?AVDName@@XZ 100deb40 f i LIBCMTD:undname.obj
 0002:00086b60       ?getEnumType@UnDecorator@@CA?AVDName@@XZ 100deb60 f i LIBCMTD:undname.obj
 0002:00086d00       ?getFunctionIndirectType@UnDecorator@@CA?AVDName@@ABV2@@Z 100ded00 f   LIBCMTD:undname.obj
 0002:00087250       ?getPtrRefType@UnDecorator@@CA?AVDName@@ABV2@0D@Z 100df250 f   LIBCMTD:undname.obj
 0002:00087400       ?getExtendedDataIndirectType@UnDecorator@@CA?AVDName@@AADAA_NH@Z 100df400 f   LIBCMTD:undname.obj
 0002:00087600       ?getDataIndirectType@UnDecorator@@CA?AVDName@@ABV2@D0H@Z 100df600 f   LIBCMTD:undname.obj
 0002:00087eb0       ?getPtrRefDataType@UnDecorator@@CA?AVDName@@ABV2@H@Z 100dfeb0 f i LIBCMTD:undname.obj
 0002:00088040       ?getArrayType@UnDecorator@@CA?AVDName@@ABV2@@Z 100e0040 f i LIBCMTD:undname.obj
 0002:000882e0       ?getLexicalFrame@UnDecorator@@CA?AVDName@@XZ 100e02e0 f i LIBCMTD:undname.obj
 0002:00088330       ?getThisType@UnDecorator@@CA?AVDName@@XZ 100e0330 f i LIBCMTD:undname.obj
 0002:00088370       ?getPointerType@UnDecorator@@CA?AVDName@@ABV2@0@Z 100e0370 f i LIBCMTD:undname.obj
 0002:000883a0       ?getPointerTypeArray@UnDecorator@@CA?AVDName@@ABV2@0@Z 100e03a0 f i LIBCMTD:undname.obj
 0002:000883d0       ?getReferenceType@UnDecorator@@CA?AVDName@@ABV2@0@Z 100e03d0 f i LIBCMTD:undname.obj
 0002:00088400       ?getDisplacement@UnDecorator@@CA?AVDName@@XZ 100e0400 f i LIBCMTD:undname.obj
 0002:00088420       ?getCallIndex@UnDecorator@@CA?AVDName@@XZ 100e0420 f i LIBCMTD:undname.obj
 0002:00088440       ?getGuardNumber@UnDecorator@@CA?AVDName@@XZ 100e0440 f i LIBCMTD:undname.obj
 0002:00088460       ?getVbTableType@UnDecorator@@CA?AVDName@@ABV2@@Z 100e0460 f i LIBCMTD:undname.obj
 0002:00088480       ?getVCallThunkType@UnDecorator@@CA?AVDName@@XZ 100e0480 f i LIBCMTD:undname.obj
 0002:00088500       ?getVfTableType@UnDecorator@@CA?AVDName@@ABV2@@Z 100e0500 f i LIBCMTD:undname.obj
 0002:00088730       ?getStorageConvention@UnDecorator@@CA?AVDName@@XZ 100e0730 f i LIBCMTD:undname.obj
 0002:00088750       ?getDataIndirectType@UnDecorator@@CA?AVDName@@XZ 100e0750 f i LIBCMTD:undname.obj
 0002:00088790       ?getVdispMapType@UnDecorator@@CA?AVDName@@ABV2@@Z 100e0790 f i LIBCMTD:undname.obj
 0002:00088820       ?getExternalDataType@UnDecorator@@CA?AVDName@@ABV2@@Z 100e0820 f i LIBCMTD:undname.obj
 0002:000888e0       ?doMSKeywords@UnDecorator@@SAHXZ 100e08e0 f i LIBCMTD:undname.obj
 0002:00088900       ?doPtr64@UnDecorator@@SAHXZ 100e0900 f i LIBCMTD:undname.obj
 0002:00088920       ?doFunctionReturns@UnDecorator@@SAHXZ 100e0920 f i LIBCMTD:undname.obj
 0002:00088940       ?doAllocationModel@UnDecorator@@SAHXZ 100e0940 f i LIBCMTD:undname.obj
 0002:00088960       ?doAllocationLanguage@UnDecorator@@SAHXZ 100e0960 f i LIBCMTD:undname.obj
 0002:00088980       ?doThisTypes@UnDecorator@@SAHXZ 100e0980 f i LIBCMTD:undname.obj
 0002:000889a0       ?doAccessSpecifiers@UnDecorator@@SAHXZ 100e09a0 f i LIBCMTD:undname.obj
 0002:000889c0       ?doThrowTypes@UnDecorator@@SAHXZ 100e09c0 f i LIBCMTD:undname.obj
 0002:000889e0       ?doMemberTypes@UnDecorator@@SAHXZ 100e09e0 f i LIBCMTD:undname.obj
 0002:00088a00       ?doNameOnly@UnDecorator@@SAHXZ 100e0a00 f i LIBCMTD:undname.obj
 0002:00088a20       ?doTypeOnly@UnDecorator@@SAHXZ 100e0a20 f i LIBCMTD:undname.obj
 0002:00088a40       ?haveTemplateParameters@UnDecorator@@SAHXZ 100e0a40 f i LIBCMTD:undname.obj
 0002:00088a60       ?doEcsu@UnDecorator@@SAHXZ 100e0a60 f i LIBCMTD:undname.obj
 0002:00088a80       ?doEllipsis@UnDecorator@@SAHXZ 100e0a80 f i LIBCMTD:undname.obj
 0002:00088aa0       ?UScore@UnDecorator@@SAPBDW4Tokens@@@Z 100e0aa0 f   LIBCMTD:undname.obj
 0002:00088ae0       ?doUnderScore@UnDecorator@@SAHXZ 100e0ae0 f i LIBCMTD:undname.obj
 0002:00088b00       ??2@YAPAXIAAVHeapManager@@H@Z 100e0b00 f i LIBCMTD:undname.obj
 0002:00088b20       ?getMemory@HeapManager@@QAEPAXIH@Z 100e0b20 f   LIBCMTD:undname.obj
 0002:00088c70       ??0Block@HeapManager@@QAE@XZ 100e0c70 f i LIBCMTD:undname.obj
 0002:00088c90       ??H@YA?AVDName@@DABV0@@Z   100e0c90 f i LIBCMTD:undname.obj
 0002:00088cd0       ??H@YA?AVDName@@W4DNameStatus@@ABV0@@Z 100e0cd0 f i LIBCMTD:undname.obj
 0002:00088d10       ??H@YA?AVDName@@PBDABV0@@Z 100e0d10 f i LIBCMTD:undname.obj
 0002:00088d50       ??0DName@@QAE@XZ           100e0d50 f i LIBCMTD:undname.obj
 0002:00088e30       ??0DName@@QAE@D@Z          100e0e30 f   LIBCMTD:undname.obj
 0002:00088f30       ??0DName@@QAE@ABV0@@Z      100e0f30 f i LIBCMTD:undname.obj
 0002:000890f0       ??0DName@@QAE@PAV0@@Z      100e10f0 f   LIBCMTD:undname.obj
 0002:00089250       ??0DName@@QAE@PBD@Z        100e1250 f   LIBCMTD:undname.obj
 0002:00089360       ??0DName@@QAE@AAPBDD@Z     100e1360 f   LIBCMTD:undname.obj
 0002:000896c0       ?doNoIdentCharCheck@UnDecorator@@SAHXZ 100e16c0 f i LIBCMTD:undname.obj
 0002:000896e0       ??0DName@@QAE@_K@Z         100e16e0 f   LIBCMTD:undname.obj
 0002:00089860       ??0DName@@QAE@_J@Z         100e1860 f   LIBCMTD:undname.obj
 0002:00089a30       ??0DName@@QAE@W4DNameStatus@@@Z 100e1a30 f   LIBCMTD:undname.obj
 0002:00089b90       ?isValid@DName@@QBEHXZ     100e1b90 f   LIBCMTD:undname.obj
 0002:00089be0       ?isEmpty@DName@@QBEHXZ     100e1be0 f   LIBCMTD:undname.obj
 0002:00089c30       ?status@DName@@QBE?AW4DNameStatus@@XZ 100e1c30 f i LIBCMTD:undname.obj
 0002:00089c50       ?clearStatus@DName@@QAEXXZ 100e1c50 f i LIBCMTD:undname.obj
 0002:00089c70       ?setPtrRef@DName@@QAEAAV1@XZ 100e1c70 f i LIBCMTD:undname.obj
 0002:00089ca0       ?isPtrRef@DName@@QBEHXZ    100e1ca0 f i LIBCMTD:undname.obj
 0002:00089cc0       ?isUDC@DName@@QBEHXZ       100e1cc0 f i LIBCMTD:undname.obj
 0002:00089d10       ?setIsUDC@DName@@QAEXXZ    100e1d10 f i LIBCMTD:undname.obj
 0002:00089d40       ?isUDTThunk@DName@@QBEHXZ  100e1d40 f i LIBCMTD:undname.obj
 0002:00089d90       ?setIsArray@DName@@QAEXXZ  100e1d90 f i LIBCMTD:undname.obj
 0002:00089dc0       ?isArray@DName@@QBEHXZ     100e1dc0 f i LIBCMTD:undname.obj
 0002:00089de0       ?isNoTE@DName@@QBEHXZ      100e1de0 f i LIBCMTD:undname.obj
 0002:00089e00       ?setIsNoTE@DName@@QAEXXZ   100e1e00 f i LIBCMTD:undname.obj
 0002:00089e30       ?isPinPtr@DName@@QBEHXZ    100e1e30 f i LIBCMTD:undname.obj
 0002:00089e50       ?setIsPinPtr@DName@@QAEXXZ 100e1e50 f i LIBCMTD:undname.obj
 0002:00089e80       ?isComArray@DName@@QBEHXZ  100e1e80 f i LIBCMTD:undname.obj
 0002:00089ea0       ?setIsComArray@DName@@QAEXXZ 100e1ea0 f i LIBCMTD:undname.obj
 0002:00089ed0       ?isVCallThunk@DName@@QBEHXZ 100e1ed0 f i LIBCMTD:undname.obj
 0002:00089ef0       ?setIsVCallThunk@DName@@QAEXXZ 100e1ef0 f i LIBCMTD:undname.obj
 0002:00089f20       ?length@DName@@QBEHXZ      100e1f20 f   LIBCMTD:undname.obj
 0002:00089f90       ?getLastChar@DName@@QBEDXZ 100e1f90 f   LIBCMTD:undname.obj
 0002:0008a020       ?getString@DName@@QBEPADPADH@Z 100e2020 f   LIBCMTD:undname.obj
 0002:0008a160       ??HDName@@QBE?AV0@D@Z      100e2160 f   LIBCMTD:undname.obj
 0002:0008a1d0       ??HDName@@QBE?AV0@PBD@Z    100e21d0 f   LIBCMTD:undname.obj
 0002:0008a240       ??HDName@@QBE?AV0@ABV0@@Z  100e2240 f   LIBCMTD:undname.obj
 0002:0008a2d0       ??HDName@@QBE?AV0@PAV0@@Z  100e22d0 f   LIBCMTD:undname.obj
 0002:0008a340       ??HDName@@QBE?AV0@W4DNameStatus@@@Z 100e2340 f   LIBCMTD:undname.obj
 0002:0008a3b0       ??YDName@@QAEAAV0@D@Z      100e23b0 f   LIBCMTD:undname.obj
 0002:0008a480       ??YDName@@QAEAAV0@PBD@Z    100e2480 f   LIBCMTD:undname.obj
 0002:0008a560       ??YDName@@QAEAAV0@ABV0@@Z  100e2560 f   LIBCMTD:undname.obj
 0002:0008a610       ??YDName@@QAEAAV0@PAV0@@Z  100e2610 f   LIBCMTD:undname.obj
 0002:0008a740       ??YDName@@QAEAAV0@W4DNameStatus@@@Z 100e2740 f   LIBCMTD:undname.obj
 0002:0008a840       ??_5DName@@QAEAAV0@ABV0@@Z 100e2840 f   LIBCMTD:undname.obj
 0002:0008a8a0       ??4DName@@QAEAAV0@D@Z      100e28a0 f   LIBCMTD:undname.obj
 0002:0008a930       ??4DName@@QAEAAV0@PBD@Z    100e2930 f   LIBCMTD:undname.obj
 0002:0008a9d0       ??4DName@@QAEAAV0@ABV0@@Z  100e29d0 f   LIBCMTD:undname.obj
 0002:0008ab20       ??4DName@@QAEAAV0@PAV0@@Z  100e2b20 f   LIBCMTD:undname.obj
 0002:0008ac50       ??4DName@@QAEAAV0@W4DNameStatus@@@Z 100e2c50 f   LIBCMTD:undname.obj
 0002:0008adb0       ?doPchar@DName@@AAEXPBDH@Z 100e2db0 f   LIBCMTD:undname.obj
 0002:0008af50       ?isFull@Replicator@@QBEHXZ 100e2f50 f i LIBCMTD:undname.obj
 0002:0008af70       ??0Replicator@@QAE@XZ      100e2f70 f i LIBCMTD:undname.obj
 0002:0008afb0       ??YReplicator@@QAEAAV0@ABVDName@@@Z 100e2fb0 f   LIBCMTD:undname.obj
 0002:0008b060       ??AReplicator@@QBEABVDName@@H@Z 100e3060 f   LIBCMTD:undname.obj
 0002:0008b0c0       ??0DNameNode@@IAE@XZ       100e30c0 f   LIBCMTD:undname.obj
 0002:0008b0f0       ?nextNode@DNameNode@@QBEPAV1@XZ 100e30f0 f i LIBCMTD:undname.obj
 0002:0008b110       ?clone@DNameNode@@QAEPAV1@XZ 100e3110 f   LIBCMTD:undname.obj
 0002:0008b1b0       ??0DName@@QAE@PAVDNameNode@@@Z 100e31b0 f i LIBCMTD:undname.obj
 0002:0008b290       ??YDNameNode@@QAEAAV0@PAV0@@Z 100e3290 f   LIBCMTD:undname.obj
 0002:0008b300       ??0charNode@@QAE@D@Z       100e3300 f   LIBCMTD:undname.obj
 0002:0008b340       ?length@charNode@@UBEHXZ   100e3340 f i LIBCMTD:undname.obj
 0002:0008b360       ?getLastChar@charNode@@UBEDXZ 100e3360 f i LIBCMTD:undname.obj
 0002:0008b380       ?getString@charNode@@UBEPADPADH@Z 100e3380 f   LIBCMTD:undname.obj
 0002:0008b3c0       ??0pcharNode@@QAE@PBDH@Z   100e33c0 f   LIBCMTD:undname.obj
 0002:0008b4a0       ?length@pcharNode@@UBEHXZ  100e34a0 f i LIBCMTD:undname.obj
 0002:0008b4c0       ?getLastChar@pcharNode@@UBEDXZ 100e34c0 f i LIBCMTD:undname.obj
 0002:0008b500       ?getString@pcharNode@@UBEPADPADH@Z 100e3500 f   LIBCMTD:undname.obj
 0002:0008b580       ??0pDNameNode@@QAE@PAVDName@@@Z 100e3580 f   LIBCMTD:undname.obj
 0002:0008b600       ?length@pDNameNode@@UBEHXZ 100e3600 f i LIBCMTD:undname.obj
 0002:0008b640       ?getLastChar@pDNameNode@@UBEDXZ 100e3640 f i LIBCMTD:undname.obj
 0002:0008b680       ?getString@pDNameNode@@UBEPADPADH@Z 100e3680 f   LIBCMTD:undname.obj
 0002:0008b6e0       ??0DNameStatusNode@@QAE@W4DNameStatus@@@Z 100e36e0 f   LIBCMTD:undname.obj
 0002:0008b740       ?length@DNameStatusNode@@UBEHXZ 100e3740 f i LIBCMTD:undname.obj
 0002:0008b760       ?getLastChar@DNameStatusNode@@UBEDXZ 100e3760 f i LIBCMTD:undname.obj
 0002:0008b790       ?getString@DNameStatusNode@@UBEPADPADH@Z 100e3790 f   LIBCMTD:undname.obj
 0002:0008b920       ___crtMessageBoxA          100e3920 f   LIBCMTD:crtmbox.obj
 0002:0008bc20       _strncpy_s                 100e3c20 f   LIBCMTD:strncpy_s.obj
 0002:0008c110       ___crtGetLocaleInfoW       100e4110 f   LIBCMTD:w_loc.obj
 0002:0008c350       ___crtGetLocaleInfoA       100e4350 f   LIBCMTD:a_loc.obj
 0002:0008c5a0       __initp_misc_initcrit      100e45a0 f   LIBCMTD:initcrit.obj
 0002:0008c5b0       ___crtInitCritSecAndSpinCount 100e45b0 f   LIBCMTD:initcrit.obj
 0002:0008c770       __CrtDefaultAllocHook      100e4770 f   LIBCMTD:dbghook.obj
 0002:0008c780       __crt_debugger_hook        100e4780 f   LIBCMTD:dbghook.obj
 0002:0008c7a0       __ValidateImageBase        100e47a0 f   LIBCMTD:pesect.obj
 0002:0008c820       __FindPESection            100e4820 f   LIBCMTD:pesect.obj
 0002:0008c8b0       __IsNonwritableInCurrentImage 100e48b0 f   LIBCMTD:pesect.obj
 0002:0008ca10       ___crtCompareStringA       100e4a10 f   LIBCMTD:a_cmp.obj
 0002:0008d130       __strnicoll_l              100e5130 f   LIBCMTD:strnicol.obj
 0002:0008d410       __strnicoll                100e5410 f   LIBCMTD:strnicol.obj
 0002:0008d460       ___crtsetenv               100e5460 f   LIBCMTD:setenv.obj
 0002:0008dc70       __initp_eh_hooks           100e5c70 f   LIBCMTD:hooks.obj
 0002:0008dc90       ?terminate@@YAXXZ          100e5c90 f   LIBCMTD:hooks.obj
 0002:0008dd30       ?unexpected@@YAXXZ         100e5d30 f   LIBCMTD:hooks.obj
 0002:0008dd60       ?_inconsistency@@YAXXZ     100e5d60 f   LIBCMTD:hooks.obj
 0002:0008de10       __initp_misc_rand_s        100e5e10 f   LIBCMTD:rand_s.obj
 0002:0008de20       _rand_s                    100e5e20 f   LIBCMTD:rand_s.obj
 0002:0008e0c0       __initp_heap_handler       100e60c0 f   LIBCMTD:handler.obj
 0002:0008e0d0       ?_set_new_handler@@YAP6AHI@ZP6AHI@Z@Z 100e60d0 f   LIBCMTD:handler.obj
 0002:0008e130       ?_set_new_handler@@YAP6AHI@ZH@Z 100e6130 f   LIBCMTD:handler.obj
 0002:0008e170       ?_query_new_handler@@YAP6AHI@ZXZ 100e6170 f   LIBCMTD:handler.obj
 0002:0008e190       __callnewh                 100e6190 f   LIBCMTD:handler.obj
 0002:0008e1e0       __fcloseall                100e61e0 f   LIBCMTD:closeall.obj
 0002:0008e350       __alloc_osfhnd             100e6350 f   LIBCMTD:osfinfo.obj
 0002:0008e6b0       __set_osfhnd               100e66b0 f   LIBCMTD:osfinfo.obj
 0002:0008e7b0       __free_osfhnd              100e67b0 f   LIBCMTD:osfinfo.obj
 0002:0008e8d0       __get_osfhandle            100e68d0 f   LIBCMTD:osfinfo.obj
 0002:0008ea90       __open_osfhandle           100e6a90 f   LIBCMTD:osfinfo.obj
 0002:0008ed40       ___lock_fhandle            100e6d40 f   LIBCMTD:osfinfo.obj
 0002:0008ee80       __unlock_fhandle           100e6e80 f   LIBCMTD:osfinfo.obj
 0002:0008eeb0       __commit                   100e6eb0 f   LIBCMTD:commit.obj
 0002:0008f150       __write                    100e7150 f   LIBCMTD:write.obj
 0002:0008f400       __write_nolock             100e7400 f   LIBCMTD:write.obj
 0002:000900a0       __getbuf                   100e80a0 f   LIBCMTD:_getbuf.obj
 0002:00090190       __lseeki64                 100e8190 f   LIBCMTD:lseeki64.obj
 0002:00090470       __lseeki64_nolock          100e8470 f   LIBCMTD:lseeki64.obj
 0002:00090590       __open                     100e8590 f   LIBCMTD:open.obj
 0002:00090770       __sopen_helper             100e8770 f   LIBCMTD:open.obj
 0002:00091c50       __sopen                    100e9c50 f   LIBCMTD:open.obj
 0002:00091ce0       __sopen_s                  100e9ce0 f   LIBCMTD:open.obj
 0002:00091d10       __mbsicmp_l                100e9d10 f   LIBCMTD:mbsicmp.obj
 0002:000921f0       __mbsicmp                  100ea1f0 f   LIBCMTD:mbsicmp.obj
 0002:00092210       __mbsnbcmp_l               100ea210 f   LIBCMTD:mbsnbcmp.obj
 0002:000925a0       __mbsnbcmp                 100ea5a0 f   LIBCMTD:mbsnbcmp.obj
 0002:000925c4       __global_unwind2           100ea5c4 f   LIBCMTD:exsup.obj
 0002:00092629       __local_unwind2            100ea629 f   LIBCMTD:exsup.obj
 0002:000926ad       __abnormal_termination     100ea6ad f   LIBCMTD:exsup.obj
 0002:000926d0       __NLG_Notify1              100ea6d0 f   LIBCMTD:exsup.obj
 0002:000926d9       __NLG_Notify               100ea6d9 f   LIBCMTD:exsup.obj
 0002:000926f0       __NLG_Dispatch             100ea6f0     LIBCMTD:exsup.obj
 0002:000926f0       __NLG_Dispatch2            100ea6f0     LIBCMTD:exsup.obj
 0002:000926f8       __NLG_Call                 100ea6f8 f   LIBCMTD:exsup.obj
 0002:000926fa       __NLG_Return2              100ea6fa     LIBCMTD:exsup.obj
 0002:00092750       __mbsrchr_l                100ea750 f   LIBCMTD:mbsrchr.obj
 0002:00092910       __mbsrchr                  100ea910 f   LIBCMTD:mbsrchr.obj
 0002:00092930       ___loctotime32_t           100ea930 f   LIBCMTD:dtoxtime.obj
 0002:00092f80       ___tzset                   100eaf80 f   LIBCMTD:tzset.obj
 0002:00093040       __tzset                    100eb040 f   LIBCMTD:tzset.obj
 0002:00093740       __set_daylight             100eb740 f i LIBCMTD:tzset.obj
 0002:00093760       __set_dstbias              100eb760 f i LIBCMTD:tzset.obj
 0002:00093780       __set_timezone             100eb780 f i LIBCMTD:tzset.obj
 0002:000937a0       __isindst                  100eb7a0 f   LIBCMTD:tzset.obj
 0002:00093f90       __get_daylight             100ebf90 f   LIBCMTD:timeset.obj
 0002:00094030       __get_dstbias              100ec030 f   LIBCMTD:timeset.obj
 0002:000940d0       __get_timezone             100ec0d0 f   LIBCMTD:timeset.obj
 0002:00094170       __get_tzname               100ec170 f   LIBCMTD:timeset.obj
 0002:000943c0       ___daylight                100ec3c0 f   LIBCMTD:timeset.obj
 0002:000943d0       ___dstbias                 100ec3d0 f   LIBCMTD:timeset.obj
 0002:000943e0       ___timezone                100ec3e0 f   LIBCMTD:timeset.obj
 0002:000943f0       ___tzname                  100ec3f0 f   LIBCMTD:timeset.obj
 0002:00094400       _strpbrk                   100ec400 f   LIBCMTD:strpbrk.obj
 0002:00094450       ___report_gsfailure        100ec450 f   LIBCMTD:gs_report.obj
 0002:000945a0       __isatty                   100ec5a0 f   LIBCMTD:isatty.obj
 0002:000946c0       _printf                    100ec6c0 f   LIBCMTD:printf.obj
 0002:00094840       __printf_l                 100ec840 f   LIBCMTD:printf.obj
 0002:00094870       __printf_s_l               100ec870 f   LIBCMTD:printf.obj
 0002:000948a0       _printf_s                  100ec8a0 f   LIBCMTD:printf.obj
 0002:000948d0       __printf_p_l               100ec8d0 f   LIBCMTD:printf.obj
 0002:00094900       __printf_p                 100ec900 f   LIBCMTD:printf.obj
 0002:00094930       __set_printf_count_output  100ec930 f   LIBCMTD:printf.obj
 0002:00094990       __get_printf_count_output  100ec990 f   LIBCMTD:printf.obj
 0002:000949b0       __wctomb_s_l               100ec9b0 f   LIBCMTD:wctomb.obj
 0002:00094d70       _wctomb_s                  100ecd70 f   LIBCMTD:wctomb.obj
 0002:00094da0       __wctomb_l                 100ecda0 f   LIBCMTD:wctomb.obj
 0002:00094e40       _wctomb                    100ece40 f   LIBCMTD:wctomb.obj
 0002:00094ea0       __aulldiv                  100ecea0 f   LIBCMTD:ulldiv.obj
 0002:00094f30       __aullrem                  100ecf30 f   LIBCMTD:ullrem.obj
 0002:00094fd0       __output_s_l               100ecfd0 f   LIBCMTD:outputs.obj
 0002:00096af0       __validate_param_reuseA    100eeaf0 f   LIBCMTD:outputp.obj
 0002:00096e00       __output_p_l               100eee00 f   LIBCMTD:outputp.obj
 0002:0009b8e0       _get_crtdouble_arg         100f38e0 f i LIBCMTD:outputp.obj
 0002:0009b910       __get_sse2_info            100f3910 f   LIBCMTD:cpu_disp.obj
 0002:0009ba80       ___sse2_available_init     100f3a80 f   LIBCMTD:cpu_disp.obj
 0002:0009baa0       __controlfp_s              100f3aa0 f   LIBCMTD:contrlfp.obj
 0002:0009bbc0       __atodbl_l                 100f3bc0 f   LIBCMTD:atodbl.obj
 0002:0009bd00       __atodbl                   100f3d00 f   LIBCMTD:atodbl.obj
 0002:0009bd20       __atoldbl_l                100f3d20 f   LIBCMTD:atodbl.obj
 0002:0009be60       __atoldbl                  100f3e60 f   LIBCMTD:atodbl.obj
 0002:0009be80       __atoflt_l                 100f3e80 f   LIBCMTD:atodbl.obj
 0002:0009bfc0       __atoflt                   100f3fc0 f   LIBCMTD:atodbl.obj
 0002:0009bfe0       __fptostr                  100f3fe0 f   LIBCMTD:_fptostr.obj
 0002:0009c330       __fltout2                  100f4330 f   LIBCMTD:cfout.obj
 0002:0009c410       ___dtold                   100f4410 f   LIBCMTD:cfout.obj
 0002:0009c5c0       __set_output_format        100f45c0 f   LIBCMTD:outputformat.obj
 0002:0009c660       __get_output_format        100f4660 f   LIBCMTD:outputformat.obj
 0002:0009c670       __allshl                   100f4670 f   LIBCMTD:llshl.obj
 0002:0009c6a0       __aullshr                  100f46a0 f   LIBCMTD:ullshr.obj
 0002:0009c6d0       __fptrap                   100f46d0 f   LIBCMTD:crt0fp.obj
 0002:0009c6f0       _vfwprintf_helper          100f46f0 f   LIBCMTD:vfwprint.obj
 0002:0009c8d0       __vfwprintf_l              100f48d0 f   LIBCMTD:vfwprint.obj
 0002:0009c900       __vfwprintf_s_l            100f4900 f   LIBCMTD:vfwprint.obj
 0002:0009c930       __vfwprintf_p_l            100f4930 f   LIBCMTD:vfwprint.obj
 0002:0009c960       _vfwprintf                 100f4960 f   LIBCMTD:vfwprint.obj
 0002:0009c990       _vfwprintf_s               100f4990 f   LIBCMTD:vfwprint.obj
 0002:0009c9c0       __vfwprintf_p              100f49c0 f   LIBCMTD:vfwprint.obj
 0002:0009c9f0       __itoa_s                   100f49f0 f   LIBCMTD:xtoas.obj
 0002:0009cea0       __ltoa_s                   100f4ea0 f   LIBCMTD:xtoas.obj
 0002:0009cef0       __ultoa_s                  100f4ef0 f   LIBCMTD:xtoas.obj
 0002:0009cf20       __i64toa_s                 100f4f20 f   LIBCMTD:xtoas.obj
 0002:0009d420       __ui64toa_s                100f5420 f   LIBCMTD:xtoas.obj
 0002:0009d450       __mbsnbcat_s               100f5450 f   LIBCMTD:mbsnbcat_s.obj
 0002:0009d480       __mbsnbcpy_s               100f5480 f   LIBCMTD:mbsnbcpy_s.obj
 0002:0009d4b0       __woutput_s_l              100f54b0 f   LIBCMTD:woutputs.obj
 0002:0009ec70       __ismbbkalnum_l            100f6c70 f   LIBCMTD:ismbbyte.obj
 0002:0009ec90       __ismbbkalnum              100f6c90 f   LIBCMTD:ismbbyte.obj
 0002:0009ecb0       __ismbbkprint_l            100f6cb0 f   LIBCMTD:ismbbyte.obj
 0002:0009ecd0       __ismbbkprint              100f6cd0 f   LIBCMTD:ismbbyte.obj
 0002:0009ecf0       __ismbbkpunct_l            100f6cf0 f   LIBCMTD:ismbbyte.obj
 0002:0009ed10       __ismbbkpunct              100f6d10 f   LIBCMTD:ismbbyte.obj
 0002:0009ed30       __ismbbalnum_l             100f6d30 f   LIBCMTD:ismbbyte.obj
 0002:0009ed60       __ismbbalnum               100f6d60 f   LIBCMTD:ismbbyte.obj
 0002:0009ed80       __ismbbalpha_l             100f6d80 f   LIBCMTD:ismbbyte.obj
 0002:0009edb0       __ismbbalpha               100f6db0 f   LIBCMTD:ismbbyte.obj
 0002:0009edd0       __ismbbgraph_l             100f6dd0 f   LIBCMTD:ismbbyte.obj
 0002:0009ee00       __ismbbgraph               100f6e00 f   LIBCMTD:ismbbyte.obj
 0002:0009ee20       __ismbbprint_l             100f6e20 f   LIBCMTD:ismbbyte.obj
 0002:0009ee50       __ismbbprint               100f6e50 f   LIBCMTD:ismbbyte.obj
 0002:0009ee70       __ismbbpunct_l             100f6e70 f   LIBCMTD:ismbbyte.obj
 0002:0009ee90       __ismbbpunct               100f6e90 f   LIBCMTD:ismbbyte.obj
 0002:0009eeb0       __ismbblead_l              100f6eb0 f   LIBCMTD:ismbbyte.obj
 0002:0009eed0       __ismbblead                100f6ed0 f   LIBCMTD:ismbbyte.obj
 0002:0009eef0       __ismbbtrail_l             100f6ef0 f   LIBCMTD:ismbbyte.obj
 0002:0009ef10       __ismbbtrail               100f6f10 f   LIBCMTD:ismbbyte.obj
 0002:0009ef30       __ismbbkana_l              100f6f30 f   LIBCMTD:ismbbyte.obj
 0002:0009efc0       __ismbbkana                100f6fc0 f   LIBCMTD:ismbbyte.obj
 0002:0009f0d0       ___crtGetStringTypeA       100f70d0 f   LIBCMTD:a_str.obj
 0002:0009f400       ___pwctype_func            100f7400 f   LIBCMTD:ctype.obj
 0002:0009f410       ___pctype_func             100f7410 f   LIBCMTD:ctype.obj
 0002:0009f470       ___init_time               100f7470 f   LIBCMTD:inittime.obj
 0002:0009fd50       ___free_lc_time            100f7d50 f   LIBCMTD:inittime.obj
 0002:000a0120       ___init_numeric            100f8120 f   LIBCMTD:initnum.obj
 0002:000a0550       ___free_lconv_num          100f8550 f   LIBCMTD:initnum.obj
 0002:000a05e0       ___init_monetary           100f85e0 f   LIBCMTD:initmon.obj
 0002:000a0c20       ___free_lconv_mon          100f8c20 f   LIBCMTD:initmon.obj
 0002:000a0d50       ___init_ctype              100f8d50 f   LIBCMTD:initctyp.obj
 0002:000a1460       ____mb_cur_max_func        100f9460 f   LIBCMTD:initctyp.obj
 0002:000a14c0       ____mb_cur_max_l_func      100f94c0 f   LIBCMTD:initctyp.obj
 0002:000a1500       ____lc_codepage_func       100f9500 f   LIBCMTD:initctyp.obj
 0002:000a1560       ____lc_collate_cp_func     100f9560 f   LIBCMTD:initctyp.obj
 0002:000a15c0       ____lc_handle_func         100f95c0 f   LIBCMTD:initctyp.obj
 0002:000a1620       ___init_collate            100f9620 f   LIBCMTD:initcoll.obj
 0002:000a1630       __Getdays_l                100f9630 f   LIBCMTD:strftime.obj
 0002:000a1860       __Getdays                  100f9860 f   LIBCMTD:strftime.obj
 0002:000a1880       __Getmonths_l              100f9880 f   LIBCMTD:strftime.obj
 0002:000a1ab0       __Getmonths                100f9ab0 f   LIBCMTD:strftime.obj
 0002:000a1ad0       __Gettnames_l              100f9ad0 f   LIBCMTD:strftime.obj
 0002:000a2190       __Gettnames                100fa190 f   LIBCMTD:strftime.obj
 0002:000a21b0       __strftime_l               100fa1b0 f   LIBCMTD:strftime.obj
 0002:000a21e0       _strftime                  100fa1e0 f   LIBCMTD:strftime.obj
 0002:000a2210       __Strftime                 100fa210 f   LIBCMTD:strftime.obj
 0002:000a2240       __Strftime_l               100fa240 f   LIBCMTD:strftime.obj
 0002:000a4ba0       _localeconv                100fcba0 f   LIBCMTD:lconv.obj
 0002:000a4c00       _strcspn                   100fcc00 f   LIBCMTD:strcspn.obj
 0002:000a4c60       _strncmp                   100fcc60 f   LIBCMTD:strncmp.obj
 0002:000a4e30       ___get_qualified_locale    100fce30 f   LIBCMTD:getqloc.obj
 0002:000a6020       __wchartodigit             100fe020 f   LIBCMTD:wchtodig.obj
 0002:000a6410       __ld12tod                  100fe410 f   LIBCMTD:intrncvt.obj
 0002:000a6430       __ld12cvt                  100fe430 f i LIBCMTD:intrncvt.obj
 0002:000a6710       __RoundMan                 100fe710 f i LIBCMTD:intrncvt.obj
 0002:000a6820       __ZeroTail                 100fe820 f i LIBCMTD:intrncvt.obj
 0002:000a68d0       __IncMan                   100fe8d0 f i LIBCMTD:intrncvt.obj
 0002:000a69b0       __CopyMan                  100fe9b0 f i LIBCMTD:intrncvt.obj
 0002:000a6a10       __FillZeroMan              100fea10 f i LIBCMTD:intrncvt.obj
 0002:000a6a50       __IsZeroMan                100fea50 f i LIBCMTD:intrncvt.obj
 0002:000a6aa0       __ShrMan                   100feaa0 f i LIBCMTD:intrncvt.obj
 0002:000a6bd0       __ld12tof                  100febd0 f   LIBCMTD:intrncvt.obj
 0002:000a6bf0       __ld12told                 100febf0 f   LIBCMTD:intrncvt.obj
 0002:000a6cd0       ___crtGetStringTypeW       100fecd0 f   LIBCMTD:w_str.obj
 0002:000a7090       ___mtold12                 100ff090 f   LIBCMTD:mantold.obj
 0002:000a7230       ___add_12                  100ff230 f i LIBCMTD:mantold.obj
 0002:000a7310       __mbtowc_l                 100ff310 f   LIBCMTD:mbtowc.obj
 0002:000a75b0       _mbtowc                    100ff5b0 f   LIBCMTD:mbtowc.obj
 0002:000a75e0       _fputwc                    100ff5e0 f   LIBCMTD:fputwc.obj
 0002:000a7710       __fputwc_nolock            100ff710 f   LIBCMTD:fputwc.obj
 0002:000a7be0       _putwc                     100ffbe0 f   LIBCMTD:fputwc.obj
 0002:000a7c00       _ungetc                    100ffc00 f   LIBCMTD:ungetc.obj
 0002:000a7d20       __ungetc_nolock            100ffd20 f   LIBCMTD:ungetc.obj
 0002:000a8020       ___InternalCxxFrameHandler 10100020 f   LIBCMTD:frame.obj
 0002:000a8790       ??0bad_exception@std@@QAE@PBD@Z 10100790 f i LIBCMTD:frame.obj
 0002:000a87c0       ??1bad_exception@std@@UAE@XZ 101007c0 f i LIBCMTD:frame.obj
 0002:000a87f0       ??_Gbad_exception@std@@UAEPAXI@Z 101007f0 f i LIBCMTD:frame.obj
 0002:000a87f0       ??_Ebad_exception@std@@UAEPAXI@Z 101007f0 f i LIBCMTD:frame.obj
 0002:000a8830       ??0bad_exception@std@@QAE@ABV01@@Z 10100830 f i LIBCMTD:frame.obj
 0002:000a8a40       ___TypeMatch               10100a40 f   LIBCMTD:frame.obj
 0002:000a8b20       ___FrameUnwindFilter       10100b20 f   LIBCMTD:frame.obj
 0002:000a8bb0       ___FrameUnwindToState      10100bb0 f   LIBCMTD:frame.obj
 0002:000a9240       ___BuildCatchObjectHelper  10101240 f   LIBCMTD:frame.obj
 0002:000a9550       ___BuildCatchObject        10101550 f   LIBCMTD:frame.obj
 0002:000a96a0       ___DestructExceptionObject 101016a0 f   LIBCMTD:frame.obj
 0002:000a9780       ___AdjustPointer           10101780 f   LIBCMTD:frame.obj
 0002:000a97e0       ?__uncaught_exception@@YA_NXZ 101017e0 f   LIBCMTD:frame.obj
 0002:000a9800       ___CxxExceptionFilter      10101800 f   LIBCMTD:frame.obj
 0002:000a9a60       ___CxxRegisterExceptionObject 10101a60 f   LIBCMTD:frame.obj
 0002:000a9be0       ___CxxDetectRethrow        10101be0 f   LIBCMTD:frame.obj
 0002:000a9c80       ___CxxUnregisterExceptionObject 10101c80 f   LIBCMTD:frame.obj
 0002:000a9e60       ___CxxQueryExceptionSize   10101e60 f   LIBCMTD:frame.obj
 0002:000a9e70       ___CxxCallUnwindDtor       10101e70 f   LIBCMTD:frame.obj
 0002:000a9f00       ___CxxCallUnwindDelDtor    10101f00 f   LIBCMTD:frame.obj
 0002:000a9fa0       ___CxxCallUnwindStdDelDtor 10101fa0 f   LIBCMTD:frame.obj
 0002:000aa030       ___CxxCallUnwindVecDtor    10102030 f   LIBCMTD:frame.obj
 0002:000aa2c0       ?_is_exception_typeof@@YAHABVtype_info@@PAU_EXCEPTION_POINTERS@@@Z 101022c0 f   LIBCMTD:frame.obj
 0002:000aa3d0       __CallSettingFrame@12      101023d0 f   LIBCMTD:lowhelpr.obj
 0002:000aa3f7       __NLG_Return               101023f7     LIBCMTD:lowhelpr.obj
 0002:000aa430       ___ansicp                  10102430 f   LIBCMTD:convrtcp.obj
 0002:000aa4a0       ___convertcp               101024a0 f   LIBCMTD:convrtcp.obj
 0002:000aa770       ?__CxxUnhandledExceptionFilter@@YGJPAU_EXCEPTION_POINTERS@@@Z 10102770 f   LIBCMTD:unhandld.obj
 0002:000aa840       ?__CxxSetUnhandledExceptionFilter@@YAHXZ 10102840 f   LIBCMTD:unhandld.obj
 0002:000aa880       ?__CxxRestoreUnhandledExceptionFilter@@YAXXZ 10102880 f   LIBCMTD:unhandld.obj
 0002:000aa8d0       __strnicmp_l               101028d0 f   LIBCMTD:strnicmp.obj
 0002:000aaba0       __strnicmp                 10102ba0 f   LIBCMTD:strnicmp.obj
 0002:000aad90       __mbschr_l                 10102d90 f   LIBCMTD:mbschr.obj
 0002:000aaf80       __mbschr                   10102f80 f   LIBCMTD:mbschr.obj
 0002:000aafa0       __putwch                   10102fa0 f   LIBCMTD:putwch.obj
 0002:000ab050       __putwch_nolock            10103050 f   LIBCMTD:putwch.obj
 0002:000ab190       __cputws                   10103190 f   LIBCMTD:putwch.obj
 0002:000ab320       __chsize_s                 10103320 f   LIBCMTD:chsize.obj
 0002:000ab660       __chsize_nolock            10103660 f   LIBCMTD:chsize.obj
 0002:000ab990       __chsize                   10103990 f   LIBCMTD:chsize.obj
 0002:000ab9c0       __lseek                    101039c0 f   LIBCMTD:lseek.obj
 0002:000abc70       __lseek_nolock             10103c70 f   LIBCMTD:lseek.obj
 0002:000abd80       __setmode                  10103d80 f   LIBCMTD:setmode.obj
 0002:000ac0b0       __setmode_nolock           101040b0 f   LIBCMTD:setmode.obj
 0002:000ac3b0       __set_fmode                101043b0 f   LIBCMTD:setmode.obj
 0002:000ac490       __get_fmode                10104490 f   LIBCMTD:setmode.obj
 0002:000ac530       __stricmp_l                10104530 f   LIBCMTD:stricmp.obj
 0002:000ac740       ___ascii_stricmp           10104740 f   LIBCMTD:stricmp.obj
 0002:000ac7d0       _strcmpi                   101047d0 f   LIBCMTD:stricmp.obj
 0002:000ac7d0       _stricmp                   101047d0 f   LIBCMTD:stricmp.obj
 0002:000ac7d0       __stricmp                  101047d0 f   LIBCMTD:stricmp.obj
 0002:000ac920       _vprintf_helper            10104920 f   LIBCMTD:vprintf.obj
 0002:000aca80       __vprintf_l                10104a80 f   LIBCMTD:vprintf.obj
 0002:000acab0       __vprintf_s_l              10104ab0 f   LIBCMTD:vprintf.obj
 0002:000acae0       __vprintf_p_l              10104ae0 f   LIBCMTD:vprintf.obj
 0002:000acb10       _vprintf                   10104b10 f   LIBCMTD:vprintf.obj
 0002:000acb40       _vprintf_s                 10104b40 f   LIBCMTD:vprintf.obj
 0002:000acb70       __vprintf_p                10104b70 f   LIBCMTD:vprintf.obj
 0002:000acba0       __statusfp2                10104ba0 f   LIBCMTD:ieee87.obj
 0002:000acbf0       __statusfp                 10104bf0 f   LIBCMTD:ieee87.obj
 0002:000acc40       __clearfp                  10104c40 f   LIBCMTD:ieee87.obj
 0002:000acc90       ___control87_2             10104c90 f   LIBCMTD:ieee87.obj
 0002:000acd60       __controlfp                10104d60 f   LIBCMTD:ieee87.obj
 0002:000acd80       __control87                10104d80 f i LIBCMTD:ieee87.obj
 0002:000ace60       __set_controlfp            10104e60 f   LIBCMTD:ieee87.obj
 0002:000acf10       __fpreset                  10104f10 f   LIBCMTD:ieee87.obj
 0002:000ad890       _$I10_OUTPUT               10105890 f   LIBCMTD:x10fout.obj
 0002:000adf90       __mbsnbcat_s_l             10105f90 f   LIBCMTD:mbsnbcat_s_l.obj
 0002:000ae970       __mbsnbcpy_s_l             10106970 f   LIBCMTD:mbsnbcpy_s_l.obj
 0002:000af180       __flswbuf                  10107180 f   LIBCMTD:_flswbuf.obj
 0002:000af510       ?_ValidateRead@@YAHPBXI@Z  10107510 f   LIBCMTD:validate.obj
 0002:000af540       ?_ValidateWrite@@YAHPAXI@Z 10107540 f   LIBCMTD:validate.obj
 0002:000af570       ?_ValidateExecute@@YAHP6GHXZ@Z 10107570 f   LIBCMTD:validate.obj
 0002:000af5a0       ___ascii_strnicmp          101075a0 f   LIBCMTD:_strnicm.obj
 0002:000af620       ___initconin               10107620 f   LIBCMTD:initcon.obj
 0002:000af650       ___initconout              10107650 f   LIBCMTD:initcon.obj
 0002:000af680       ___termcon                 10107680 f   LIBCMTD:initcon.obj
 0002:000af6e0       __statfp                   101076e0 f   LIBCMTD:fpctrl.obj
 0002:000af700       __clrfp                    10107700 f   LIBCMTD:fpctrl.obj
 0002:000af720       __ctrlfp                   10107720 f   LIBCMTD:fpctrl.obj
 0002:000af760       __set_statfp               10107760 f   LIBCMTD:fpctrl.obj
 0002:000af7e0       ___get_fpsr_sse2           101077e0 f   LIBCMTD:fpctrl.obj
 0002:000af810       ___set_fpsr_sse2           10107810 f   LIBCMTD:fpctrl.obj
 0002:000af920       ___fclrf_sse2              10107920 f   LIBCMTD:fpctrl.obj
 0002:000af950       ___statfp_sse2             10107950 f   LIBCMTD:fpctrl.obj
 0002:000af990       ___clrfp_sse2              10107990 f   LIBCMTD:fpctrl.obj
 0002:000af9d0       ___ctrlfp_sse2             101079d0 f   LIBCMTD:fpctrl.obj
 0002:000afa40       ___set_statfp_sse2         10107a40 f   LIBCMTD:fpctrl.obj
 0002:000afa80       _strncat_s                 10107a80 f   LIBCMTD:strncat_s.obj
 0002:000b0038       _WideCharToMultiByte@32    10108038 f   kernel32:KERNEL32.dll
 0002:000b003e       _MultiByteToWideChar@24    1010803e f   kernel32:KERNEL32.dll
 0002:000b0044       _LoadLibraryExA@12         10108044 f   kernel32:KERNEL32.dll
 0002:000b004a       _LocalFree@4               1010804a f   kernel32:KERNEL32.dll
 0002:000b0050       _FormatMessageA@28         10108050 f   kernel32:KERNEL32.dll
 0002:000b0056       _GetLastError@0            10108056 f   kernel32:KERNEL32.dll
 0002:000b005c       _GetProcAddress@8          1010805c f   kernel32:KERNEL32.dll
 0002:000b0062       _FreeLibrary@4             10108062 f   kernel32:KERNEL32.dll
 0002:000b0068       _GetModuleHandleA@4        10108068 f   kernel32:KERNEL32.dll
 0002:000b006e       _FindClose@4               1010806e f   kernel32:KERNEL32.dll
 0002:000b0074       _FileTimeToSystemTime@8    10108074 f   kernel32:KERNEL32.dll
 0002:000b007a       _FileTimeToLocalFileTime@8 1010807a f   kernel32:KERNEL32.dll
 0002:000b0080       _GetDriveTypeA@4           10108080 f   kernel32:KERNEL32.dll
 0002:000b0086       _FindFirstFileA@8          10108086 f   kernel32:KERNEL32.dll
 0002:000b008c       _CreateDirectoryA@8        1010808c f   kernel32:KERNEL32.dll
 0002:000b0092       _GetFileAttributesA@4      10108092 f   kernel32:KERNEL32.dll
 0002:000b0098       _GetModuleFileNameW@12     10108098 f   kernel32:KERNEL32.dll
 0002:000b009e       _WriteConsoleW@20          1010809e f   kernel32:KERNEL32.dll
 0002:000b00a4       _GetFileType@4             101080a4 f   kernel32:KERNEL32.dll
 0002:000b00aa       _GetStdHandle@4            101080aa f   kernel32:KERNEL32.dll
 0002:000b00b0       _GetCurrentThreadId@0      101080b0 f   kernel32:KERNEL32.dll
 0002:000b00b6       _GetCommandLineA@0         101080b6 f   kernel32:KERNEL32.dll
 0002:000b00bc       _HeapFree@12               101080bc f   kernel32:KERNEL32.dll
 0002:000b00c2       _GetVersionExA@4           101080c2 f   kernel32:KERNEL32.dll
 0002:000b00c8       _GetFullPathNameA@16       101080c8 f   kernel32:KERNEL32.dll
 0002:000b00ce       _RaiseException@16         101080ce f   kernel32:KERNEL32.dll
 0002:000b00d4       _DebugBreak@0              101080d4 f   kernel32:KERNEL32.dll
 0002:000b00da       _IsDebuggerPresent@0       101080da f   kernel32:KERNEL32.dll
 0002:000b00e0       _lstrlenA@4                101080e0 f   kernel32:KERNEL32.dll
 0002:000b00e6       _LoadLibraryA@4            101080e6 f   kernel32:KERNEL32.dll
 0002:000b00ec       _UnhandledExceptionFilter@4 101080ec f   kernel32:KERNEL32.dll
 0002:000b00f2       _SetUnhandledExceptionFilter@4 101080f2 f   kernel32:KERNEL32.dll
 0002:000b00f8       _WriteFile@20              101080f8 f   kernel32:KERNEL32.dll
 0002:000b00fe       _TlsGetValue@4             101080fe f   kernel32:KERNEL32.dll
 0002:000b0104       _TlsAlloc@0                10108104 f   kernel32:KERNEL32.dll
 0002:000b010a       _TlsSetValue@8             1010810a f   kernel32:KERNEL32.dll
 0002:000b0110       _TlsFree@4                 10108110 f   kernel32:KERNEL32.dll
 0002:000b0116       _InterlockedIncrement@4    10108116 f   kernel32:KERNEL32.dll
 0002:000b011c       _SetLastError@4            1010811c f   kernel32:KERNEL32.dll
 0002:000b0122       _InterlockedDecrement@4    10108122 f   kernel32:KERNEL32.dll
 0002:000b0128       _GetCurrentThread@0        10108128 f   kernel32:KERNEL32.dll
 0002:000b012e       _DeleteCriticalSection@4   1010812e f   kernel32:KERNEL32.dll
 0002:000b0134       _EnterCriticalSection@4    10108134 f   kernel32:KERNEL32.dll
 0002:000b013a       _LeaveCriticalSection@4    1010813a f   kernel32:KERNEL32.dll
 0002:000b0140       _FatalAppExitA@8           10108140 f   kernel32:KERNEL32.dll
 0002:000b0146       _TerminateProcess@8        10108146 f   kernel32:KERNEL32.dll
 0002:000b014c       _GetCurrentProcess@0       1010814c f   kernel32:KERNEL32.dll
 0002:000b0152       _ExitProcess@4             10108152 f   kernel32:KERNEL32.dll
 0002:000b0158       _CloseHandle@4             10108158 f   kernel32:KERNEL32.dll
 0002:000b015e       _ReadFile@20               1010815e f   kernel32:KERNEL32.dll
 0002:000b0164       _RtlUnwind@16              10108164 f   kernel32:KERNEL32.dll
 0002:000b016a       _GetCurrentDirectoryA@8    1010816a f   kernel32:KERNEL32.dll
 0002:000b0170       _SetCurrentDirectoryA@4    10108170 f   kernel32:KERNEL32.dll
 0002:000b0176       _SetHandleCount@4          10108176 f   kernel32:KERNEL32.dll
 0002:000b017c       _GetStartupInfoA@4         1010817c f   kernel32:KERNEL32.dll
 0002:000b0182       _SetConsoleCtrlHandler@8   10108182 f   kernel32:KERNEL32.dll
 0002:000b0188       _LoadLibraryW@4            10108188 f   kernel32:KERNEL32.dll
 0002:000b018e       _FreeEnvironmentStringsA@4 1010818e f   kernel32:KERNEL32.dll
 0002:000b0194       _GetEnvironmentStrings@0   10108194 f   kernel32:KERNEL32.dll
 0002:000b019a       _FreeEnvironmentStringsW@4 1010819a f   kernel32:KERNEL32.dll
 0002:000b01a0       _GetEnvironmentStringsW@0  101081a0 f   kernel32:KERNEL32.dll
 0002:000b01a6       _QueryPerformanceCounter@4 101081a6 f   kernel32:KERNEL32.dll
 0002:000b01ac       _GetTickCount@0            101081ac f   kernel32:KERNEL32.dll
 0002:000b01b2       _GetCurrentProcessId@0     101081b2 f   kernel32:KERNEL32.dll
 0002:000b01b8       _GetSystemTimeAsFileTime@4 101081b8 f   kernel32:KERNEL32.dll
 0002:000b01be       _GetACP@0                  101081be f   kernel32:KERNEL32.dll
 0002:000b01c4       _GetOEMCP@0                101081c4 f   kernel32:KERNEL32.dll
 0002:000b01ca       _GetCPInfo@8               101081ca f   kernel32:KERNEL32.dll
 0002:000b01d0       _LCMapStringA@24           101081d0 f   kernel32:KERNEL32.dll
 0002:000b01d6       _LCMapStringW@24           101081d6 f   kernel32:KERNEL32.dll
 0002:000b01dc       _GetLocaleInfoA@16         101081dc f   kernel32:KERNEL32.dll
 0002:000b01e2       _GetLocaleInfoW@16         101081e2 f   kernel32:KERNEL32.dll
 0002:000b01e8       _InitializeCriticalSection@4 101081e8 f   kernel32:KERNEL32.dll
 0002:000b01ee       _CompareStringA@24         101081ee f   kernel32:KERNEL32.dll
 0002:000b01f4       _CompareStringW@24         101081f4 f   kernel32:KERNEL32.dll
 0002:000b01fa       _SetEnvironmentVariableA@8 101081fa f   kernel32:KERNEL32.dll
 0002:000b0200       _InterlockedExchange@8     10108200 f   kernel32:KERNEL32.dll
 0002:000b0206       _SetStdHandle@8            10108206 f   kernel32:KERNEL32.dll
 0002:000b020c       _FlushFileBuffers@4        1010820c f   kernel32:KERNEL32.dll
 0002:000b0212       _GetConsoleCP@0            10108212 f   kernel32:KERNEL32.dll
 0002:000b0218       _GetConsoleMode@8          10108218 f   kernel32:KERNEL32.dll
 0002:000b021e       _SetFilePointer@16         1010821e f   kernel32:KERNEL32.dll
 0002:000b0224       _CreateFileA@28            10108224 f   kernel32:KERNEL32.dll
 0002:000b022a       _GetTimeZoneInformation@4  1010822a f   kernel32:KERNEL32.dll
 0002:000b0230       _GetStringTypeA@20         10108230 f   kernel32:KERNEL32.dll
 0002:000b0236       _GetStringTypeW@16         10108236 f   kernel32:KERNEL32.dll
 0002:000b023c       _GetTimeFormatA@24         1010823c f   kernel32:KERNEL32.dll
 0002:000b0242       _GetDateFormatA@24         10108242 f   kernel32:KERNEL32.dll
 0002:000b0248       _IsValidLocale@8           10108248 f   kernel32:KERNEL32.dll
 0002:000b024e       _IsValidCodePage@4         1010824e f   kernel32:KERNEL32.dll
 0002:000b0254       _EnumSystemLocalesA@8      10108254 f   kernel32:KERNEL32.dll
 0002:000b025a       _GetUserDefaultLCID@0      1010825a f   kernel32:KERNEL32.dll
 0002:000b0260       _WriteConsoleA@20          10108260 f   kernel32:KERNEL32.dll
 0002:000b0266       _GetConsoleOutputCP@0      10108266 f   kernel32:KERNEL32.dll
 0002:000b026c       _SetEndOfFile@4            1010826c f   kernel32:KERNEL32.dll
 0002:000b0272       _KeyValuesSystem           10108272 f   vstdlib:vstdlib.dll
 0002:000b0280       __strlwr_l                 10108280 f   LIBCMTD:strlwr.obj
 0002:000b02a0       __strlwr                   101082a0 f   LIBCMTD:strlwr.obj
 0002:000b02a0       _strlwr                    101082a0 f   LIBCMTD:strlwr.obj
 0002:000b03b0       ?_strlwr_s_l_stat@@YAHPADIPAUlocaleinfo_struct@@@Z 101083b0 f   LIBCMTD:strlwr.obj
 0002:000b08f0       __strlwr_s_l               101088f0 f   LIBCMTD:strlwr.obj
 0002:000b0940       __strlwr_s                 10108940 f   LIBCMTD:strlwr.obj
 0002:000b0960       __strupr_l                 10108960 f   LIBCMTD:strupr.obj
 0002:000b0980       __strupr                   10108980 f   LIBCMTD:strupr.obj
 0002:000b0980       _strupr                    10108980 f   LIBCMTD:strupr.obj
 0002:000b0a90       __strupr_s_l               10108a90 f   LIBCMTD:strupr.obj
 0002:000b1010       __strupr_s                 10109010 f   LIBCMTD:strupr.obj
 0003:00000000       ___xc_a                    1010d000     LIBCMTD:crt0init.obj
 0003:0000028c       ___xc_z                    1010d28c     LIBCMTD:crt0init.obj
 0003:00000390       ___xi_a                    1010d390     LIBCMTD:crt0init.obj
 0003:000006b0       ___xi_z                    1010d6b0     LIBCMTD:crt0init.obj
 0003:000007b4       ___xp_a                    1010d7b4     LIBCMTD:crt0init.obj
 0003:00000ac8       ___xp_z                    1010dac8     LIBCMTD:crt0init.obj
 0003:00000bcc       ___xt_a                    1010dbcc     LIBCMTD:crt0init.obj
 0003:00000dd4       ___xt_z                    1010ddd4     LIBCMTD:crt0init.obj
 0003:00000efc       ??_C@_0P@GHFPNOJB@bad?5allocation?$AA@ 1010defc     bugreporter.obj
 0003:00000f14       ??_7CBugReporter@@6B@      1010df14     bugreporter.obj
 0003:0000104c       ??_7IBugReporter@@6B@      1010e04c     bugreporter.obj
 0003:0000117c       ??_7IBaseInterface@@6B@    1010e17c     bugreporter.obj
 0003:00001184       ??_C@_08ODGEKKOL@username?$AA@ 1010e184     bugreporter.obj
 0003:00001190       ??_C@_0O@EGIGKDL@bug_directory?$AA@ 1010e190     bugreporter.obj
 0003:000011a0       ??_C@_01LFCBOECM@?4?$AA@   1010e1a0     bugreporter.obj
 0003:000011a4       ??_C@_0CO@HNMBHIFG@Failed?5to?5load?5bugreporter_text?5@ 1010e1a4     bugreporter.obj
 0003:000011dc       ??_C@_0CI@PIKFMNDK@failed?5to?5open?5bugreporter?5optio@ 1010e1dc     bugreporter.obj
 0003:0000120c       ??_C@_02JDPG@rb?$AA@       1010e20c     bugreporter.obj
 0003:00001210       ??_C@_02DKCKIIND@?$CFs?$AA@ 1010e210     bugreporter.obj
 0003:00001214       ??_C@_0CJ@HACDNGCN@Failed?5to?5find?5bugreporter?5optio@ 1010e214     bugreporter.obj
 0003:00001248       ??_C@_0FL@KAFEPKBN@d?3?2projects?2source?9engine?92007?2v@ 1010e248     bugreporter.obj
 0003:000012b8       ??_C@_0BM@MNOIBGBL@?2?2bugbait?2bugsub?2config?4txt?$AA@ 1010e2b8     bugreporter.obj
 0003:000012dc       ??_C@_0M@KALDBDPJ@OptionsFile?$AA@ 1010e2dc     bugreporter.obj
 0003:000012ec       ??_C@_0M@DGOJFLHK@?$DM?$DMInvalid?$DO?$DO?$AA@ 1010e2ec     bugreporter.obj
 0003:000012fa       ??_C@_00CNPNBAHC@?$AA@     1010e2fa     bugreporter.obj
 0003:000012fc       ??_C@_0CA@KIGDCFKF@?$CFs?2?$CF04i?$CF02i?$CF02i?9?$CF02i?$CF02i?$CF02i?9?$CFs?$AA@ 1010e2fc     bugreporter.obj
 0003:00001324       ??_C@_02GMLFBBN@wb?$AA@    1010e324     bugreporter.obj
 0003:00001328       ??_C@_0L@FINJKFGD@?$CFs?2bug?4txt?$AA@ 1010e328     bugreporter.obj
 0003:00001338       ??_C@_04MHPHMCPO@Misc?$AA@ 1010e338     bugreporter.obj
 0003:00001340       ??_C@_0L@CFOLGLEJ@DriverInfo?$AA@ 1010e340     bugreporter.obj
 0003:00001350       ??_C@_03ODEHELPB@vmf?$AA@  1010e350     bugreporter.obj
 0003:00001354       ??_C@_03JGCOBPKK@Bsp?$AA@  1010e354     bugreporter.obj
 0003:00001358       ??_C@_08GJOELBJF@Savegame?$AA@ 1010e358     bugreporter.obj
 0003:00001364       ??_C@_0L@KKOCHHLN@Screenshot?$AA@ 1010e364     bugreporter.obj
 0003:00001374       ??_C@_0M@LHPCLPIO@Orientation?$AA@ 1010e374     bugreporter.obj
 0003:00001384       ??_C@_08GCJNLIKG@Position?$AA@ 1010e384     bugreporter.obj
 0003:00001390       ??_C@_05DLONLOOK@Build?$AA@ 1010e390     bugreporter.obj
 0003:00001398       ??_C@_0M@OHKMKKDH@Description?$AA@ 1010e398     bugreporter.obj
 0003:000013a8       ??_C@_05KOHFLOFG@Level?$AA@ 1010e3a8     bugreporter.obj
 0003:000013b0       ??_C@_04KPICECCB@Area?$AA@ 1010e3b0     bugreporter.obj
 0003:000013b8       ??_C@_08HFJKEKNA@Severity?$AA@ 1010e3b8     bugreporter.obj
 0003:000013c4       ??_C@_09BICMJLFC@Submitter?$AA@ 1010e3c4     bugreporter.obj
 0003:000013d0       ??_C@_05HDCNEILF@Owner?$AA@ 1010e3d0     bugreporter.obj
 0003:000013d8       ??_C@_05PABKJLOM@Title?$AA@ 1010e3d8     bugreporter.obj
 0003:000013e0       ??_C@_08MBBCAPGD@?$CFs?$DN?$CC?$CFs?$CC?6?$AA@ 1010e3e0     bugreporter.obj
 0003:000013ec       ??_C@_0BJ@DFBIGIF@Assertion?5Failed?3?5m_pBug?$AA@ 1010e3ec     bugreporter.obj
 0003:0000140c       ??_C@_0BJ@IPDLIEHH@Assertion?5Failed?3?5levels?$AA@ 1010e40c     bugreporter.obj
 0003:0000142c       ??_C@_03HPDLNGOA@?$EA?$CFs?$AA@ 1010e42c     bugreporter.obj
 0003:00001430       ??_C@_05FMHPGHJN@Names?$AA@ 1010e430     bugreporter.obj
 0003:00001438       ??_C@_08KLMNDAPE@?$DM?$DMNone?$DO?$DO?$AA@ 1010e438     bugreporter.obj
 0003:00001444       ??_C@_0CA@BLICLCJF@Assertion?5Failed?3?5?$CBIsReadOnly?$CI?$CJ?$AA@ 1010e444     bugreporter.obj
 0003:00001470       ??_C@_0EI@OLNLNDBG@d?3?2projects?2source?9engine?92007?2v@ 1010e470     bugreporter.obj
 0003:000014c8       ??_C@_0FH@JOIFLHBI@Assertion?5Failed?3?5?$CIBase?$CI?$CJ?5?$DN?$DN?5NUL@ 1010e4c8     bugreporter.obj
 0003:00001530       ??_C@_0EI@LDBBFCIN@d?3?2projects?2source?9engine?92007?2v@ 1010e530     bugreporter.obj
 0003:00001588       ??_C@_0BE@FAIBBENA@Assertion?5Failed?3?50?$AA@ 1010e588     bugreporter.obj
 0003:000015a0       ??_C@_0EI@BHGGDMEC@d?3?2projects?2source?9engine?92007?2v@ 1010e5a0     bugreporter.obj
 0003:000015f8       ??_C@_0BN@ECHMBCKD@Assertion?5Failed?3?5m_LessFunc?$AA@ 1010e5f8     bugreporter.obj
 0003:0000161c       ??_C@_0BM@CIMBBINP@Assertion?5Failed?3?5IsValid?$CI?$CJ?$AA@ 1010e61c     bugreporter.obj
 0003:00001640       ??_C@_0CF@IJOHHNJH@Assertion?5Failed?3?5m_NumElements?5@ 1010e640     bugreporter.obj
 0003:0000166c       ??_C@_0DA@PINCPMPL@Assertion?5Failed?3?5m_FirstFree?5?$DN?$DN@ 1010e66c     bugreporter.obj
 0003:000016a8       ??_C@_0CL@DNKCBDOI@Assertion?5Failed?3?5m_Root?5?$DN?$DN?5Inva@ 1010e6a8     bugreporter.obj
 0003:000016dc       ??_C@_0CB@DGGMDFC@Assertion?5Failed?3?5nGrowSize?5?$DO?$DN?50@ 1010e6dc     bugreporter.obj
 0003:00001704       ??_C@_0DK@CFLODBPI@Assertion?5Failed?3?5?$CIelem?5?$DN?$DN?5Count@ 1010e704     bugreporter.obj
 0003:0000174c       ??_C@_0CA@KGMIIJNG@Assertion?5Failed?3?5IsIdxValid?$CIi?$CJ?$AA@ 1010e74c     bugreporter.obj
 0003:00001778       ??_C@_0EI@GDMBHICD@Assertion?5Failed?3?5IsValidIndex?$CIe@ 1010e778     bugreporter.obj
 0003:000017d0       ??_C@_0DM@DBCGBAOK@Assertion?5Failed?3?5m_Elements?4IsV@ 1010e7d0     bugreporter.obj
 0003:00001818       ??_C@_0BG@EMENODEA@CUtlRBTree?5overflow?$CB?6?$AA@ 1010e818     bugreporter.obj
 0003:00001834       ??_C@_0DD@MFDBEFLG@Assertion?5Failed?3?5m_Elements?4IsV@ 1010e834     bugreporter.obj
 0003:00001878       ??_C@_0FC@KPAPNNO@Assertion?5Failed?3?5m_Elements?4IsV@ 1010e878     bugreporter.obj
 0003:000018dc       ??_C@_0CG@HAJEJEFB@Assertion?5Failed?3?5i?5?$CB?$DN?5InvalidIn@ 1010e8dc     bugreporter.obj
 0003:0000190c       ??_C@_0BM@ODKIHEMA@Assertion?5Failed?3?5m_pMemory?$AA@ 1010e90c     bugreporter.obj
 0003:00001930       ??_C@_0BK@MCKPAAPK@Assertion?5Failed?3?5num?5?$DO?50?$AA@ 1010e930     bugreporter.obj
 0003:00001950       __real@00000000            1010e950     bugreporter.obj
 0003:00001958       ??_C@_0EJ@GLHOEPFL@d?3?2projects?2source?9engine?92007?2v@ 1010e958     bugreporter.obj
 0003:000019b0       __real@7f7fffff            1010e9b0     bugreporter.obj
 0003:000019b4       ??_C@_0P@JBFOKDIL@BugReporter004?$AA@ 1010e9b4     bugreporter.obj
 0003:000019c8       ??_C@_0BD@ILJOLDOL@?$CK?$CK?$CK?5DEBUG?5STUB?5?$CK?$CK?$CK?$AA@ 1010e9c8     memoverride.obj
 0003:000019e0       ?ProcessDetach@NativeDll@<CrtImplementationDetails>@@0IB 1010e9e0     memoverride.obj
 0003:000019e4       ?ProcessAttach@NativeDll@<CrtImplementationDetails>@@0IB 1010e9e4     memoverride.obj
 0003:000019e8       ?ThreadAttach@NativeDll@<CrtImplementationDetails>@@0IB 1010e9e8     memoverride.obj
 0003:000019ec       ?ThreadDetach@NativeDll@<CrtImplementationDetails>@@0IB 1010e9ec     memoverride.obj
 0003:000019f0       ?ProcessVerifier@NativeDll@<CrtImplementationDetails>@@0IB 1010e9f0     memoverride.obj
 0003:000019f8       ??_C@_0EM@MKOCKHFJ@d?3?2projects?2source?9engine?92007?2v@ 1010e9f8     memoverride.obj
 0003:00001a54       ??_C@_0BD@NADBKHMH@C?9runtime?5internal?$AA@ 1010ea54     memoverride.obj
 0003:00001a6c       ??_C@_0BG@NGNFHNPE@Unsupported?5function?6?$AA@ 1010ea6c     memoverride.obj
 0003:00001a88       ??_C@_0BO@BPILKELJ@Assertion?5Failed?3?5IsPC?$CI?$CJ?5?$HM?$HM?50?$AA@ 1010ea88     memoverride.obj
 0003:00001aac       ??_C@_13COJANIEC@?$AA0?$AA?$AA@ 1010eaac     memoverride.obj
 0003:00001ab0       ??_C@_1JI@GPCGPLNB@?$AAd?$AA?3?$AA?2?$AAp?$AAr?$AAo?$AAj?$AAe?$AAc?$AAt?$AAs?$AA?2?$AAs?$AAo?$AAu?$AAr?$AAc?$AAe?$AA?9?$AAe?$AAn?$AAg?$AAi?$AAn?$AAe?$AA?9?$AA2?$AA0?$AA0?$AA7?$AA?2?$AAv@ 1010eab0     memoverride.obj
 0003:00001b68       ??_C@_0CM@NKPCJKD@Assertion?5Failed?3?5s_bAllowStatic@ 1010eb68     tier1:utlsymbol.obj
 0003:00001ba0       ??_C@_0ED@JKKNGCJI@d?3?2projects?2source?9engine?92007?2v@ 1010eba0     tier1:utlsymbol.obj
 0003:00001bf0       ??_C@_0EN@LDEDGEFC@Assertion?5Failed?3?5index?4m_iOffse@ 1010ebf0     tier1:utlsymbol.obj
 0003:00001c4c       ??_C@_0DI@FJKPNDCC@Assertion?5Failed?3?5index?4m_iPool?5@ 1010ec4c     tier1:utlsymbol.obj
 0003:00001c90       ??_C@_0CO@EEIOGKLL@Assertion?5Failed?3?5pPool?9?$DOm_Space@ 1010ec90     tier1:utlsymbol.obj
 0003:00001cc8       ??_C@_0DI@OFPPGIMM@Assertion?5Failed?3?5m_Lookup?4IsVal@ 1010ecc8     tier1:utlsymbol.obj
 0003:00001d0c       ??_C@_07CIFAGBMG@unknown?$AA@ 1010ed0c     tier1:KeyValues.obj
 0003:00001d18       ??_C@_0BE@CCEENLEF@?5ReadToken?5overflow?$AA@ 1010ed18     tier1:KeyValues.obj
 0003:00001d30       ??_C@_01EEMJAFIK@?6?$AA@   1010ed30     tier1:KeyValues.obj
 0003:00001d34       ??_C@_08KKMCJABH@?$CI?$CK?$CFs?$CK?$CJ?0?5?$AA@ 1010ed34     tier1:KeyValues.obj
 0003:00001d40       ??_C@_04ONKFDMMC@?$CFs?0?5?$AA@ 1010ed40     tier1:KeyValues.obj
 0003:00001d48       ??_C@_0CA@NDDGCEEP@KeyValues?5Error?3?5?$CFs?5in?5file?5?$CFs?6?$AA@ 1010ed48     tier1:KeyValues.obj
 0003:00001d70       ??_C@_0BJ@LIENMPBD@Assertion?5Failed?3?5buffer?$AA@ 1010ed70     tier1:KeyValues.obj
 0003:00001d90       ??_C@_0EC@FADLBLLP@Assertion?5Failed?3?5IsX360?$CI?$CJ?5?$HM?$HM?5?$CI?5@ 1010ed90     tier1:KeyValues.obj
 0003:00001de0       ??_C@_0BN@GEHBFEKB@Assertion?5Failed?3?5filesystem?$AA@ 1010ede0     tier1:KeyValues.obj
 0003:00001e08       ??_C@_0ED@LIHFEAOI@d?3?2projects?2source?9engine?92007?2v@ 1010ee08     tier1:KeyValues.obj
 0003:00001e58       ??_C@_0DO@LBPKGNFO@KeyValues?3?3SaveToFile?3?5couldn?8t?5@ 1010ee58     tier1:KeyValues.obj
 0003:00001ea4       ??_C@_04HIBGFPH@NULL?$AA@  1010eea4     tier1:KeyValues.obj
 0003:00001eac       ??_C@_01GPOEFGEJ@?7?$AA@   1010eeac     tier1:KeyValues.obj
 0003:00001eb0       ??_C@_02KGHIDFGE@?$HN?6?$AA@ 1010eeb0     tier1:KeyValues.obj
 0003:00001eb8       ??_C@_0EE@MCLHPPL@KeyValues?3?3RecursiveSaveToFile?3?5@ 1010eeb8     tier1:KeyValues.obj
 0003:00001f0c       ??_C@_02NJPGOMH@?$CFf?$AA@ 1010ef0c     tier1:KeyValues.obj
 0003:00001f10       ??_C@_0L@BJLDBJPB@0x?$CF016I64X?$AA@ 1010ef10     tier1:KeyValues.obj
 0003:00001f20       ??_C@_02DPKJAMEF@?$CFd?$AA@ 1010ef20     tier1:KeyValues.obj
 0003:00001f28       ??_C@_0HE@MLAPIKJK@Assertion?5Failed?3?5?3?3WideCharToMu@ 1010ef28     tier1:KeyValues.obj
 0003:00001fb4       ??_C@_04FHLHEGKD@?$CC?7?7?$CC?$AA@ 1010efb4     tier1:KeyValues.obj
 0003:00001fbc       ??_C@_02KCPFEJNG@?$HL?6?$AA@ 1010efbc     tier1:KeyValues.obj
 0003:00001fc0       ??_C@_02MBJIFMOJ@?$CC?6?$AA@ 1010efc0     tier1:KeyValues.obj
 0003:00001fc4       ??_C@_01BJJEKLCA@?$CC?$AA@ 1010efc4     tier1:KeyValues.obj
 0003:00001fc8       ??_C@_0CL@IGOLNNIO@Assertion?5Failed?3?5pSubkey?9?$DOm_pPe@ 1010efc8     tier1:KeyValues.obj
 0003:00001ffc       ??_C@_05OKCMKDO@?$CFI64i?$AA@ 1010effc     tier1:KeyValues.obj
 0003:00002004       ??_C@_1M@PMHABONK@?$AA?$CF?$AAI?$AA6?$AA4?$AAi?$AA?$AA@ 1010f004     tier1:KeyValues.obj
 0003:00002014       ??_C@_15KNBIKKIN@?$AA?$CF?$AAd?$AA?$AA@ 1010f014     tier1:KeyValues.obj
 0003:0000201c       ??_C@_15HBBGCAG@?$AA?$CF?$AAf?$AA?$AA@ 1010f01c     tier1:KeyValues.obj
 0003:00002024       ??_C@_0M@ONLGMOD@?$CFf?5?$CFf?5?$CFf?5?$CFf?$AA@ 1010f024     tier1:KeyValues.obj
 0003:00002034       ??_C@_11LOCGONAA@?$AA?$AA@ 1010f034     tier1:KeyValues.obj
 0003:00002038       ??_C@_0CJ@JLDANBJF@Assertion?5Failed?3?5?$CBnewKeyValue?9?$DO@ 1010f038     tier1:KeyValues.obj
 0003:0000206c       ??_C@_0BF@JPAPEMOB@Assertion?5Failed?3?5kv?$AA@ 1010f06c     tier1:KeyValues.obj
 0003:00002088       ??_C@_0EH@OAIGODPC@KeyValues?3?3ParseIncludedKeys?3?5Co@ 1010f088     tier1:KeyValues.obj
 0003:000020e0       ??_C@_0BO@OJDJHJJI@Assertion?5Failed?3?5pFileSystem?$AA@ 1010f0e0     tier1:KeyValues.obj
 0003:00002104       ??_C@_0CA@NCDAEGDF@Assertion?5Failed?3?5filetoinclude?$AA@ 1010f104     tier1:KeyValues.obj
 0003:0000212c       ??_C@_0BP@KFOEBDCN@Assertion?5Failed?3?5resourceName?$AA@ 1010f12c     tier1:KeyValues.obj
 0003:00002154       ??_C@_0BG@NNMLMEPD@Assertion?5Failed?3?5dat?$AA@ 1010f154     tier1:KeyValues.obj
 0003:00002170       ??_C@_08HHEPHHEL@?$FL$WIN32?$FN?$AA@ 1010f170     tier1:KeyValues.obj
 0003:0000217c       ??_C@_07FBABPLLB@?$FL$X360?$FN?$AA@ 1010f17c     tier1:KeyValues.obj
 0003:00002188       ??_C@_0BK@NIPBBFNB@LoadFromBuffer?3?5missing?5?$HL?$AA@ 1010f188     tier1:KeyValues.obj
 0003:000021a8       ??_C@_0BO@FGCGFEJE@Assertion?5Failed?3?5pCurrentKey?$AA@ 1010f1a8     tier1:KeyValues.obj
 0003:000021cc       ??_C@_0P@NHINIODK@?$CDbase?5is?5NULL?5?$AA@ 1010f1cc     tier1:KeyValues.obj
 0003:000021e0       ??_C@_05OBFANEGE@?$CDbase?$AA@ 1010f1e0     tier1:KeyValues.obj
 0003:000021e8       ??_C@_0BC@NGELGJPP@?$CDinclude?5is?5NULL?5?$AA@ 1010f1e8     tier1:KeyValues.obj
 0003:00002200       ??_C@_08GPLAJCBH@?$CDinclude?$AA@ 1010f200     tier1:KeyValues.obj
 0003:00002210       ??_C@_0EA@NBPAKPMP@RecursiveLoadFromBuffer?3?5?5got?5co@ 1010f210     tier1:KeyValues.obj
 0003:0000225c       ??_C@_0CH@FAEPDIPE@RecursiveLoadFromBuffer?3?5?5got?5?$HN?5@ 1010f25c     tier1:KeyValues.obj
 0003:0000228c       ??_C@_0CH@HEKCOJBB@RecursiveLoadFromBuffer?3?5?5got?5NU@ 1010f28c     tier1:KeyValues.obj
 0003:000022bc       ??_C@_0CM@EGPGDPNF@RecursiveLoadFromBuffer?3?5?5got?5em@ 1010f2bc     tier1:KeyValues.obj
 0003:000022f0       ??_C@_0DF@BNKODCEE@RecursiveLoadFromBuffer?3?5?5got?5EO@ 1010f2f0     tier1:KeyValues.obj
 0003:00002330       ??_C@_0CC@NJBMCONH@Assertion?5Failed?3?5m_errorIndex?$DO?$DN@ 1010f330     tier1:KeyValues.obj
 0003:00002358       ??_C@_0DP@KEPFHOBA@Assertion?5Failed?3?5stackLevel?5?$DO?$DN?5@ 1010f358     tier1:KeyValues.obj
 0003:000023a4       ??_C@_0CC@PPNMAJHC@Assertion?5Failed?3?5?$CB?$CCTYPE_WSTRING@ 1010f3a4     tier1:KeyValues.obj
 0003:000023cc       ??_C@_0N@IOJOKKGA@TYPE_WSTRING?$AA@ 1010f3cc     tier1:KeyValues.obj
 0003:000023dc       ??_C@_02GMHACPFF@?$CFu?$AA@ 1010f3dc     tier1:KeyValues.obj
 0003:000023e0       __real@3b808081            1010f3e0     tier1:KeyValues.obj
 0003:000023e4       ??_C@_05KCDNKPCA@?$CFf?5?$CFf?$AA@ 1010f3e4     tier1:KeyValues.obj
 0003:000023ec       ??_C@_08OEKJENGB@?$CFf?5?$CFf?5?$CFf?$AA@ 1010f3ec     tier1:KeyValues.obj
 0003:000023f8       __real@0000000000000000    1010f3f8     tier1:KeyValues.obj
 0003:00002404       ??_C@_1BK@MIHIJHEO@?$AAo?$AAu?$AAt?$AAp?$AAu?$AAt?$AAB?$AAu?$AAf?$AAf?$AAe?$AAr?$AA?$AA@ 1010f404     tier1:KeyValues.obj
 0003:00002424       ??_C@_1BG@DPDCLCPC@?$AAc?$AAo?$AAu?$AAn?$AAt?$AA?5?$AA?$DO?$AA?$DN?$AA?5?$AA0?$AA?$AA@ 1010f424     tier1:KeyValues.obj
 0003:00002440       ??_C@_1IO@NJBLGGMC@?$AAd?$AA?3?$AA?2?$AAp?$AAr?$AAo?$AAj?$AAe?$AAc?$AAt?$AAs?$AA?2?$AAs?$AAo?$AAu?$AAr?$AAc?$AAe?$AA?9?$AAe?$AAn?$AAg?$AAi?$AAn?$AAe?$AA?9?$AA2?$AA0?$AA0?$AA7?$AA?2?$AAv@ 1010f440     tier1:KeyValues.obj
 0003:000024f0       ??_C@_0EH@FMOIEPNO@d?3?2projects?2source?9engine?92007?2v@ 1010f4f0     tier1:KeyValues.obj
 0003:00002548       ??_C@_0BN@JECMOABE@Assertion?5Failed?3?5count?5?$DO?$DN?50?$AA@ 1010f548     tier1:strtools.obj
 0003:00002570       ??_C@_0EC@BAJEGHAP@d?3?2projects?2source?9engine?92007?2v@ 1010f570     tier1:strtools.obj
 0003:000025c0       ??_C@_0BJ@IDNPFCCG@Assertion?5Failed?3?5n?5?$DO?$DN?50?$AA@ 1010f5c0     tier1:strtools.obj
 0003:000025e0       ??_C@_0BG@FMLCGNMI@Assertion?5Failed?3?5str?$AA@ 1010f5e0     tier1:strtools.obj
 0003:00002600       __real@4050400000000000    1010f600     tier1:strtools.obj
 0003:00002610       __real@4024000000000000    1010f610     tier1:strtools.obj
 0003:00002620       __real@4058400000000000    1010f620     tier1:strtools.obj
 0003:00002630       __real@4048000000000000    1010f630     tier1:strtools.obj
 0003:00002640       __real@4030000000000000    1010f640     tier1:strtools.obj
 0003:0000264c       ??_C@_0BO@EDLKBNHL@Assertion?5Failed?3?5maxLen?5?$DO?$DN?50?$AA@ 1010f64c     tier1:strtools.obj
 0003:00002670       ??_C@_0CF@CFDFJGCD@Assertion?5Failed?3?5maxLenInBytes?5@ 1010f670     tier1:strtools.obj
 0003:0000269c       ??_C@_0BN@KLBBADLG@Assertion?5Failed?3?5maxLen?5?$DO?50?$AA@ 1010f69c     tier1:strtools.obj
 0003:000026c0       ??_C@_0CG@DCCOIKPO@Assertion?5Failed?3?5destBufferSize@ 1010f6c0     tier1:strtools.obj
 0003:000026f0       ??_C@_01CLKCMJKC@?5?$AA@   1010f6f0     tier1:strtools.obj
 0003:000026f4       ??_C@_08BIBOIFBG@?$CF?$CF?4?$CFif?$CFs?$AA@ 1010f6f4     tier1:strtools.obj
 0003:00002700       ??_C@_04EMEGLOCB@?$CFi?$CFs?$AA@ 1010f700     tier1:strtools.obj
 0003:00002708       __real@3ee4f8b588e368f1    1010f708     tier1:strtools.obj
 0003:00002714       ??_C@_06LCIDCBMH@?5bytes?$AA@ 1010f714     tier1:strtools.obj
 0003:0000271c       ??_C@_03MAAJMAHL@?5KB?$AA@ 1010f71c     tier1:strtools.obj
 0003:00002720       ??_C@_03MEIELMMJ@?5MB?$AA@ 1010f720     tier1:strtools.obj
 0003:00002724       __real@447a0000            1010f724     tier1:strtools.obj
 0003:00002728       __real@44800000            1010f728     tier1:strtools.obj
 0003:0000272c       ??_C@_04OHGLKFFN@?$CF03d?$AA@ 1010f72c     tier1:strtools.obj
 0003:00002734       ??_C@_05CMAMCNEC@?$CF03d?0?$AA@ 1010f734     tier1:strtools.obj
 0003:0000273c       ??_C@_03DPLIHHLN@?$CFd?0?$AA@ 1010f73c     tier1:strtools.obj
 0003:00002740       ??_C@_01JOAMLHOP@?9?$AA@   1010f740     tier1:strtools.obj
 0003:00002744       ??_C@_0CA@HJJKNBLN@Assertion?5Failed?3?5numchars?5?$DO?$DN?52?$AA@ 1010f744     tier1:strtools.obj
 0003:0000276c       ??_C@_04NOJCDH@?$CF02x?$AA@ 1010f76c     tier1:strtools.obj
 0003:00002774       ??_C@_0BP@DFLGJOLD@Assertion?5Failed?3?5outsize?5?$DO?$DN?51?$AA@ 1010f774     tier1:strtools.obj
 0003:0000279c       ??_C@_0BG@BBOFEIFO@Assertion?5Failed?3?5out?$AA@ 1010f79c     tier1:strtools.obj
 0003:000027b8       ??_C@_0BF@BOJAAANG@Assertion?5Failed?3?5in?$AA@ 1010f7b8     tier1:strtools.obj
 0003:000027d4       ??_C@_0BO@NIFAKOJJ@Assertion?5Failed?3?5maxlen?5?$DO?$DN?51?$AA@ 1010f7d4     tier1:strtools.obj
 0003:000027f8       ??_C@_0BI@PPEEBBCN@Assertion?5Failed?3?5ppath?$AA@ 1010f7f8     tier1:strtools.obj
 0003:00002814       ??_C@_0CG@KMNFGA@Assertion?5Failed?3?5extension?$FL0?$FN?5?$DN@ 1010f814     tier1:strtools.obj
 0003:00002844       ??_C@_0BM@OPPGJABG@Assertion?5Failed?3?5extension?$AA@ 1010f844     tier1:strtools.obj
 0003:00002868       ??_C@_0CI@DNEFBDPL@Assertion?5Failed?3?5pathStringLeng@ 1010f868     tier1:strtools.obj
 0003:00002898       ??_C@_0BH@BMCNLIIP@Assertion?5Failed?3?5path?$AA@ 1010f898     tier1:strtools.obj
 0003:000028b4       ??_C@_03OOAAEEIB@?4?$CFc?$AA@ 1010f8b4     tier1:strtools.obj
 0003:000028b8       ??_C@_0BP@HOKGAJIC@Assertion?5Failed?3?5len?5?$DM?5maxlen?$AA@ 1010f8b8     tier1:strtools.obj
 0003:000028e0       ??_C@_02CEGDFPFP@?4?2?$AA@ 1010f8e0     tier1:strtools.obj
 0003:000028e4       ??_C@_02CAHBHFGK@?4?1?$AA@ 1010f8e4     tier1:strtools.obj
 0003:000028e8       ??_C@_0CA@KKEDHIAD@Assertion?5Failed?3?5destSize?5?$DO?$DN?51?$AA@ 1010f8e8     tier1:strtools.obj
 0003:00002910       ??_C@_0CH@DNILKGJA@V_AppendSlash?3?5ran?5out?5of?5space?5@ 1010f910     tier1:strtools.obj
 0003:00002940       ??_C@_0DB@FOILCOJM@V_MakeAbsolutePath?3?5tried?5to?5?$CC?4?4@ 1010f940     tier1:strtools.obj
 0003:0000297c       ??_C@_0CE@INIPJBEP@V_MakeAbsolutePath?3?5_getcwd?5fail@ 1010f97c     tier1:strtools.obj
 0003:000029a8       ??_C@_01JLIPDDHJ@?3?$AA@   1010f9a8     tier1:strtools.obj
 0003:000029ac       ??_C@_01GEODFPGF@?8?$AA@   1010f9ac     tier1:utlbuffer.obj
 0003:000029b0       ??_C@_01OGPIMHDM@?$DP?$AA@ 1010f9b0     tier1:utlbuffer.obj
 0003:000029b4       ??_C@_01KICIPPFI@?2?$AA@   1010f9b4     tier1:utlbuffer.obj
 0003:000029b8       ??_C@_01MCMALHOG@a?$AA@    1010f9b8     tier1:utlbuffer.obj
 0003:000029bc       ??_C@_01INIBCBCB@f?$AA@    1010f9bc     tier1:utlbuffer.obj
 0003:000029c0       ??_C@_01KDCPPGHE@r?$AA@    1010f9c0     tier1:utlbuffer.obj
 0003:000029c4       ??_C@_01OJONOECF@b?$AA@    1010f9c4     tier1:utlbuffer.obj
 0003:000029c8       ??_C@_01MHEDDDHA@v?$AA@    1010f9c8     tier1:utlbuffer.obj
 0003:000029cc       ??_C@_01PFHFFBPC@t?$AA@    1010f9cc     tier1:utlbuffer.obj
 0003:000029d0       ??_C@_01EFFIKLCJ@n?$AA@    1010f9d0     tier1:utlbuffer.obj
 0003:000029d8       ??_7CUtlCStringConversion@@6B@ 1010f9d8     tier1:utlbuffer.obj
 0003:000029e0       ??_C@_0DB@NDOEDMBK@Assertion?5Failed?3?5info?4m_pReplac@ 1010f9e0     tier1:utlbuffer.obj
 0003:00002a20       ??_C@_0ED@HEFKDFJP@d?3?2projects?2source?9engine?92007?2v@ 1010fa20     tier1:utlbuffer.obj
 0003:00002a74       ??_7CUtlCharConversion@@6B@ 1010fa74     tier1:utlbuffer.obj
 0003:00002a7c       ??_C@_0BN@LMGLNGDI@Assertion?5Failed?3?5nSize?5?$CB?$DN?50?$AA@ 1010fa7c     tier1:utlbuffer.obj
 0003:00002aa0       ??_C@_0CA@CLJFCHCL@Assertion?5Failed?3?5bContainsCRLF?$AA@ 1010faa0     tier1:utlbuffer.obj
 0003:00002ac8       ??_C@_0CB@NIKDBJJI@Assertion?5Failed?3?5ContainsCRLF?$CI?$CJ@ 1010fac8     tier1:utlbuffer.obj
 0003:00002af0       ??_C@_0DC@IPFHPIKM@Assertion?5Failed?3?5ContainsCRLF?$CI?$CJ@ 1010faf0     tier1:utlbuffer.obj
 0003:00002b2c       ??_C@_02HAOIJKIC@?$CFc?$AA@ 1010fb2c     tier1:utlbuffer.obj
 0003:00002b30       ??_C@_0BI@JNOMPPEK@Expected?5?$CFd?5but?5got?5?$CFd?$CB?$AA@ 1010fb30     tier1:utlbuffer.obj
 0003:00002b4c       ??_C@_0CO@EOHPOHJN@Assertion?5Failed?3?5IsText?$CI?$CJ?5?$CG?$CG?5?$CBC@ 1010fb4c     tier1:utlbuffer.obj
 0003:00002b84       ??_C@_0BH@NEEIOKKK@Assertion?5Failed?3?5pFmt?$AA@ 1010fb84     tier1:utlbuffer.obj
 0003:00002ba0       ??_C@_0BJ@JNPBHDJG@Assertion?5Failed?3?5pToken?$AA@ 1010fba0     tier1:utlbuffer.obj
 0003:00002bc0       ??_C@_0DC@HCDEIFDF@Assertion?5Failed?3?5pEndingDelim?5?$CG@ 1010fbc0     tier1:utlbuffer.obj
 0003:00002bfc       ??_C@_0BO@MMNCJPB@Assertion?5Failed?3?5nMaxLen?5?$DO?50?$AA@ 1010fbfc     tier1:utlbuffer.obj
 0003:00002c20       ??_C@_0BO@DGCACNEJ@Assertion?5Failed?3?5nLen?5?$DM?52048?$AA@ 1010fc20     tier1:utlbuffer.obj
 0003:00002c44       ??_C@_0DK@EENPKNJA@Assertion?5Failed?3?5nPut?5?$CL?5nPutDel@ 1010fc44     tier1:utlbuffer.obj
 0003:00002c8c       ??_C@_02PCIJFNDE@?$AN?6?$AA@ 1010fc8c     tier1:utlbuffer.obj
 0003:00002c90       ??_C@_0CL@HALMFHAC@Assertion?5Failed?3?5pszLine?$FL?5nLine@ 1010fc90     tier1:utlbuffer.obj
 0003:00002cc4       ??_C@_0CA@OMPODILJ@Assertion?5Failed?3?5nLineLen?5?$DO?$DN?51?$AA@ 1010fcc4     tier1:utlbuffer.obj
 0003:00002cf0       ??_7CUtlNoEscConversion@@6B@ 1010fcf0     tier1:utlbuffer.obj
 0003:00002cf8       ??_C@_04HLONOPDM@?4dll?$AA@ 1010fcf8     tier1:interface.obj
 0003:00002d00       ??_C@_0BM@OIEJAJOK@Module?5?$CFs?5is?5a?5debug?5build?6?$AA@ 1010fd00     tier1:interface.obj
 0003:00002d24       ??_C@_0L@EJCNAOMG@BuiltDebug?$AA@ 1010fd24     tier1:interface.obj
 0003:00002d34       ??_C@_0M@OJHILNKA@?9allowdebug?$AA@ 1010fd34     tier1:interface.obj
 0003:00002d44       ??_C@_09ILGMALND@?$CFs?1bin?1?$CFs?$AA@ 1010fd44     tier1:interface.obj
 0003:00002d50       ??_C@_05GFOLEBJA@?$CFs?1?$CFs?$AA@ 1010fd50     tier1:interface.obj
 0003:00002d58       ??_C@_04MMFEEKAB@bin?1?$AA@ 1010fd58     tier1:interface.obj
 0003:00002d60       ??_C@_08OHGIGCOP@?9basedir?$AA@ 1010fd60     tier1:interface.obj
 0003:00002d6c       ??_C@_0BA@OBHPCBFP@CreateInterface?$AA@ 1010fd6c     tier1:interface.obj
 0003:00002d84       ??_7CDllDemandLoader@@6B@  1010fd84     tier1:interface.obj
 0003:00002d90       ??_C@_0EE@NICLEKOC@d?3?2projects?2source?9engine?92007?2v@ 1010fd90     tier1:stringpool.obj
 0003:00002de8       ??_7CCountedStringPool@@6B@ 1010fde8     tier1:stringpool.obj
 0003:00002df0       ??_C@_0BL@GAOLCFOF@?6?$CFd?5total?5counted?5strings?4?$AA@ 1010fdf0     tier1:stringpool.obj
 0003:00002e10       ??_C@_0BF@DGGELFMM@String?5?$CFd?3?5ref?3?$CFd?5?$CFs?$AA@ 1010fe10     tier1:stringpool.obj
 0003:00002e2c       ??_C@_0BP@GEHMENEB@EMPTY?5?9?5ok?5for?5slot?5zero?5only?$CB?$AA@ 1010fe2c     tier1:stringpool.obj
 0003:00002e54       ??_C@_0CC@KLLDAHBF@Assertion?5Failed?3?5IsValidIndex?$CIi@ 1010fe54     tier1:stringpool.obj
 0003:00002e80       ??_C@_0GP@OPDLJGIM@Assertion?5Failed?3?5?$CIBase?$CI?$CJ?5?$DN?$DN?5NUL@ 1010fe80     tier1:stringpool.obj
 0003:00002f08       ??_C@_0BA@JMLJBDAI@test_stringpool?$AA@ 1010ff08     tier1:stringpool.obj
 0003:00002f1c       ??_C@_0BM@JCEHEHBG@Tests?5the?5class?5CStringPool?$AA@ 1010ff1c     tier1:stringpool.obj
 0003:00002f40       ??_C@_05MCNLNIAB@Pass?4?$AA@ 1010ff40     tier1:stringpool.obj
 0003:00002f48       ??_C@_0CM@LALNKFKK@Assertion?5Failed?3?5pool?4Find?$CI?$CCtes@ 1010ff48     tier1:stringpool.obj
 0003:00002f7c       ??_C@_0CN@JMNFNANA@Assertion?5Failed?3?5pool?4Find?$CI?$CCTes@ 1010ff7c     tier1:stringpool.obj
 0003:00002fb4       ??_C@_05EPPCHHAP@Test2?$AA@ 1010ffb4     tier1:stringpool.obj
 0003:00002fbc       ??_C@_0CM@FOFDHDOB@Assertion?5Failed?3?5pool?4Find?$CI?$CCTES@ 1010ffbc     tier1:stringpool.obj
 0003:00002ff0       ??_C@_04OIKJMBFP@TEST?$AA@ 1010fff0     tier1:stringpool.obj
 0003:00002ff8       ??_C@_0CN@ILOKKLKN@Assertion?5Failed?3?5pool?4Find?$CI?$CCtes@ 1010fff8     tier1:stringpool.obj
 0003:00003030       ??_C@_0CE@LKHLMBPH@Assertion?5Failed?3?5pool?4Count?$CI?$CJ?5?$DN@ 10110030     tier1:stringpool.obj
 0003:0000305c       ??_C@_05EIFOHCDJ@test2?$AA@ 1011005c     tier1:stringpool.obj
 0003:00003064       ??_C@_0CE@JBFGJCDE@Assertion?5Failed?3?5pool?4Count?$CI?$CJ?5?$DN@ 10110064     tier1:stringpool.obj
 0003:00003090       ??_C@_04CEJDCDCH@test?$AA@ 10110090     tier1:stringpool.obj
 0003:00003098       ??_C@_0CE@IIENKDHF@Assertion?5Failed?3?5pool?4Count?$CI?$CJ?5?$DN@ 10110098     tier1:stringpool.obj
 0003:000030c4       ??_C@_0CH@EGGLNLHA@Assertion?5Failed?3?5s_nDLLIdentifi@ 101100c4     tier1:convar.obj
 0003:000030f8       ??_C@_0EA@KKCKMDOE@d?3?2projects?2source?9engine?92007?2v@ 101100f8     tier1:convar.obj
 0003:00003144       ??_C@_0CI@ELJAFDEG@Assertion?5Failed?3?5s_nDLLIdentifi@ 10110144     tier1:convar.obj
 0003:00003178       ??_7ConCommandBase@@6B@    10110178     tier1:convar.obj
 0003:000031a8       ??_C@_0BI@EHAMPBHI@Assertion?5Failed?3?5pName?$AA@ 101101a8     tier1:convar.obj
 0003:000031c4       ??_C@_06PGALACC@?$HL?$HN?$CI?$CJ?8?3?$AA@ 101101c4     tier1:convar.obj
 0003:000031cc       ??_C@_0BM@JNBCLAJ@Assertion?5Failed?3?5nArgC?5?$DO?50?$AA@ 101101cc     tier1:convar.obj
 0003:000031f0       ??_C@_0DI@FJPBCFMK@Assertion?5Failed?3?5nArgvBufferSiz@ 101101f0     tier1:convar.obj
 0003:00003238       ??_C@_0FI@KPCNOHIM@CCommand?3?3Tokenize?3?5Encountered?5@ 10110238     tier1:convar.obj
 0003:000032a4       ??_C@_0DF@EKACCJMH@Assertion?5Failed?3?5bFoundEndQuote@ 101102a4     tier1:convar.obj
 0003:000032e4       ??_C@_0CE@PLJGCIK@Assertion?5Failed?3?5m_nArgv0Size?5?$CB@ 101102e4     tier1:convar.obj
 0003:00003310       ??_C@_0FK@JGFIGFJD@CCommand?3?3Tokenize?3?5Encountered?5@ 10110310     tier1:convar.obj
 0003:00003380       ??_7ConCommand@@6B@        10110380     tier1:convar.obj
 0003:000033c0       ??_C@_0CJ@JAPNJJLM@Assertion?5Failed?3?5m_fnCompletion@ 101103c0     tier1:convar.obj
 0003:000033f8       ??_7ConVar@@6BIConVar@@@   101103f8     tier1:convar.obj
 0003:00003414       ??_7ConVar@@6BConCommandBase@@@ 10110414     tier1:convar.obj
 0003:00003468       ??_7IConVar@@6B@           10110468     tier1:convar.obj
 0003:00003480       ??_C@_0DO@DCEGFBBA@Assertion?5Failed?3?5?$CBm_pParent?9?$DOm_@ 10110480     tier1:convar.obj
 0003:000034cc       ??_C@_0CE@JCNNPPDL@Assertion?5Failed?3?5m_pParent?5?$DN?$DN?5t@ 101104cc     tier1:convar.obj
 0003:000034f8       ??_C@_0DI@CCBCMDMP@Assertion?5Failed?3?5?$CB?$CI?5m_nFlags?5?$CG?5@ 101104f8     tier1:convar.obj
 0003:0000353c       ??_C@_0CG@IPOBABG@Assertion?5Failed?3?5?$CBm_fnChangeCal@ 1011053c     tier1:convar.obj
 0003:0000356c       ??_C@_0CE@HNFAHMDH@Assertion?5Failed?3?5m_pszDefaultVa@ 1011056c     tier1:convar.obj
 0003:00003598       ??_C@_0DC@FCCBDICF@ConVarRef?5?$CFs?5doesn?8t?5point?5to?5an@ 10110598     tier1:convar.obj
 0003:000035d4       ??_C@_0BH@KEAAJKCG@?5clientcmd_can_execute?$AA@ 101105d4     tier1:convar.obj
 0003:000035f0       ??_C@_0BE@CAKFLBJP@?5server_can_execute?$AA@ 101105f0     tier1:convar.obj
 0003:00003608       ??_C@_0M@OFLAAKND@?5replicated?$AA@ 10110608     tier1:convar.obj
 0003:00003618       ??_C@_06IELCECLB@?5cheat?$AA@ 10110618     tier1:convar.obj
 0003:00003620       ??_C@_0O@IJJBINOG@?5notconnected?$AA@ 10110620     tier1:convar.obj
 0003:00003630       ??_C@_0O@DAAOHKDF@?5singleplayer?$AA@ 10110630     tier1:convar.obj
 0003:00003640       ??_C@_07LJFLEDFM@?5notify?$AA@ 10110640     tier1:convar.obj
 0003:0000364c       ??_C@_08NFELHKCE@?5archive?$AA@ 1011064c     tier1:convar.obj
 0003:00003658       ??_C@_07DHADJDEM@?5client?$AA@ 10110658     tier1:convar.obj
 0003:00003664       ??_C@_05LJJMKHMA@?5game?$AA@ 10110664     tier1:convar.obj
 0003:0000366c       ??_C@_06OMGJEBHO@?5?9?5?$CFs?6?$AA@ 1011066c     tier1:convar.obj
 0003:00003674       ??_C@_05LFNECPGD@?$CC?$CFs?$CC?6?$AA@ 10110674     tier1:convar.obj
 0003:00003680       ??_C@_0FJ@DNJMBGDE@?$CK?$CK?5NOTE?3?5The?5real?5value?5is?5?$CF?43f?5@ 10110680     tier1:convar.obj
 0003:000036ec       __real@38d1b717            101106ec     tier1:convar.obj
 0003:000036f0       ??_C@_08MJLLGCBE@?5max?4?5?$CFf?$AA@ 101106f0     tier1:convar.obj
 0003:000036fc       ??_C@_08CPNLMNPF@?5min?4?5?$CFf?$AA@ 101106fc     tier1:convar.obj
 0003:00003708       ??_C@_0P@EPMAFFFB@?5?$CI?5def?4?5?$CC?$CFs?$CC?5?$CJ?$AA@ 10110708     tier1:convar.obj
 0003:0000371c       ??_C@_0M@NMBENLGP@?$CC?$CFs?$CC?5?$DN?5?$CC?$CFs?$CC?$AA@ 1011071c     tier1:convar.obj
 0003:00003730       __real@3eb0c6f7a0b5ed8d    10110730     tier1:convar.obj
 0003:0000373c       ??_C@_19HLOLFMLI@?$AAp?$AAV?$AAa?$AAr?$AA?$AA@ 1011073c     tier1:convar.obj
 0003:00003748       ??_C@_1IA@BMHDNNJ@?$AAd?$AA?3?$AA?2?$AAp?$AAr?$AAo?$AAj?$AAe?$AAc?$AAt?$AAs?$AA?2?$AAs?$AAo?$AAu?$AAr?$AAc?$AAe?$AA?9?$AAe?$AAn?$AAg?$AAi?$AAn?$AAe?$AA?9?$AA2?$AA0?$AA0?$AA7?$AA?2?$AAv@ 10110748     tier1:convar.obj
 0003:000037e4       ??_C@_0BG@FHJDLLKG@FCVAR_NEVER_AS_STRING?$AA@ 101107e4     tier1:convar.obj
 0003:00003804       ??_7CDefaultAccessor@@6B@  10110804     tier1:convar.obj
 0003:00003810       ??_7IConCommandBaseAccessor@@6B@ 10110810     tier1:convar.obj
 0003:0000381c       ??_7CEmptyConVar@@6BIConVar@@@ 1011081c     tier1:convar.obj
 0003:0000383c       ??_7CEmptyConVar@@6BConCommandBase@@@ 1011083c     tier1:convar.obj
 0003:0000388c       ??_C@_01GBGANLPD@0?$AA@    1011088c     tier1:convar.obj
 0003:00003890       ??_C@_0BB@MDCHKHHM@VProcessUtils001?$AA@ 10110890     tier1:tier1.obj
 0003:000038a4       ??_C@_0P@BMLDPPDB@VEngineCvar004?$AA@ 101108a4     tier1:tier1.obj
 0003:000038b8       ??_C@_0BL@GNODEFOD@Assertion?5Failed?3?5nLen?5?$DO?50?$AA@ 101108b8     tier1:utlstring.obj
 0003:000038d8       ??_C@_0ED@INPAIDKJ@d?3?2projects?2source?9engine?92007?2v@ 101108d8     tier1:utlstring.obj
 0003:00003928       ??_C@_0CJ@KDMMEAAC@Assertion?5Failed?3?5?$CBm_Memory?4IsRe@ 10110928     tier1:utlstring.obj
 0003:0000395c       ??_C@_0CK@MHFOILAJ@Assertion?5Failed?3?5?$CBm_Storage?4IsR@ 1011095c     tier1:utlstring.obj
 0003:00003990       ??_C@_0CF@LEDBPNGF@Assertion?5Failed?3?5sizeof?$CI?5rhs?5?$CJ?5@ 10110990     tier1:utlstring.obj
 0003:000039bc       ??_C@_03CCCGLAML@?$CFlg?$AA@ 101109bc     tier1:utlstring.obj
 0003:000039c4       ??_7type_info@@6B@         101109c4     LIBCMTD:typinfo.obj
 0003:000039d0       ??_C@_1FA@HILOOCMA@?$AA?$CI?$AA_?$AAt?$AAc?$AAs?$AAn?$AAl?$AAe?$AAn?$AA?$CI?$AAo?$AAp?$AAt?$AAi?$AAo?$AAn?$AA?0?$AA?5?$AA_?$AAM?$AAA?$AAX?$AA_?$AAE?$AAN?$AAV?$AA?$CJ?$AA?5?$AA?$DM?$AA?5?$AA_?$AAM@ 101109d0     LIBCMTD:getenv.obj
 0003:00003a30       ??_C@_1O@GMKGKCJO@?$AAg?$AAe?$AAt?$AAe?$AAn?$AAv?$AA?$AA@ 10110a30     LIBCMTD:getenv.obj
 0003:00003a40       ??_C@_1BC@CPAPBFCO@?$AAg?$AAe?$AAt?$AAe?$AAn?$AAv?$AA?4?$AAc?$AA?$AA@ 10110a40     LIBCMTD:getenv.obj
 0003:00003a58       ??_C@_1CC@FKAOHHLO@?$AA?$CI?$AAo?$AAp?$AAt?$AAi?$AAo?$AAn?$AA?5?$AA?$CB?$AA?$DN?$AA?5?$AAN?$AAU?$AAL?$AAL?$AA?$CJ?$AA?$AA@ 10110a58     LIBCMTD:getenv.obj
 0003:00003a80       ??_C@_1GI@JBIFPFJH@?$AA_?$AAt?$AAc?$AAs?$AAn?$AAl?$AAe?$AAn?$AA?$CI?$AA?$CK?$AAs?$AAe?$AAa?$AAr?$AAc?$AAh?$AA?5?$AA?$CL?$AA?5?$AAl?$AAe?$AAn?$AAg?$AAt?$AAh?$AA?5?$AA?$CL?$AA?5?$AA1?$AA?0?$AA?5?$AA_@ 10110a80     LIBCMTD:getenv.obj
 0003:00003b00       ??_C@_1EI@HHOBPCFK@?$AAs?$AAt?$AAr?$AAc?$AAp?$AAy?$AA_?$AAs?$AA?$CI?$AAb?$AAu?$AAf?$AAf?$AAe?$AAr?$AA?0?$AA?5?$AAs?$AAi?$AAz?$AAe?$AAI?$AAn?$AAT?$AAC?$AAh?$AAa?$AAr?$AAs?$AA?0?$AA?5?$AAs@ 10110b00     LIBCMTD:getenv.obj
 0003:00003b58       ??_C@_1JM@NLPGJJPH@?$AA?$CI?$AAb?$AAu?$AAf?$AAf?$AAe?$AAr?$AA?5?$AA?$CB?$AA?$DN?$AA?5?$AAN?$AAU?$AAL?$AAL?$AA?5?$AA?$CG?$AA?$CG?$AA?5?$AAs?$AAi?$AAz?$AAe?$AAI?$AAn?$AAT?$AAC?$AAh?$AAa?$AAr?$AAs?$AA?5@ 10110b58     LIBCMTD:getenv.obj
 0003:00003c14       ??_C@_1CC@BAJKDIIF@?$AA_?$AAg?$AAe?$AAt?$AAe?$AAn?$AAv?$AA_?$AAs?$AA_?$AAh?$AAe?$AAl?$AAp?$AAe?$AAr?$AA?$AA@ 10110c14     LIBCMTD:getenv.obj
 0003:00003c3c       ??_C@_1CK@PIKDAOCL@?$AAp?$AAR?$AAe?$AAt?$AAu?$AAr?$AAn?$AAV?$AAa?$AAl?$AAu?$AAe?$AA?5?$AA?$CB?$AA?$DN?$AA?5?$AAN?$AAU?$AAL?$AAL?$AA?$AA@ 10110c3c     LIBCMTD:getenv.obj
 0003:00003c70       ??_C@_1DM@GNKNEGJO@?$AAs?$AAt?$AAr?$AAc?$AAp?$AAy?$AA_?$AAs?$AA?$CI?$AA?$CK?$AAp?$AAB?$AAu?$AAf?$AAf?$AAe?$AAr?$AA?0?$AA?5?$AAs?$AAi?$AAz?$AAe?$AA?0?$AA?5?$AAs?$AAt?$AAr?$AA?$CJ?$AA?$AA@ 10110c70     LIBCMTD:getenv.obj
 0003:00003cb8       ??_C@_1CA@GDBKELOE@?$AAv?$AAa?$AAr?$AAn?$AAa?$AAm?$AAe?$AA?5?$AA?$CB?$AA?$DN?$AA?5?$AAN?$AAU?$AAL?$AAL?$AA?$AA@ 10110cb8     LIBCMTD:getenv.obj
 0003:00003ce0       ??_C@_1CC@KPLOPIEM@?$AA_?$AAd?$AAu?$AAp?$AAe?$AAn?$AAv?$AA_?$AAs?$AA_?$AAh?$AAe?$AAl?$AAp?$AAe?$AAr?$AA?$AA@ 10110ce0     LIBCMTD:getenv.obj
 0003:00003d08       ??_C@_1CA@FHNFMDOJ@?$AAp?$AAB?$AAu?$AAf?$AAf?$AAe?$AAr?$AA?5?$AA?$CB?$AA?$DN?$AA?5?$AAN?$AAU?$AAL?$AAL?$AA?$AA@ 10110d08     LIBCMTD:getenv.obj
 0003:00003d30       ??_C@_1O@EGMJNCOI@?$AAf?$AAc?$AAl?$AAo?$AAs?$AAe?$AA?$AA@ 10110d30     LIBCMTD:fclose.obj
 0003:00003d40       ??_C@_1BC@MHEDMIA@?$AAf?$AAc?$AAl?$AAo?$AAs?$AAe?$AA?4?$AAc?$AA?$AA@ 10110d40     LIBCMTD:fclose.obj
 0003:00003d58       ??_C@_1CC@FADMNIL@?$AA?$CI?$AAs?$AAt?$AAr?$AAe?$AAa?$AAm?$AA?5?$AA?$CB?$AA?$DN?$AA?5?$AAN?$AAU?$AAL?$AAL?$AA?$CJ?$AA?$AA@ 10110d58     LIBCMTD:fclose.obj
 0003:00003d80       ??_C@_1BO@JINCABEC@?$AA_?$AAf?$AAc?$AAl?$AAo?$AAs?$AAe?$AA_?$AAn?$AAo?$AAl?$AAo?$AAc?$AAk?$AA?$AA@ 10110d80     LIBCMTD:fclose.obj
 0003:00003da4       ??_C@_1BM@JMKHIAHP@?$AA?$CI?$AAs?$AAt?$AAr?$AA?5?$AA?$CB?$AA?$DN?$AA?5?$AAN?$AAU?$AAL?$AAL?$AA?$CJ?$AA?$AA@ 10110da4     LIBCMTD:fclose.obj
 0003:00003dc8       ??_C@_1EE@KGELKDPM@?$AAc?$AAo?$AAu?$AAn?$AAt?$AA?5?$AA?$DM?$AA?$DN?$AA?5?$AA?$CI?$AAS?$AAI?$AAZ?$AAE?$AA_?$AAM?$AAA?$AAX?$AA?5?$AA?1?$AA?5?$AAe?$AAl?$AAe?$AAm?$AAe?$AAn?$AAt?$AAS?$AAi?$AAz?$AAe@ 10110dc8     LIBCMTD:fread.obj
 0003:00003e1c       ??_C@_1BA@CMLCEIGG@?$AAf?$AAr?$AAe?$AAa?$AAd?$AA_?$AAs?$AA?$AA@ 10110e1c     LIBCMTD:fread.obj
 0003:00003e30       ??_C@_1BA@LMNFMBJN@?$AAf?$AAr?$AAe?$AAa?$AAd?$AA?4?$AAc?$AA?$AA@ 10110e30     LIBCMTD:fread.obj
 0003:00003e44       ??_C@_1CC@CGFEEBMC@?$AA?$CI?$AAb?$AAu?$AAf?$AAf?$AAe?$AAr?$AA?5?$AA?$CB?$AA?$DN?$AA?5?$AAN?$AAU?$AAL?$AAL?$AA?$CJ?$AA?$AA@ 10110e44     LIBCMTD:fread.obj
 0003:00003e6c       ??_C@_1CA@IDPOGFL@?$AA_?$AAf?$AAr?$AAe?$AAa?$AAd?$AA_?$AAn?$AAo?$AAl?$AAo?$AAc?$AAk?$AA_?$AAs?$AA?$AA@ 10110e6c     LIBCMTD:fread.obj
 0003:00003e94       ??_C@_1DA@DKEFLDMG@?$AA?$CI?$AA?$CC?$AAb?$AAu?$AAf?$AAf?$AAe?$AAr?$AA?5?$AAt?$AAo?$AAo?$AA?5?$AAs?$AAm?$AAa?$AAl?$AAl?$AA?$CC?$AA?0?$AA?5?$AA0?$AA?$CJ?$AA?$AA@ 10110e94     LIBCMTD:fread.obj
 0003:00003ed0       ??_C@_1LG@DCNDJCHK@?$AA?$CI?$AA?$CC?$AAI?$AAn?$AAc?$AAo?$AAn?$AAs?$AAi?$AAs?$AAt?$AAe?$AAn?$AAt?$AA?5?$AAS?$AAt?$AAr?$AAe?$AAa?$AAm?$AA?5?$AAC?$AAo?$AAu?$AAn?$AAt?$AA?4?$AA?5?$AAF?$AAl?$AAu@ 10110ed0     LIBCMTD:fread.obj
 0003:00003fac       ??_C@_1CI@HBNALCBB@?$AA?$CI?$AA?$CK?$AAm?$AAo?$AAd?$AAe?$AA?5?$AA?$CB?$AA?$DN?$AA?5?$AA_?$AAT?$AA?$CI?$AA?8?$AA?2?$AA0?$AA?8?$AA?$CJ?$AA?$CJ?$AA?$AA@ 10110fac     LIBCMTD:fopen.obj
 0003:00003fdc       ??_C@_1BO@MJMKAKCJ@?$AA?$CI?$AAm?$AAo?$AAd?$AAe?$AA?5?$AA?$CB?$AA?$DN?$AA?5?$AAN?$AAU?$AAL?$AAL?$AA?$CJ?$AA?$AA@ 10110fdc     LIBCMTD:fopen.obj
 0003:00004000       ??_C@_1BA@HNEAFMNL@?$AA_?$AAf?$AAs?$AAo?$AAp?$AAe?$AAn?$AA?$AA@ 10111000     LIBCMTD:fopen.obj
 0003:00004014       ??_C@_1BA@GBANKLPE@?$AAf?$AAo?$AAp?$AAe?$AAn?$AA?4?$AAc?$AA?$AA@ 10111014     LIBCMTD:fopen.obj
 0003:00004028       ??_C@_1BO@CLGIAEOJ@?$AA?$CI?$AAf?$AAi?$AAl?$AAe?$AA?5?$AA?$CB?$AA?$DN?$AA?5?$AAN?$AAU?$AAL?$AAL?$AA?$CJ?$AA?$AA@ 10111028     LIBCMTD:fopen.obj
 0003:0000404c       ??_C@_1BA@PBGKCCAP@?$AAf?$AAo?$AAp?$AAe?$AAn?$AA_?$AAs?$AA?$AA@ 1011104c     LIBCMTD:fopen.obj
 0003:00004060       ??_C@_1CA@LLJLFCDN@?$AA?$CI?$AAp?$AAf?$AAi?$AAl?$AAe?$AA?5?$AA?$CB?$AA?$DN?$AA?5?$AAN?$AAU?$AAL?$AAL?$AA?$CJ?$AA?$AA@ 10111060     LIBCMTD:fopen.obj
 0003:00004088       ??_C@_03LLEJOLGL@?4?1?2?$AA@ 10111088     LIBCMTD:stati32.obj
 0003:0000408c       ??_C@_02EAOCEIGI@?$DP?$CK?$AA@ 1011108c     LIBCMTD:stati32.obj
 0003:00004090       ??_C@_1BM@KFJLMBPG@?$AA?$CI?$AAb?$AAu?$AAf?$AA?5?$AA?$CB?$AA?$DN?$AA?5?$AAN?$AAU?$AAL?$AAL?$AA?$CJ?$AA?$AA@ 10111090     LIBCMTD:stati32.obj
 0003:000040b4       ??_C@_1BG@KDNAAFDC@?$AA_?$AAs?$AAt?$AAa?$AAt?$AA6?$AA4?$AAi?$AA3?$AA2?$AA?$AA@ 101110b4     LIBCMTD:stati32.obj
 0003:000040d0       ??_C@_1GC@GKLFFKCP@?$AAf?$AA?3?$AA?2?$AAr?$AAt?$AAm?$AA?2?$AAv?$AAc?$AAt?$AAo?$AAo?$AAl?$AAs?$AA?2?$AAc?$AAr?$AAt?$AA_?$AAb?$AAl?$AAd?$AA?2?$AAs?$AAe?$AAl?$AAf?$AA_?$AAx?$AA8?$AA6?$AA?2@ 101110d0     LIBCMTD:stati32.obj
 0003:00004148       ??_C@_1BO@PCMLKEJK@?$AA?$CI?$AAn?$AAa?$AAm?$AAe?$AA?5?$AA?$CB?$AA?$DN?$AA?5?$AAN?$AAU?$AAL?$AAL?$AA?$CJ?$AA?$AA@ 10111148     LIBCMTD:stati32.obj
 0003:0000416c       ??_C@_1CM@DCGCAFIP@?$AA?$CI?$AA?$CI?$AAa?$AAm?$AAo?$AAd?$AAe?$AA?5?$AA?$CG?$AA?5?$AA?$CI?$AA?$HO?$AA6?$AA?$CJ?$AA?$CJ?$AA?5?$AA?$DN?$AA?$DN?$AA?5?$AA0?$AA?$CJ?$AA?$AA@ 1011116c     LIBCMTD:access.obj
 0003:000041a0       ??_C@_1BE@LKCFPEPG@?$AA_?$AAa?$AAc?$AAc?$AAe?$AAs?$AAs?$AA_?$AAs?$AA?$AA@ 101111a0     LIBCMTD:access.obj
 0003:000041b8       ??_C@_1BC@OLCNFCNP@?$AAa?$AAc?$AAc?$AAe?$AAs?$AAs?$AA?4?$AAc?$AA?$AA@ 101111b8     LIBCMTD:access.obj
 0003:000041d0       ??_C@_1BO@DPAOGEII@?$AA?$CI?$AAp?$AAa?$AAt?$AAh?$AA?5?$AA?$CB?$AA?$DN?$AA?5?$AAN?$AAU?$AAL?$AAL?$AA?$CJ?$AA?$AA@ 101111d0     LIBCMTD:access.obj
 0003:000041f8       ??_C@_1BAE@CBLKKPB@?$AA?$CI?$AA?5?$AA?$CI?$AA_?$AAS?$AAt?$AAr?$AAe?$AAa?$AAm?$AA?9?$AA?$DO?$AA_?$AAf?$AAl?$AAa?$AAg?$AA?5?$AA?$CG?$AA?5?$AA_?$AAI?$AAO?$AAS?$AAT?$AAR?$AAG?$AA?$CJ?$AA?5?$AA?$HM?$AA?$HM?$AA?5@ 101111f8     LIBCMTD:fprintf.obj
 0003:00004330       ??_C@_1CC@MGIEJOME@?$AA?$CI?$AAf?$AAo?$AAr?$AAm?$AAa?$AAt?$AA?5?$AA?$CB?$AA?$DN?$AA?5?$AAN?$AAU?$AAL?$AAL?$AA?$CJ?$AA?$AA@ 10111330     LIBCMTD:fprintf.obj
 0003:00004358       ??_C@_1BA@DNOHIGNM@?$AAf?$AAp?$AAr?$AAi?$AAn?$AAt?$AAf?$AA?$AA@ 10111358     LIBCMTD:fprintf.obj
 0003:0000436c       ??_C@_1BE@NEFIHEIC@?$AAf?$AAp?$AAr?$AAi?$AAn?$AAt?$AAf?$AA?4?$AAc?$AA?$AA@ 1011136c     LIBCMTD:fprintf.obj
 0003:00004384       __FPinit                   10111384     LIBCMTD:fpinit.obj
 0003:00004388       __FPmtinit                 10111388     LIBCMTD:fpinit.obj
 0003:0000438c       __FPmtterm                 1011138c     LIBCMTD:fpinit.obj
 0003:00004394       ??_C@_08GNMOIKDK@onexit?4c?$AA@ 10111394     LIBCMTD:onexit.obj
 0003:000043a0       ??_C@_1EC@FABAOFFO@?$AA?$CI?$AAc?$AAo?$AAu?$AAn?$AAt?$AA?5?$AA?$DN?$AA?$DN?$AA?5?$AA0?$AA?$CJ?$AA?5?$AA?$HM?$AA?$HM?$AA?5?$AA?$CI?$AAs?$AAt?$AAr?$AAi?$AAn?$AAg?$AA?5?$AA?$CB?$AA?$DN?$AA?5?$AAN?$AAU?$AAL?$AAL?$AA?$CJ@ 101113a0     LIBCMTD:vsnprint.obj
 0003:000043f0       ??_C@_1BK@FHMHFMNL@?$AA_?$AAv?$AAs?$AAn?$AAp?$AAr?$AAi?$AAn?$AAt?$AAf?$AA_?$AAl?$AA?$AA@ 101113f0     LIBCMTD:vsnprint.obj
 0003:00004410       ??_C@_1GG@MADCPNLD@?$AAf?$AA?3?$AA?2?$AAr?$AAt?$AAm?$AA?2?$AAv?$AAc?$AAt?$AAo?$AAo?$AAl?$AAs?$AA?2?$AAc?$AAr?$AAt?$AA_?$AAb?$AAl?$AAd?$AA?2?$AAs?$AAe?$AAl?$AAf?$AA_?$AAx?$AA8?$AA6?$AA?2@ 10111410     LIBCMTD:vsnprint.obj
 0003:0000448c       ??_C@_15IABLJNFO@?$AA?6?$AA?6?$AA?$AA@ 1011148c     LIBCMTD:wassert.obj
 0003:00004494       ??_C@_13LBAGMAIH@?$AA?6?$AA?$AA@ 10111494     LIBCMTD:wassert.obj
 0003:00004498       ??_C@_17LGKOMLJ@?$AA?4?$AA?4?$AA?4?$AA?$AA@ 10111498     LIBCMTD:wassert.obj
 0003:000044a8       ??_C@_1EK@MBDPDCGA@?$AAM?$AAi?$AAc?$AAr?$AAo?$AAs?$AAo?$AAf?$AAt?$AA?5?$AAV?$AAi?$AAs?$AAu?$AAa?$AAl?$AA?5?$AAC?$AA?$CL?$AA?$CL?$AA?5?$AAR?$AAu?$AAn?$AAt?$AAi?$AAm?$AAe?$AA?5?$AAL?$AAi?$AAb@ 101114a8     LIBCMTD:wassert.obj
 0003:00004500       ??_C@_1HK@POCJMFGK@?$AA?$CI?$AAP?$AAr?$AAe?$AAs?$AAs?$AA?5?$AAR?$AAe?$AAt?$AAr?$AAy?$AA?5?$AAt?$AAo?$AA?5?$AAd?$AAe?$AAb?$AAu?$AAg?$AA?5?$AAt?$AAh?$AAe?$AA?5?$AAa?$AAp?$AAp?$AAl?$AAi?$AAc@ 10111500     LIBCMTD:wassert.obj
 0003:00004598       ??_C@_1LO@HBAMOOPN@?$AAw?$AAc?$AAs?$AAc?$AAa?$AAt?$AA_?$AAs?$AA?$CI?$AAa?$AAs?$AAs?$AAe?$AAr?$AAt?$AAb?$AAu?$AAf?$AA?0?$AA?5?$AA?$CI?$AA6?$AA0?$AA?5?$AA?$CK?$AA?5?$AA9?$AA?$CJ?$AA?0?$AA?5?$AAL?$AA?$CC@ 10111598     LIBCMTD:wassert.obj
 0003:00004680       ??_C@_1FG@GMPCGFKH@?$AAw?$AAc?$AAs?$AAc?$AAa?$AAt?$AA_?$AAs?$AA?$CI?$AAa?$AAs?$AAs?$AAe?$AAr?$AAt?$AAb?$AAu?$AAf?$AA?0?$AA?5?$AA?$CI?$AA6?$AA0?$AA?5?$AA?$CK?$AA?5?$AA9?$AA?$CJ?$AA?0?$AA?5?$AAd?$AAb@ 10111680     LIBCMTD:wassert.obj
 0003:000046e8       ??_C@_1OA@EGMLFBHJ@?$AAF?$AAo?$AAr?$AA?5?$AAi?$AAn?$AAf?$AAo?$AAr?$AAm?$AAa?$AAt?$AAi?$AAo?$AAn?$AA?5?$AAo?$AAn?$AA?5?$AAh?$AAo?$AAw?$AA?5?$AAy?$AAo?$AAu?$AAr?$AA?5?$AAp?$AAr?$AAo?$AAg@ 101116e8     LIBCMTD:wassert.obj
 0003:000047f8       ??_C@_1BCO@FMFFDPPF@?$AAw?$AAc?$AAs?$AAc?$AAa?$AAt?$AA_?$AAs?$AA?$CI?$AAa?$AAs?$AAs?$AAe?$AAr?$AAt?$AAb?$AAu?$AAf?$AA?0?$AA?5?$AA?$CI?$AA6?$AA0?$AA?5?$AA?$CK?$AA?5?$AA9?$AA?$CJ?$AA?0?$AA?5?$AAL?$AA?$CC@ 101117f8     LIBCMTD:wassert.obj
 0003:00004968       ??_C@_1EM@MBEKCGIC@?$AAw?$AAc?$AAs?$AAc?$AAa?$AAt?$AA_?$AAs?$AA?$CI?$AA?5?$AAa?$AAs?$AAs?$AAe?$AAr?$AAt?$AAb?$AAu?$AAf?$AA?0?$AA?5?$AA?$CI?$AA6?$AA0?$AA?5?$AA?$CK?$AA?5?$AA9?$AA?$CJ?$AA?0?$AA?5?$AAe@ 10111968     LIBCMTD:wassert.obj
 0003:000049c8       ??_C@_1CHM@CEIMNDLH@?$AAw?$AAc?$AAs?$AAn?$AAc?$AAa?$AAt?$AA_?$AAs?$AA?$CI?$AA?5?$AAa?$AAs?$AAs?$AAe?$AAr?$AAt?$AAb?$AAu?$AAf?$AA?0?$AA?5?$AA?$CI?$AA6?$AA0?$AA?5?$AA?$CK?$AA?5?$AA9?$AA?$CJ?$AA?0?$AA?5@ 101119c8     LIBCMTD:wassert.obj
 0003:00004cc4       ??_C@_1BK@PEDCIPMA@?$AAE?$AAx?$AAp?$AAr?$AAe?$AAs?$AAs?$AAi?$AAo?$AAn?$AA?3?$AA?5?$AA?$AA@ 10111cc4     LIBCMTD:wassert.obj
 0003:00004ce8       ??_C@_1GC@HOBBPFHJ@?$AAw?$AAc?$AAs?$AAc?$AAa?$AAt?$AA_?$AAs?$AA?$CI?$AA?5?$AAa?$AAs?$AAs?$AAe?$AAr?$AAt?$AAb?$AAu?$AAf?$AA?0?$AA?5?$AA?$CI?$AA6?$AA0?$AA?5?$AA?$CK?$AA?5?$AA9?$AA?$CJ?$AA?0?$AA?5?$AAL@ 10111ce8     LIBCMTD:wassert.obj
 0003:00004d60       ??_C@_1KG@CFEIMPNH@?$AA_?$AAi?$AAt?$AAo?$AAw?$AA_?$AAs?$AA?$CI?$AA?5?$AAl?$AAi?$AAn?$AAe?$AAn?$AAo?$AA?0?$AA?5?$AAa?$AAs?$AAs?$AAe?$AAr?$AAt?$AAb?$AAu?$AAf?$AA?5?$AA?$CL?$AA?5?$AAw?$AAc?$AAs@ 10111d60     LIBCMTD:wassert.obj
 0003:00004e28       ??_C@_1O@KCAFKHJE@?$AAL?$AAi?$AAn?$AAe?$AA?3?$AA?5?$AA?$AA@ 10111e28     LIBCMTD:wassert.obj
 0003:00004e38       ??_C@_1FG@NHDGJLMI@?$AAw?$AAc?$AAs?$AAc?$AAa?$AAt?$AA_?$AAs?$AA?$CI?$AA?5?$AAa?$AAs?$AAs?$AAe?$AAr?$AAt?$AAb?$AAu?$AAf?$AA?0?$AA?5?$AA?$CI?$AA6?$AA0?$AA?5?$AA?$CK?$AA?5?$AA9?$AA?$CJ?$AA?0?$AA?5?$AAL@ 10111e38     LIBCMTD:wassert.obj
 0003:00004ea0       ??_C@_1FE@IIFBBPFI@?$AAw?$AAc?$AAs?$AAc?$AAa?$AAt?$AA_?$AAs?$AA?$CI?$AA?5?$AAa?$AAs?$AAs?$AAe?$AAr?$AAt?$AAb?$AAu?$AAf?$AA?0?$AA?5?$AA?$CI?$AA6?$AA0?$AA?5?$AA?$CK?$AA?5?$AA9?$AA?$CJ?$AA?0?$AA?5?$AAf@ 10111ea0     LIBCMTD:wassert.obj
 0003:00004f08       ??_C@_1IC@CFFJBMAD@?$AAw?$AAc?$AAs?$AAc?$AAa?$AAt?$AA_?$AAs?$AA?$CI?$AA?5?$AAa?$AAs?$AAs?$AAe?$AAr?$AAt?$AAb?$AAu?$AAf?$AA?0?$AA?5?$AA?$CI?$AA6?$AA0?$AA?5?$AA?$CK?$AA?5?$AA9?$AA?$CJ?$AA?0?$AA?5?$AAp@ 10111f08     LIBCMTD:wassert.obj
 0003:00004fa8       ??_C@_1HG@OJJMBIKO@?$AAw?$AAc?$AAs?$AAn?$AAc?$AAa?$AAt?$AA_?$AAs?$AA?$CI?$AA?5?$AAa?$AAs?$AAs?$AAe?$AAr?$AAt?$AAb?$AAu?$AAf?$AA?0?$AA?5?$AA?$CI?$AA6?$AA0?$AA?5?$AA?$CK?$AA?5?$AA9?$AA?$CJ?$AA?0?$AA?5@ 10111fa8     LIBCMTD:wassert.obj
 0003:00005038       ??_C@_1GO@BIHLMMND@?$AAw?$AAc?$AAs?$AAn?$AAc?$AAa?$AAt?$AA_?$AAs?$AA?$CI?$AA?5?$AAa?$AAs?$AAs?$AAe?$AAr?$AAt?$AAb?$AAu?$AAf?$AA?0?$AA?5?$AA?$CI?$AA6?$AA0?$AA?5?$AA?$CK?$AA?5?$AA9?$AA?$CJ?$AA?0?$AA?5@ 10112038     LIBCMTD:wassert.obj
 0003:000050c0       ??_C@_1FO@IJLLDBEB@?$AAw?$AAc?$AAs?$AAc?$AAa?$AAt?$AA_?$AAs?$AA?$CI?$AA?5?$AAa?$AAs?$AAs?$AAe?$AAr?$AAt?$AAb?$AAu?$AAf?$AA?0?$AA?5?$AA?$CI?$AA6?$AA0?$AA?5?$AA?$CK?$AA?5?$AA9?$AA?$CJ?$AA?0?$AA?5?$AAp@ 101120c0     LIBCMTD:wassert.obj
 0003:00005130       ??_C@_1FG@CLEECKIJ@?$AAw?$AAc?$AAs?$AAc?$AAa?$AAt?$AA_?$AAs?$AA?$CI?$AA?5?$AAa?$AAs?$AAs?$AAe?$AAr?$AAt?$AAb?$AAu?$AAf?$AA?0?$AA?5?$AA?$CI?$AA6?$AA0?$AA?5?$AA?$CK?$AA?5?$AA9?$AA?$CJ?$AA?0?$AA?5?$AAd@ 10112130     LIBCMTD:wassert.obj
 0003:00005198       ??_C@_1GG@PMHOPJKA@?$AAw?$AAc?$AAs?$AAn?$AAc?$AAa?$AAt?$AA_?$AAs?$AA?$CI?$AA?5?$AAa?$AAs?$AAs?$AAe?$AAr?$AAt?$AAb?$AAu?$AAf?$AA?0?$AA?5?$AA?$CI?$AA6?$AA0?$AA?5?$AA?$CK?$AA?5?$AA9?$AA?$CJ?$AA?0?$AA?5@ 10112198     LIBCMTD:wassert.obj
 0003:00005214       ??_C@_1O@HEMHKNDC@?$AAF?$AAi?$AAl?$AAe?$AA?3?$AA?5?$AA?$AA@ 10112214     LIBCMTD:wassert.obj
 0003:00005228       ??_C@_1FG@HIDBOJF@?$AAw?$AAc?$AAs?$AAc?$AAa?$AAt?$AA_?$AAs?$AA?$CI?$AA?5?$AAa?$AAs?$AAs?$AAe?$AAr?$AAt?$AAb?$AAu?$AAf?$AA?0?$AA?5?$AA?$CI?$AA6?$AA0?$AA?5?$AA?$CK?$AA?5?$AA9?$AA?$CJ?$AA?0?$AA?5?$AAL@ 10112228     LIBCMTD:wassert.obj
 0003:00005290       ??_C@_1FC@FFKGGIKO@?$AAw?$AAc?$AAs?$AAc?$AAa?$AAt?$AA_?$AAs?$AA?$CI?$AA?5?$AAa?$AAs?$AAs?$AAe?$AAr?$AAt?$AAb?$AAu?$AAf?$AA?0?$AA?5?$AA?$CI?$AA6?$AA0?$AA?5?$AA?$CK?$AA?5?$AA9?$AA?$CJ?$AA?0?$AA?5?$AAn@ 10112290     LIBCMTD:wassert.obj
 0003:000052f8       ??_C@_1EK@BDNABPEK@?$AAw?$AAc?$AAs?$AAc?$AAa?$AAt?$AA_?$AAs?$AA?$CI?$AA?5?$AAa?$AAs?$AAs?$AAe?$AAr?$AAt?$AAb?$AAu?$AAf?$AA?0?$AA?5?$AA?$CI?$AA6?$AA0?$AA?5?$AA?$CK?$AA?5?$AA9?$AA?$CJ?$AA?0?$AA?5?$AAp@ 101122f8     LIBCMTD:wassert.obj
 0003:00005350       ??_C@_1HK@JKBDGMGN@?$AAw?$AAc?$AAs?$AAn?$AAc?$AAp?$AAy?$AA_?$AAs?$AA?$CI?$AA?5?$AAp?$AAc?$AAh?$AA?0?$AA?5?$AA?$CI?$AA2?$AA6?$AA0?$AA?5?$AA?$CL?$AA?5?$AA1?$AA?$CJ?$AA?5?$AA?9?$AA?5?$AA?$CI?$AAp?$AAc?$AAh@ 10112350     LIBCMTD:wassert.obj
 0003:000053e4       ??_C@_1CO@EAEJAADC@?$AA?$DM?$AAp?$AAr?$AAo?$AAg?$AAr?$AAa?$AAm?$AA?5?$AAn?$AAa?$AAm?$AAe?$AA?5?$AAu?$AAn?$AAk?$AAn?$AAo?$AAw?$AAn?$AA?$DO?$AA?$AA@ 101123e4     LIBCMTD:wassert.obj
 0003:00005420       ??_C@_1HA@EPFCONEE@?$AAw?$AAc?$AAs?$AAc?$AAp?$AAy?$AA_?$AAs?$AA?$CI?$AA?5?$AAp?$AAr?$AAo?$AAg?$AAn?$AAa?$AAm?$AAe?$AA?0?$AA?5?$AA2?$AA6?$AA0?$AA?5?$AA?$CL?$AA?5?$AA1?$AA?0?$AA?5?$AAL?$AA?$CC?$AA?$DM@ 10112420     LIBCMTD:wassert.obj
 0003:000054a8       ??_C@_1BE@PHKBBGE@?$AAP?$AAr?$AAo?$AAg?$AAr?$AAa?$AAm?$AA?3?$AA?5?$AA?$AA@ 101124a8     LIBCMTD:wassert.obj
 0003:000054c0       ??_C@_1FM@LKICECBD@?$AAw?$AAc?$AAs?$AAc?$AAa?$AAt?$AA_?$AAs?$AA?$CI?$AA?5?$AAa?$AAs?$AAs?$AAe?$AAr?$AAt?$AAb?$AAu?$AAf?$AA?0?$AA?5?$AA?$CI?$AA6?$AA0?$AA?5?$AA?$CK?$AA?5?$AA9?$AA?$CJ?$AA?0?$AA?5?$AAL@ 101124c0     LIBCMTD:wassert.obj
 0003:00005530       ??_C@_1FI@JIGMFG@?$AAw?$AAc?$AAs?$AAc?$AAa?$AAt?$AA_?$AAs?$AA?$CI?$AA?5?$AAa?$AAs?$AAs?$AAe?$AAr?$AAt?$AAb?$AAu?$AAf?$AA?0?$AA?5?$AA?$CI?$AA6?$AA0?$AA?5?$AA?$CK?$AA?5?$AA9?$AA?$CJ?$AA?0?$AA?5?$AAd@ 10112530     LIBCMTD:wassert.obj
 0003:0000559c       ??_C@_1CE@OJBNHDMO@?$AAA?$AAs?$AAs?$AAe?$AAr?$AAt?$AAi?$AAo?$AAn?$AA?5?$AAf?$AAa?$AAi?$AAl?$AAe?$AAd?$AA?$CB?$AA?$AA@ 1011259c     LIBCMTD:wassert.obj
 0003:000055c8       ??_C@_1GM@EFCJNBAA@?$AAw?$AAc?$AAs?$AAc?$AAp?$AAy?$AA_?$AAs?$AA?$CI?$AA?5?$AAa?$AAs?$AAs?$AAe?$AAr?$AAt?$AAb?$AAu?$AAf?$AA?0?$AA?5?$AA?$CI?$AA6?$AA0?$AA?5?$AA?$CK?$AA?5?$AA9?$AA?$CJ?$AA?0?$AA?5?$AAL@ 101125c8     LIBCMTD:wassert.obj
 0003:0000564c       ??_C@_0CG@KNFFOMBO@Filename?5cannot?5be?5displayed?5on?5@ 1011264c     LIBCMTD:wassert.obj
 0003:00005680       ??_C@_1IG@IGPDOJOE@?$AAs?$AAt?$AAr?$AAc?$AAp?$AAy?$AA_?$AAs?$AA?$CI?$AAa?$AAe?$AAx?$AAp?$AAr?$AA?0?$AA?5?$AA?$CI?$AA6?$AA0?$AA?5?$AA?$CK?$AA?5?$AA9?$AA?$CJ?$AA?0?$AA?5?$AA?$CC?$AAF?$AAi?$AAl?$AAe?$AAn@ 10112680     LIBCMTD:wassert.obj
 0003:00005720       ??_C@_1EK@EDAIPDBP@?$AAs?$AAt?$AAr?$AAc?$AAa?$AAt?$AA_?$AAs?$AA?$CI?$AAa?$AAf?$AAi?$AAl?$AAe?$AAn?$AAa?$AAm?$AAe?$AA?0?$AA?5?$AA?$CI?$AA6?$AA0?$AA?5?$AA?$CK?$AA?5?$AA9?$AA?$CJ?$AA?0?$AA?5?$AA?$CC?$AA?4@ 10112720     LIBCMTD:wassert.obj
 0003:00005778       ??_C@_1IK@MDEEAGJC@?$AAw?$AAc?$AAs?$AAt?$AAo?$AAm?$AAb?$AAs?$AA_?$AAs?$AA?$CI?$AA?$CI?$AA?$CI?$AAv?$AAo?$AAi?$AAd?$AA?5?$AA?$CK?$AA?$CJ?$AA0?$AA?$CJ?$AA?0?$AA?5?$AAa?$AAf?$AAi?$AAl?$AAe?$AAn?$AAa?$AAm@ 10112778     LIBCMTD:wassert.obj
 0003:00005820       ??_C@_0CI@FDIHEIE@Expression?5cannot?5be?5displayed?5o@ 10112820     LIBCMTD:wassert.obj
 0003:00005850       ??_C@_1IK@ONGNJJEH@?$AAs?$AAt?$AAr?$AAc?$AAp?$AAy?$AA_?$AAs?$AA?$CI?$AAa?$AAe?$AAx?$AAp?$AAr?$AA?0?$AA?5?$AA?$CI?$AA6?$AA0?$AA?5?$AA?$CK?$AA?5?$AA9?$AA?$CJ?$AA?0?$AA?5?$AA?$CC?$AAE?$AAx?$AAp?$AAr?$AAe@ 10112850     LIBCMTD:wassert.obj
 0003:000058f8       ??_C@_03KHICJKCI@?4?4?4?$AA@ 101128f8     LIBCMTD:wassert.obj
 0003:00005900       ??_C@_1EC@IFDALDOK@?$AAs?$AAt?$AAr?$AAc?$AAa?$AAt?$AA_?$AAs?$AA?$CI?$AAa?$AAe?$AAx?$AAp?$AAr?$AA?0?$AA?5?$AA?$CI?$AA6?$AA0?$AA?5?$AA?$CK?$AA?5?$AA9?$AA?$CJ?$AA?0?$AA?5?$AA?$CC?$AA?4?$AA?4?$AA?4?$AA?$CC?$AA?$CJ@ 10112900     LIBCMTD:wassert.obj
 0003:00005950       ??_C@_1HK@ENOPLEGF@?$AAw?$AAc?$AAs?$AAt?$AAo?$AAm?$AAb?$AAs?$AA_?$AAs?$AA?$CI?$AA?$CI?$AA?$CI?$AAv?$AAo?$AAi?$AAd?$AA?5?$AA?$CK?$AA?$CJ?$AA0?$AA?$CJ?$AA?0?$AA?5?$AAa?$AAe?$AAx?$AAp?$AAr?$AA?0?$AA?5?$AA?$CI@ 10112950     LIBCMTD:wassert.obj
 0003:000059e4       ??_C@_1BC@LNOOMFNA@?$AA_?$AAw?$AAa?$AAs?$AAs?$AAe?$AAr?$AAt?$AA?$AA@ 101129e4     LIBCMTD:wassert.obj
 0003:00005a00       ??_C@_1GC@BCJGKJKE@?$AAf?$AA?3?$AA?2?$AAr?$AAt?$AAm?$AA?2?$AAv?$AAc?$AAt?$AAo?$AAo?$AAl?$AAs?$AA?2?$AAc?$AAr?$AAt?$AA_?$AAb?$AAl?$AAd?$AA?2?$AAs?$AAe?$AAl?$AAf?$AA_?$AAx?$AA8?$AA6?$AA?2@ 10112a00     LIBCMTD:wassert.obj
 0003:00005a78       __pRawDllMain              10112a78     LIBCMTD:dllcrt0.obj
 0003:00005a78       __pDefaultRawDllMain       10112a78     LIBCMTD:dllcrt0.obj
 0003:00005a7c       ??_C@_09IFKEODFF@dllcrt0?4c?$AA@ 10112a7c     LIBCMTD:dllcrt0.obj
 0003:00005a88       ??_C@_1BA@EHFJLMKC@?$AA_?$AAw?$AAt?$AAo?$AAf?$AA_?$AAl?$AA?$AA@ 10112a88     LIBCMTD:wtof.obj
 0003:00005a9c       ??_C@_1O@KEPHOPFM@?$AAw?$AAt?$AAo?$AAf?$AA?4?$AAc?$AA?$AA@ 10112a9c     LIBCMTD:wtof.obj
 0003:00005aac       ??_C@_1BK@LAOAACLJ@?$AAn?$AAp?$AAt?$AAr?$AA?5?$AA?$CB?$AA?$DN?$AA?5?$AAN?$AAU?$AAL?$AAL?$AA?$AA@ 10112aac     LIBCMTD:wtof.obj
 0003:00005acc       ??_C@_1BA@NJCJMLHI@?$AA_?$AAa?$AAt?$AAo?$AAf?$AA_?$AAl?$AA?$AA@ 10112acc     LIBCMTD:atof.obj
 0003:00005ae0       ??_C@_1O@DKIHJIIG@?$AAa?$AAt?$AAo?$AAf?$AA?4?$AAc?$AA?$AA@ 10112ae0     LIBCMTD:atof.obj
 0003:00005af0       ??_C@_1CC@OLIJCKA@?$AA?$CI?$AAs?$AAt?$AAr?$AAi?$AAn?$AAg?$AA?5?$AA?$CB?$AA?$DN?$AA?5?$AAN?$AAU?$AAL?$AAL?$AA?$CJ?$AA?$AA@ 10112af0     LIBCMTD:vswprint.obj
 0003:00005b18       ??_C@_1BK@EPLNBKAK@?$AA_?$AAv?$AAs?$AAw?$AAp?$AAr?$AAi?$AAn?$AAt?$AAf?$AA_?$AAl?$AA?$AA@ 10112b18     LIBCMTD:vswprint.obj
 0003:00005b38       ??_C@_1BG@BELBGCGO@?$AAv?$AAs?$AAw?$AAp?$AAr?$AAi?$AAn?$AAt?$AA?4?$AAc?$AA?$AA@ 10112b38     LIBCMTD:vswprint.obj
 0003:00005b54       ??_C@_1CG@IMMIEPNA@?$AA_?$AAv?$AAs?$AAc?$AAw?$AAp?$AAr?$AAi?$AAn?$AAt?$AAf?$AA_?$AAh?$AAe?$AAl?$AAp?$AAe?$AAr?$AA?$AA@ 10112b54     LIBCMTD:vswprint.obj
 0003:00005b84       ??_C@_1BC@KMGJCMNP@?$AAv?$AAs?$AAc?$AAa?$AAn?$AA_?$AAf?$AAn?$AA?$AA@ 10112b84     LIBCMTD:sscanf.obj
 0003:00005b9c       ??_C@_1BC@MDHAFFLC@?$AAs?$AAs?$AAc?$AAa?$AAn?$AAf?$AA?4?$AAc?$AA?$AA@ 10112b9c     LIBCMTD:sscanf.obj
 0003:00005bb4       ??_C@_1BE@KFBKGHJC@?$AA_?$AAs?$AAt?$AAr?$AAt?$AAo?$AAd?$AA_?$AAl?$AA?$AA@ 10112bb4     LIBCMTD:strtod.obj
 0003:00005bcc       ??_C@_1BC@PMGIIGHC@?$AAs?$AAt?$AAr?$AAt?$AAo?$AAd?$AA?4?$AAc?$AA?$AA@ 10112bcc     LIBCMTD:strtod.obj
 0003:00005be8       ??_C@_1FE@CEHLKAHD@?$AAi?$AAb?$AAa?$AAs?$AAe?$AA?5?$AA?$DN?$AA?$DN?$AA?5?$AA0?$AA?5?$AA?$HM?$AA?$HM?$AA?5?$AA?$CI?$AA2?$AA?5?$AA?$DM?$AA?$DN?$AA?5?$AAi?$AAb?$AAa?$AAs?$AAe?$AA?5?$AA?$CG?$AA?$CG?$AA?5?$AAi?$AAb?$AAa@ 10112be8     LIBCMTD:strtol.obj
 0003:00005c4c       ??_C@_1BA@LOLAMAJG@?$AAs?$AAt?$AAr?$AAt?$AAo?$AAx?$AAl?$AA?$AA@ 10112c4c     LIBCMTD:strtol.obj
 0003:00005c60       ??_C@_1BC@CPINJNMH@?$AAs?$AAt?$AAr?$AAt?$AAo?$AAl?$AA?4?$AAc?$AA?$AA@ 10112c60     LIBCMTD:strtol.obj
 0003:00005c78       ??_C@_1BK@NOHKJANJ@?$AA?$CI?$AAm?$AAa?$AAx?$AAl?$AAe?$AAn?$AA?5?$AA?$DO?$AA?5?$AA0?$AA?$CJ?$AA?$AA@ 10112c78     LIBCMTD:getcwd.obj
 0003:00005c98       ??_C@_1CA@EAHAIGAM@?$AA_?$AAg?$AAe?$AAt?$AAd?$AAc?$AAw?$AAd?$AA_?$AAl?$AAk?$AA_?$AAd?$AAb?$AAg?$AA?$AA@ 10112c98     LIBCMTD:getcwd.obj
 0003:00005cc0       ??_C@_1BC@CFBHCMLK@?$AAg?$AAe?$AAt?$AAc?$AAw?$AAd?$AA?4?$AAc?$AA?$AA@ 10112cc0     LIBCMTD:getcwd.obj
 0003:00005cd8       ??_C@_1CI@ICBAMKHM@?$AA?$CI?$AA?$CC?$AAI?$AAn?$AAv?$AAa?$AAl?$AAi?$AAd?$AA?5?$AAD?$AAr?$AAi?$AAv?$AAe?$AA?$CC?$AA?0?$AA0?$AA?$CJ?$AA?$AA@ 10112cd8     LIBCMTD:getcwd.obj
 0003:00005d08       ??_C@_0CB@CGKGGDFI@Access?5violation?5?9?5no?5RTTI?5data?$CB@ 10112d08     LIBCMTD:rtti.obj
 0003:00005d30       ??_C@_0CB@EEENAAHH@Bad?5read?5pointer?5?9?5no?5RTTI?5data?$CB@ 10112d30     LIBCMTD:rtti.obj
 0003:00005d58       ??_C@_0CE@FFJAJLDK@Attempted?5a?5typeid?5of?5NULL?5point@ 10112d58     LIBCMTD:rtti.obj
 0003:00005d84       ??_C@_0BC@JNJNLHBP@Bad?5dynamic_cast?$CB?$AA@ 10112d84     LIBCMTD:rtti.obj
 0003:00005d9c       ??_C@_0BO@GNIAFIKK@Unknown?5Runtime?5Check?5Error?6?$AN?$AA@ 10112d9c     LIBCMTD:error.obj
 0003:00005dc0       ??_C@_0CM@NGINOKPC@Stack?5memory?5around?5_alloca?5was?5@ 10112dc0     LIBCMTD:error.obj
 0003:00005df4       ??_C@_0DG@HKJMLLLP@A?5local?5variable?5was?5used?5before@ 10112df4     LIBCMTD:error.obj
 0003:00005e34       ??_C@_0BN@FFOINMNJ@Stack?5memory?5was?5corrupted?6?$AN?$AA@ 10112e34     LIBCMTD:error.obj
 0003:00005e58       ??_C@_0BBN@GPMLNJCF@A?5cast?5to?5a?5smaller?5data?5type?5ha@ 10112e58     LIBCMTD:error.obj
 0003:00005fb0       ??_C@_0NN@NGPKDKPD@The?5value?5of?5ESP?5was?5not?5properl@ 10112fb0     LIBCMTD:error.obj
 0003:00006154       ??_C@_0CA@IODNCDPG@Run?9Time?5Check?5Failure?5?$CD?$CFd?5?9?5?$CFs?$AA@ 10113154     LIBCMTD:error.obj
 0003:0000617c       ??_C@_0BE@GNBOBNCK@Unknown?5Module?5Name?$AA@ 1011317c     LIBCMTD:error.obj
 0003:00006194       ??_C@_0BB@PFFGGCJP@Unknown?5Filename?$AA@ 10113194     LIBCMTD:error.obj
 0003:000061a8       ??_C@_1EA@NFKNIFJP@?$AAR?$AAu?$AAn?$AA?9?$AAT?$AAi?$AAm?$AAe?$AA?5?$AAC?$AAh?$AAe?$AAc?$AAk?$AA?5?$AAF?$AAa?$AAi?$AAl?$AAu?$AAr?$AAe?$AA?5?$AA?$CD?$AA?$CF?$AAd?$AA?5?$AA?9?$AA?5?$AA?$CF?$AAs?$AA?$AA@ 101131a8     LIBCMTD:error.obj
 0003:000061f8       ??_C@_1GM@OLMCBDMB@?$AAR?$AAu?$AAn?$AAt?$AAi?$AAm?$AAe?$AA?5?$AAC?$AAh?$AAe?$AAc?$AAk?$AA?5?$AAE?$AAr?$AAr?$AAo?$AAr?$AA?4?$AA?6?$AA?$AN?$AA?5?$AAU?$AAn?$AAa?$AAb?$AAl?$AAe?$AA?5?$AAt?$AAo@ 101131f8     LIBCMTD:error.obj
 0003:0000627c       ??_C@_0CG@IAFNJNEE@Stack?5corrupted?5near?5unknown?5var@ 1011327c     LIBCMTD:error.obj
 0003:000062b0       ??_C@_0EJ@LJKNEOLN@Stack?5area?5around?5_alloca?5memory@ 101132b0     LIBCMTD:error.obj
 0003:00006308       ??_C@_08KJEDNCKC@?$CFs?$CFs?$CFs?$CFs?$AA@ 10113308     LIBCMTD:error.obj
 0003:00006314       ??_C@_02LLMPMKNF@?$DO?5?$AA@ 10113314     LIBCMTD:error.obj
 0003:00006318       ??_C@_0BC@KIBAILCI@?$CFs?$CFs?$CFp?$CFs?$CFld?$CFs?$CFd?$CFs?$AA@ 10113318     LIBCMTD:error.obj
 0003:00006330       ??_C@_0EI@CLEPFNGI@Stack?5area?5around?5_alloca?5memory@ 10113330     LIBCMTD:error.obj
 0003:00006388       ??_C@_0N@MHFFIMFG@?6Address?3?50x?$AA@ 10113388     LIBCMTD:error.obj
 0003:00006398       ??_C@_07DFDJCKFN@?6Size?3?5?$AA@ 10113398     LIBCMTD:error.obj
 0003:000063a4       ??_C@_0CK@DKGBICFE@?6Allocation?5number?5within?5this?5f@ 101133a4     LIBCMTD:error.obj
 0003:000063d8       ??_C@_08OMAHNMHJ@?6Data?3?5?$DM?$AA@ 101133d8     LIBCMTD:error.obj
 0003:000063e4       ??_C@_09FOPFMPEJ@wsprintfA?$AA@ 101133e4     LIBCMTD:error.obj
 0003:000063f0       ??_C@_0L@GMPLCCII@user32?4dll?$AA@ 101133f0     LIBCMTD:error.obj
 0003:00006400       ??_C@_05MKKEDADM@?$CF?42X?5?$AA@ 10113400     LIBCMTD:error.obj
 0003:00006408       ??_C@_0DA@BEGFPCGG@A?5variable?5is?5being?5used?5without@ 10113408     LIBCMTD:error.obj
 0003:00006444       ??_C@_0BP@OGBCLIBO@Stack?5around?5_alloca?5corrupted?$AA@ 10113444     LIBCMTD:userapi.obj
 0003:0000646c       ??_C@_0CK@CNLNOEPB@Local?5variable?5used?5before?5initi@ 1011346c     LIBCMTD:userapi.obj
 0003:000064a0       ??_C@_0BI@CIGMDCBH@Stack?5memory?5corruption?$AA@ 101134a0     LIBCMTD:userapi.obj
 0003:000064bc       ??_C@_0CK@FEGOIOPB@Cast?5to?5smaller?5type?5causing?5los@ 101134bc     LIBCMTD:userapi.obj
 0003:000064f0       ??_C@_0BJ@HEGAHDFO@Stack?5pointer?5corruption?$AA@ 101134f0     LIBCMTD:userapi.obj
 0003:00006510       ??_C@_0O@NJIIDJEH@i386?2chkesp?4c?$AA@ 10113510     LIBCMTD:chkesp.obj
 0003:00006520       ??_C@_0NM@DNEDKLDF@The?5value?5of?5ESP?5was?5not?5properl@ 10113520     LIBCMTD:chkesp.obj
 0003:00006628       ??_C@_1BI@JFCCCJAM@?$AAt?$AAy?$AAp?$AAn?$AAa?$AAm?$AAe?$AA?4?$AAc?$AAp?$AAp?$AA?$AA@ 10113628     LIBCMTD:typname.obj
 0003:00006644       ??_C@_1CI@IDCGDBOP@?$AAp?$AAN?$AAo?$AAd?$AAe?$AA?9?$AA?$DO?$AAn?$AAe?$AAx?$AAt?$AA?5?$AA?$CB?$AA?$DN?$AA?5?$AAN?$AAU?$AAL?$AAL?$AA?$AA@ 10113644     LIBCMTD:typname.obj
 0003:00006678       ??_C@_1JK@MLBKHELP@?$AAs?$AAt?$AAr?$AAc?$AAp?$AAy?$AA_?$AAs?$AA?5?$AA?$CI?$AA?$CI?$AAc?$AAh?$AAa?$AAr?$AA?5?$AA?$CK?$AA?$CJ?$AA?$CI?$AA?$CI?$AAt?$AAy?$AAp?$AAe?$AA_?$AAi?$AAn?$AAf?$AAo?$AA?5?$AA?$CK?$AA?$CJ@ 10113678     LIBCMTD:typname.obj
 0003:00006730       ??_C@_1CM@OOICDMK@?$AAt?$AAy?$AAp?$AAe?$AA_?$AAi?$AAn?$AAf?$AAo?$AA?3?$AA?3?$AA_?$AAN?$AAa?$AAm?$AAe?$AA_?$AAb?$AAa?$AAs?$AAe?$AA?$AA@ 10113730     LIBCMTD:typname.obj
 0003:00006764       ??_C@_1DO@OJJLFJPE@?$AAt?$AAy?$AAp?$AAe?$AA_?$AAi?$AAn?$AAf?$AAo?$AA?3?$AA?3?$AA_?$AAN?$AAa?$AAm?$AAe?$AA_?$AAb?$AAa?$AAs?$AAe?$AA_?$AAi?$AAn?$AAt?$AAe?$AAr?$AAn?$AAa?$AAl?$AA?$AA@ 10113764     LIBCMTD:typname.obj
 0003:000067b0       ??_C@_0P@GGKDKEEG@runtime?5error?5?$AA@ 101137b0     LIBCMTD:crt0msg.obj
 0003:000067c4       ??_C@_0O@MJNIPGOH@TLOSS?5error?$AN?6?$AA@ 101137c4     LIBCMTD:crt0msg.obj
 0003:000067d4       ??_C@_0N@BONNPDHF@SING?5error?$AN?6?$AA@ 101137d4     LIBCMTD:crt0msg.obj
 0003:000067e4       ??_C@_0P@MBDAJNE@DOMAIN?5error?$AN?6?$AA@ 101137e4     LIBCMTD:crt0msg.obj
 0003:000067f8       ??_C@_0BFB@HKKMCDOL@R6034?$AN?6An?5application?5has?5made?5a@ 101137f8     LIBCMTD:crt0msg.obj
 0003:00006990       ??_C@_0PH@EPAFIJ@R6033?$AN?6?9?5Attempt?5to?5use?5MSIL?5cod@ 10113990     LIBCMTD:crt0msg.obj
 0003:00006ab8       ??_C@_0DD@BKEEABMM@R6032?$AN?6?9?5not?5enough?5space?5for?5lo@ 10113ab8     LIBCMTD:crt0msg.obj
 0003:00006af8       ??_C@_0GD@OFKILIED@R6031?$AN?6?9?5Attempt?5to?5initialize?5t@ 10113af8     LIBCMTD:crt0msg.obj
 0003:00006b70       ??_C@_0BP@LPMHJOKI@R6030?$AN?6?9?5CRT?5not?5initialized?$AN?6?$AA@ 10113b70     LIBCMTD:crt0msg.obj
 0003:00006b98       ??_C@_0CF@KJDAIALP@R6028?$AN?6?9?5unable?5to?5initialize?5he@ 10113b98     LIBCMTD:crt0msg.obj
 0003:00006bc4       ??_C@_0DF@GAKBPDFP@R6027?$AN?6?9?5not?5enough?5space?5for?5lo@ 10113bc4     LIBCMTD:crt0msg.obj
 0003:00006c04       ??_C@_0DF@IBLNNAIG@R6026?$AN?6?9?5not?5enough?5space?5for?5st@ 10113c04     LIBCMTD:crt0msg.obj
 0003:00006c44       ??_C@_0CG@IOHKGFNJ@R6025?$AN?6?9?5pure?5virtual?5function?5c@ 10113c44     LIBCMTD:crt0msg.obj
 0003:00006c74       ??_C@_0DF@JIJJFJDC@R6024?$AN?6?9?5not?5enough?5space?5for?5_o@ 10113c74     LIBCMTD:crt0msg.obj
 0003:00006cb4       ??_C@_0CJ@EGEJHFME@R6019?$AN?6?9?5unable?5to?5open?5console?5@ 10113cb4     LIBCMTD:crt0msg.obj
 0003:00006ce8       ??_C@_0CB@GNHNIELH@R6018?$AN?6?9?5unexpected?5heap?5error?$AN?6@ 10113ce8     LIBCMTD:crt0msg.obj
 0003:00006d10       ??_C@_0CN@FOLDKNG@R6017?$AN?6?9?5unexpected?5multithread?5@ 10113d10     LIBCMTD:crt0msg.obj
 0003:00006d48       ??_C@_0CM@FAHFJNHO@R6016?$AN?6?9?5not?5enough?5space?5for?5th@ 10113d48     LIBCMTD:crt0msg.obj
 0003:00006d80       ??_C@_0JG@LBKMGKLD@?$AN?6This?5application?5has?5requested@ 10113d80     LIBCMTD:crt0msg.obj
 0003:00006e34       ??_C@_0CM@FLCNIPKK@R6009?$AN?6?9?5not?5enough?5space?5for?5en@ 10113e34     LIBCMTD:crt0msg.obj
 0003:00006e68       ??_C@_0CK@KMMJOAPP@R6008?$AN?6?9?5not?5enough?5space?5for?5ar@ 10113e68     LIBCMTD:crt0msg.obj
 0003:00006e9c       ??_C@_0CF@HOHMHDEK@R6002?$AN?6?9?5floating?5point?5not?5load@ 10113e9c     LIBCMTD:crt0msg.obj
 0003:00006ec8       ??_C@_0CF@GOGNBNAK@Microsoft?5Visual?5C?$CL?$CL?5Runtime?5Lib@ 10113ec8     LIBCMTD:crt0msg.obj
 0003:00006ef8       ??_C@_1KC@JBIKIPNF@?$AAs?$AAt?$AAr?$AAc?$AAa?$AAt?$AA_?$AAs?$AA?$CI?$AAo?$AAu?$AAt?$AAm?$AAs?$AAg?$AA?0?$AA?5?$AA?$CI?$AAs?$AAi?$AAz?$AAe?$AAo?$AAf?$AA?$CI?$AAo?$AAu?$AAt?$AAm?$AAs?$AAg?$AA?$CJ@ 10113ef8     LIBCMTD:crt0msg.obj
 0003:00006fbc       ??_C@_02PHMGELLB@?6?6?$AA@ 10113fbc     LIBCMTD:crt0msg.obj
 0003:00006fc0       ??_C@_1HO@POLIDBMF@?$AAs?$AAt?$AAr?$AAc?$AAa?$AAt?$AA_?$AAs?$AA?$CI?$AAo?$AAu?$AAt?$AAm?$AAs?$AAg?$AA?0?$AA?5?$AA?$CI?$AAs?$AAi?$AAz?$AAe?$AAo?$AAf?$AA?$CI?$AAo?$AAu?$AAt?$AAm?$AAs?$AAg?$AA?$CJ@ 10113fc0     LIBCMTD:crt0msg.obj
 0003:00007058       ??_C@_1HG@CJJGKFHK@?$AAs?$AAt?$AAr?$AAn?$AAc?$AAp?$AAy?$AA_?$AAs?$AA?$CI?$AAp?$AAc?$AAh?$AA?0?$AA?5?$AAp?$AAr?$AAo?$AAg?$AAn?$AAa?$AAm?$AAe?$AA_?$AAs?$AAi?$AAz?$AAe?$AA?5?$AA?9?$AA?5?$AA?$CI@ 10114058     LIBCMTD:crt0msg.obj
 0003:000070e8       ??_C@_0BH@DNAGHKFM@?$DMprogram?5name?5unknown?$DO?$AA@ 101140e8     LIBCMTD:crt0msg.obj
 0003:00007108       ??_C@_1HI@FOOPEDMH@?$AAs?$AAt?$AAr?$AAc?$AAp?$AAy?$AA_?$AAs?$AA?$CI?$AAp?$AAr?$AAo?$AAg?$AAn?$AAa?$AAm?$AAe?$AA?0?$AA?5?$AAp?$AAr?$AAo?$AAg?$AAn?$AAa?$AAm?$AAe?$AA_?$AAs?$AAi?$AAz?$AAe@ 10114108     LIBCMTD:crt0msg.obj
 0003:00007198       ??_C@_0BK@OFGJDLJJ@Runtime?5Error?$CB?6?6Program?3?5?$AA@ 10114198     LIBCMTD:crt0msg.obj
 0003:000071b8       ??_C@_1KM@NKKPELHG@?$AAs?$AAt?$AAr?$AAc?$AAp?$AAy?$AA_?$AAs?$AA?$CI?$AAo?$AAu?$AAt?$AAm?$AAs?$AAg?$AA?0?$AA?5?$AA?$CI?$AAs?$AAi?$AAz?$AAe?$AAo?$AAf?$AA?$CI?$AAo?$AAu?$AAt?$AAm?$AAs?$AAg?$AA?$CJ@ 101141b8     LIBCMTD:crt0msg.obj
 0003:00007288       ??_C@_1BI@EAHMBMEC@?$AA_?$AAN?$AAM?$AAS?$AAG?$AA_?$AAW?$AAR?$AAI?$AAT?$AAE?$AA?$AA@ 10114288     LIBCMTD:crt0msg.obj
 0003:000072a4       ??_C@_1BE@HJCCFLDA@?$AAc?$AAr?$AAt?$AA0?$AAm?$AAs?$AAg?$AA?4?$AAc?$AA?$AA@ 101142a4     LIBCMTD:crt0msg.obj
 0003:000072bc       ??_C@_0O@NLDKAIKN@EncodePointer?$AA@ 101142bc     LIBCMTD:tidtable.obj
 0003:000072cc       ??_C@_0N@NHGLKGEC@KERNEL32?4DLL?$AA@ 101142cc     LIBCMTD:tidtable.obj
 0003:000072dc       ??_C@_0O@KBPMFGHI@DecodePointer?$AA@ 101142dc     LIBCMTD:tidtable.obj
 0003:000072ec       ??_C@_0L@JKCACIOJ@tidtable?4c?$AA@ 101142ec     LIBCMTD:tidtable.obj
 0003:000072fc       ??_C@_07PEJMOBNF@FlsFree?$AA@ 101142fc     LIBCMTD:tidtable.obj
 0003:00007308       ??_C@_0M@JCPCPOEF@FlsSetValue?$AA@ 10114308     LIBCMTD:tidtable.obj
 0003:00007318       ??_C@_0M@GDNOONDI@FlsGetValue?$AA@ 10114318     LIBCMTD:tidtable.obj
 0003:00007328       ??_C@_08KNHFBNJ@FlsAlloc?$AA@ 10114328     LIBCMTD:tidtable.obj
 0003:00007338       ??_C@_1GO@NGIGJNHH@?$AAs?$AAt?$AAr?$AAn?$AAc?$AAp?$AAy?$AA_?$AAs?$AA?$CI?$AA?$CK?$AAs?$AAt?$AAr?$AAa?$AAd?$AAd?$AAr?$AAe?$AAs?$AAs?$AA?0?$AA?5?$AAo?$AAu?$AAt?$AAs?$AAi?$AAz?$AAe?$AA?0?$AA?5@ 10114338     LIBCMTD:inithelp.obj
 0003:000073bc       ??_C@_1CA@KHHCPEI@?$AA_?$AA_?$AAg?$AAe?$AAt?$AAl?$AAo?$AAc?$AAa?$AAl?$AAe?$AAi?$AAn?$AAf?$AAo?$AA?$AA@ 101143bc     LIBCMTD:inithelp.obj
 0003:000073e4       ??_C@_1BG@OFMEOKEA@?$AAi?$AAn?$AAi?$AAt?$AAh?$AAe?$AAl?$AAp?$AA?4?$AAc?$AA?$AA@ 101143e4     LIBCMTD:inithelp.obj
 0003:00007400       ??_C@_0L@DILIPMN@inithelp?4c?$AA@ 10114400     LIBCMTD:inithelp.obj
 0003:00007410       ??_C@_07CKDBCAPD@mlock?4c?$AA@ 10114410     LIBCMTD:mlock.obj
 0003:0000741c       ??_C@_1BG@KCMPBBDK@?$AA_?$AAg?$AAe?$AAt?$AA_?$AAe?$AAr?$AAr?$AAn?$AAo?$AA?$AA@ 1011441c     LIBCMTD:dosmap.obj
 0003:00007438       ??_C@_1BC@GFJPPMFE@?$AAd?$AAo?$AAs?$AAm?$AAa?$AAp?$AA?4?$AAc?$AA?$AA@ 10114438     LIBCMTD:dosmap.obj
 0003:00007450       ??_C@_1BO@LKEBEKJP@?$AAp?$AAV?$AAa?$AAl?$AAu?$AAe?$AA?5?$AA?$CB?$AA?$DN?$AA?5?$AAN?$AAU?$AAL?$AAL?$AA?$AA@ 10114450     LIBCMTD:dosmap.obj
 0003:00007474       ??_C@_1BM@INIPHHDD@?$AA_?$AAg?$AAe?$AAt?$AA_?$AAd?$AAo?$AAs?$AAe?$AAr?$AAr?$AAn?$AAo?$AA?$AA@ 10114474     LIBCMTD:dosmap.obj
 0003:00007498       ??_C@_1BK@CMPKHPEC@?$AAn?$AA?5?$AA?$DM?$AA?$DN?$AA?5?$AAI?$AAN?$AAT?$AA_?$AAM?$AAA?$AAX?$AA?$AA@ 10114498     LIBCMTD:mbsnbico.obj
 0003:000074b8       ??_C@_1BG@GBJNMPFA@?$AAs?$AA2?$AA?5?$AA?$CB?$AA?$DN?$AA?5?$AAN?$AAU?$AAL?$AAL?$AA?$AA@ 101144b8     LIBCMTD:mbsnbico.obj
 0003:000074d4       ??_C@_1BM@FKNNDAHH@?$AA_?$AAm?$AAb?$AAs?$AAn?$AAb?$AAi?$AAc?$AAo?$AAl?$AAl?$AA_?$AAl?$AA?$AA@ 101144d4     LIBCMTD:mbsnbico.obj
 0003:000074f8       ??_C@_1BG@MHEMLGJO@?$AAm?$AAb?$AAs?$AAn?$AAb?$AAi?$AAc?$AAo?$AA?4?$AAc?$AA?$AA@ 101144f8     LIBCMTD:mbsnbico.obj
 0003:00007514       ??_C@_1BG@MODEICJK@?$AAs?$AA1?$AA?5?$AA?$CB?$AA?$DN?$AA?5?$AAN?$AAU?$AAL?$AAL?$AA?$AA@ 10114514     LIBCMTD:mbsnbico.obj
 0003:00007530       ??_C@_0L@CELCHBFJ@wtombenv?4c?$AA@ 10114530     LIBCMTD:wtombenv.obj
 0003:00007540       ??_C@_0P@MIGLKIOC@CorExitProcess?$AA@ 10114540     LIBCMTD:crt0dat.obj
 0003:00007554       ??_C@_0M@MBOPBNBK@mscoree?4dll?$AA@ 10114554     LIBCMTD:crt0dat.obj
 0003:00007564       ??_C@_1BO@PCPNBEJP@?$AA_?$AAo?$AAs?$AAp?$AAl?$AAa?$AAt?$AAf?$AAo?$AAr?$AAm?$AA?$CB?$AA?$DN?$AA0?$AA?$AA@ 10114564     LIBCMTD:crt0dat.obj
 0003:00007588       ??_C@_1CA@HBJLODAG@?$AA_?$AAg?$AAe?$AAt?$AA_?$AAo?$AAs?$AAp?$AAl?$AAa?$AAt?$AAf?$AAo?$AAr?$AAm?$AA?$AA@ 10114588     LIBCMTD:crt0dat.obj
 0003:000075b0       ??_C@_1BE@DFOEAGLM@?$AAc?$AAr?$AAt?$AA0?$AAd?$AAa?$AAt?$AA?4?$AAc?$AA?$AA@ 101145b0     LIBCMTD:crt0dat.obj
 0003:000075c8       ??_C@_1BG@OLMEODBO@?$AA_?$AAg?$AAe?$AAt?$AA_?$AAo?$AAs?$AAv?$AAe?$AAr?$AA?$AA@ 101145c8     LIBCMTD:crt0dat.obj
 0003:000075e4       ??_C@_1BI@EHCOONPO@?$AA_?$AAg?$AAe?$AAt?$AA_?$AAw?$AAi?$AAn?$AAv?$AAe?$AAr?$AA?$AA@ 101145e4     LIBCMTD:crt0dat.obj
 0003:00007600       ??_C@_1BM@MHJHOJPG@?$AA_?$AAg?$AAe?$AAt?$AA_?$AAw?$AAi?$AAn?$AAm?$AAa?$AAj?$AAo?$AAr?$AA?$AA@ 10114600     LIBCMTD:crt0dat.obj
 0003:00007624       ??_C@_1BM@FAAKKHPI@?$AA_?$AAg?$AAe?$AAt?$AA_?$AAw?$AAi?$AAn?$AAm?$AAi?$AAn?$AAo?$AAr?$AA?$AA@ 10114624     LIBCMTD:crt0dat.obj
 0003:00007648       ??_C@_1CC@CDIPMFPD@?$AA_?$AAw?$AAp?$AAg?$AAm?$AAp?$AAt?$AAr?$AA?5?$AA?$CB?$AA?$DN?$AA?5?$AAN?$AAU?$AAL?$AAL?$AA?$AA@ 10114648     LIBCMTD:crt0dat.obj
 0003:00007670       ??_C@_1BK@PNLDCCDP@?$AA_?$AAg?$AAe?$AAt?$AA_?$AAw?$AAp?$AAg?$AAm?$AAp?$AAt?$AAr?$AA?$AA@ 10114670     LIBCMTD:crt0dat.obj
 0003:00007690       ??_C@_1CA@BBNAFCKO@?$AA_?$AAp?$AAg?$AAm?$AAp?$AAt?$AAr?$AA?5?$AA?$CB?$AA?$DN?$AA?5?$AAN?$AAU?$AAL?$AAL?$AA?$AA@ 10114690     LIBCMTD:crt0dat.obj
 0003:000076b8       ??_C@_1BI@COAAPHJK@?$AA_?$AAg?$AAe?$AAt?$AA_?$AAp?$AAg?$AAm?$AAp?$AAt?$AAr?$AA?$AA@ 101146b8     LIBCMTD:crt0dat.obj
 0003:000076d4       ??_C@_1DM@MADKGDLO@?$AA?$CI?$AAL?$AA?$CC?$AAB?$AAu?$AAf?$AAf?$AAe?$AAr?$AA?5?$AAi?$AAs?$AA?5?$AAt?$AAo?$AAo?$AA?5?$AAs?$AAm?$AAa?$AAl?$AAl?$AA?$CC?$AA?5?$AA?$CG?$AA?$CG?$AA?5?$AA0?$AA?$CJ?$AA?$AA@ 101146d4     LIBCMTD:strcpy_s.obj
 0003:0000771c       ??_C@_1CI@HCPHDDLE@?$AAB?$AAu?$AAf?$AAf?$AAe?$AAr?$AA?5?$AAi?$AAs?$AA?5?$AAt?$AAo?$AAo?$AA?5?$AAs?$AAm?$AAa?$AAl?$AAl?$AA?$AA@ 1011471c     LIBCMTD:strcpy_s.obj
 0003:0000774c       ??_C@_1CG@OFBJMIGJ@?$AA?$CI?$AA?$CI?$AA?$CI?$AA_?$AAS?$AAr?$AAc?$AA?$CJ?$AA?$CJ?$AA?$CJ?$AA?5?$AA?$CB?$AA?$DN?$AA?5?$AAN?$AAU?$AAL?$AAL?$AA?$AA@ 1011474c     LIBCMTD:strcpy_s.obj
 0003:0000777c       ??_C@_1BC@CFJEPFGF@?$AAs?$AAt?$AAr?$AAc?$AAp?$AAy?$AA_?$AAs?$AA?$AA@ 1011477c     LIBCMTD:strcpy_s.obj
 0003:00007798       ??_C@_1GK@NOPKFDOE@?$AAF?$AA?3?$AA?2?$AAR?$AAT?$AAM?$AA?2?$AAv?$AAc?$AAt?$AAo?$AAo?$AAl?$AAs?$AA?2?$AAc?$AAr?$AAt?$AA_?$AAb?$AAl?$AAd?$AA?2?$AAS?$AAE?$AAL?$AAF?$AA_?$AAX?$AA8?$AA6?$AA?2@ 10114798     LIBCMTD:strcpy_s.obj
 0003:00007818       ??_C@_1FC@NCPEPIBI@?$AA?$CI?$AA?$CI?$AA_?$AAD?$AAs?$AAt?$AA?$CJ?$AA?$CJ?$AA?5?$AA?$CB?$AA?$DN?$AA?5?$AAN?$AAU?$AAL?$AAL?$AA?5?$AA?$CG?$AA?$CG?$AA?5?$AA?$CI?$AA?$CI?$AA_?$AAS?$AAi?$AAz?$AAe?$AAI?$AAn?$AAB?$AAy?$AAt@ 10114818     LIBCMTD:strcpy_s.obj
 0003:0000787c       ??_C@_07PNHPCIEC@_file?4c?$AA@ 1011487c     LIBCMTD:_file.obj
 0003:00007888       ??_C@_1JE@ECKHFIFP@?$AA?$CI?$AA?$CC?$AAI?$AAn?$AAv?$AAa?$AAl?$AAi?$AAd?$AA?5?$AAf?$AAi?$AAl?$AAe?$AA?5?$AAd?$AAe?$AAs?$AAc?$AAr?$AAi?$AAp?$AAt?$AAo?$AAr?$AA?4?$AA?5?$AAF?$AAi?$AAl?$AAe?$AA?5@ 10114888     LIBCMTD:close.obj
 0003:0000793c       ??_C@_1CM@OKGMMMDH@?$AA?$CI?$AA_?$AAo?$AAs?$AAf?$AAi?$AAl?$AAe?$AA?$CI?$AAf?$AAh?$AA?$CJ?$AA?5?$AA?$CG?$AA?5?$AAF?$AAO?$AAP?$AAE?$AAN?$AA?$CJ?$AA?$AA@ 1011493c     LIBCMTD:close.obj
 0003:00007970       ??_C@_1O@EDEJGJBM@?$AA_?$AAc?$AAl?$AAo?$AAs?$AAe?$AA?$AA@ 10114970     LIBCMTD:close.obj
 0003:00007980       ??_C@_1BA@GOGDMMEN@?$AAc?$AAl?$AAo?$AAs?$AAe?$AA?4?$AAc?$AA?$AA@ 10114980     LIBCMTD:close.obj
 0003:00007998       ??_C@_1FO@LPCLHKGE@?$AA?$CI?$AAf?$AAh?$AA?5?$AA?$DO?$AA?$DN?$AA?5?$AA0?$AA?5?$AA?$CG?$AA?$CG?$AA?5?$AA?$CI?$AAu?$AAn?$AAs?$AAi?$AAg?$AAn?$AAe?$AAd?$AA?$CJ?$AAf?$AAh?$AA?5?$AA?$DM?$AA?5?$AA?$CI?$AAu?$AAn?$AAs?$AAi@ 10114998     LIBCMTD:close.obj
 0003:00007a08       ??_C@_1BA@JGHIEKKM@?$AA_?$AAf?$AAi?$AAl?$AAe?$AAn?$AAo?$AA?$AA@ 10114a08     LIBCMTD:fileno.obj
 0003:00007a1c       ??_C@_1BC@FBGAHIFN@?$AAf?$AAi?$AAl?$AAe?$AAn?$AAo?$AA?4?$AAc?$AA?$AA@ 10114a1c     LIBCMTD:fileno.obj
 0003:00007a34       ??_C@_1BG@BCLADFND@?$AA_?$AAf?$AAr?$AAe?$AAe?$AAb?$AAu?$AAf?$AA?4?$AAc?$AA?$AA@ 10114a34     LIBCMTD:_freebuf.obj
 0003:00007a50       ??_C@_1BO@KIJENGPH@?$AAs?$AAt?$AAr?$AAe?$AAa?$AAm?$AA?5?$AA?$CB?$AA?$DN?$AA?5?$AAN?$AAU?$AAL?$AAL?$AA?$AA@ 10114a50     LIBCMTD:_freebuf.obj
 0003:00007a74       ??_C@_1BA@IIKEPOGH@?$AA_?$AAf?$AAi?$AAl?$AAb?$AAu?$AAf?$AA?$AA@ 10114a74     LIBCMTD:_filbuf.obj
 0003:00007a88       ??_C@_1BE@CEJGNPDE@?$AA_?$AAf?$AAi?$AAl?$AAb?$AAu?$AAf?$AA?4?$AAc?$AA?$AA@ 10114a88     LIBCMTD:_filbuf.obj
 0003:00007aa0       ??_C@_1BI@MFCLPIBM@?$AAs?$AAt?$AAr?$AA?5?$AA?$CB?$AA?$DN?$AA?5?$AAN?$AAU?$AAL?$AAL?$AA?$AA@ 10114aa0     LIBCMTD:_filbuf.obj
 0003:00007abc       ??_C@_1M@NHJOLLDM@?$AA_?$AAr?$AAe?$AAa?$AAd?$AA?$AA@ 10114abc     LIBCMTD:read.obj
 0003:00007acc       ??_C@_1O@OLAFBHGM@?$AAr?$AAe?$AAa?$AAd?$AA?4?$AAc?$AA?$AA@ 10114acc     LIBCMTD:read.obj
 0003:00007adc       ??_C@_06CNEIBCEN@read?4c?$AA@ 10114adc     LIBCMTD:read.obj
 0003:00007ae4       ??_C@_1CC@EEOLPHGO@?$AA?$CI?$AA?$CI?$AAc?$AAn?$AAt?$AA?5?$AA?$CG?$AA?5?$AA1?$AA?$CJ?$AA?5?$AA?$DN?$AA?$DN?$AA?5?$AA0?$AA?$CJ?$AA?$AA@ 10114ae4     LIBCMTD:read.obj
 0003:00007b0c       ??_C@_1CG@OHLJHGGK@?$AA?$CI?$AAi?$AAn?$AAp?$AAu?$AAt?$AAb?$AAu?$AAf?$AA?5?$AA?$CB?$AA?$DN?$AA?5?$AAN?$AAU?$AAL?$AAL?$AA?$CJ?$AA?$AA@ 10114b0c     LIBCMTD:read.obj
 0003:00007b3c       ??_C@_1BK@JJBHNDKJ@?$AA_?$AAr?$AAe?$AAa?$AAd?$AA_?$AAn?$AAo?$AAl?$AAo?$AAc?$AAk?$AA?$AA@ 10114b3c     LIBCMTD:read.obj
 0003:00007b5c       ??_C@_1CK@DDKKOLAN@?$AAs?$AAi?$AAz?$AAe?$AAI?$AAn?$AAB?$AAy?$AAt?$AAe?$AAs?$AA?5?$AA?$DO?$AA?$DN?$AA?5?$AAc?$AAo?$AAu?$AAn?$AAt?$AA?$AA@ 10114b5c     LIBCMTD:memcpy_s.obj
 0003:00007b90       ??_C@_1BI@DCHLDCPP@?$AAs?$AAr?$AAc?$AA?5?$AA?$CB?$AA?$DN?$AA?5?$AAN?$AAU?$AAL?$AAL?$AA?$AA@ 10114b90     LIBCMTD:memcpy_s.obj
 0003:00007bac       ??_C@_1BC@GKHDJMGB@?$AAm?$AAe?$AAm?$AAc?$AAp?$AAy?$AA_?$AAs?$AA?$AA@ 10114bac     LIBCMTD:memcpy_s.obj
 0003:00007bc4       ??_C@_1BG@MKNDEPCK@?$AAm?$AAe?$AAm?$AAc?$AAp?$AAy?$AA_?$AAs?$AA?4?$AAc?$AA?$AA@ 10114bc4     LIBCMTD:memcpy_s.obj
 0003:00007be0       ??_C@_1BI@GKKCBDMD@?$AAd?$AAs?$AAt?$AA?5?$AA?$CB?$AA?$DN?$AA?5?$AAN?$AAU?$AAL?$AAL?$AA?$AA@ 10114be0     LIBCMTD:memcpy_s.obj
 0003:00007c28       ??_C@_1CI@KEDPFCAL@?$AA?$CI?$AA?$CK?$AAm?$AAo?$AAd?$AAe?$AA?5?$AA?$DN?$AA?$DN?$AA?5?$AA_?$AAT?$AA?$CI?$AA?8?$AA?2?$AA0?$AA?8?$AA?$CJ?$AA?$CJ?$AA?$AA@ 10114c28     LIBCMTD:_open.obj
 0003:00007c58       ??_C@_1BE@DONHJJKE@?$AA_?$AAo?$AAp?$AAe?$AAn?$AAf?$AAi?$AAl?$AAe?$AA?$AA@ 10114c58     LIBCMTD:_open.obj
 0003:00007c70       ??_C@_1DK@PKMJBLLN@?$AA?$CI?$AA?$CC?$AAI?$AAn?$AAv?$AAa?$AAl?$AAi?$AAd?$AA?5?$AAf?$AAi?$AAl?$AAe?$AA?5?$AAo?$AAp?$AAe?$AAn?$AA?5?$AAm?$AAo?$AAd?$AAe?$AA?$CC?$AA?0?$AA0?$AA?$CJ?$AA?$AA@ 10114c70     LIBCMTD:_open.obj
 0003:00007cb8       ??_C@_1BK@HGLMNMEC@?$AAm?$AAo?$AAd?$AAe?$AA?5?$AA?$CB?$AA?$DN?$AA?5?$AAN?$AAU?$AAL?$AAL?$AA?$AA@ 10114cb8     LIBCMTD:_open.obj
 0003:00007cd8       ??_C@_1BA@ENGOOAMJ@?$AA_?$AAo?$AAp?$AAe?$AAn?$AA?4?$AAc?$AA?$AA@ 10114cd8     LIBCMTD:_open.obj
 0003:00007cec       ??_C@_1CC@JBMDNKJP@?$AAf?$AAi?$AAl?$AAe?$AAn?$AAa?$AAm?$AAe?$AA?5?$AA?$CB?$AA?$DN?$AA?5?$AAN?$AAU?$AAL?$AAL?$AA?$AA@ 10114cec     LIBCMTD:_open.obj
 0003:00007d14       ??_C@_08MKBBPGGN@stream?4c?$AA@ 10114d14     LIBCMTD:stream.obj
 0003:00007d20       ??_C@_04PNGHFIJN@?4com?$AA@ 10114d20     LIBCMTD:stat.obj
 0003:00007d28       ??_C@_04NEEFLLOK@?4bat?$AA@ 10114d28     LIBCMTD:stat.obj
 0003:00007d30       ??_C@_04CPCBDHLK@?4cmd?$AA@ 10114d30     LIBCMTD:stat.obj
 0003:00007d38       ??_C@_04JLMDILM@?4exe?$AA@ 10114d38     LIBCMTD:stat.obj
 0003:00007d40       ??_C@_1BA@CKEGICOM@?$AA_?$AAs?$AAt?$AAa?$AAt?$AA3?$AA2?$AA?$AA@ 10114d40     LIBCMTD:stat.obj
 0003:00007d54       ??_C@_1O@JNAMGGKC@?$AAs?$AAt?$AAa?$AAt?$AA?4?$AAc?$AA?$AA@ 10114d54     LIBCMTD:stat.obj
 0003:00007d64       ??_C@_1DC@CMKCHHFC@?$AA_?$AAg?$AAe?$AAt?$AA_?$AAt?$AAi?$AAm?$AAe?$AAz?$AAo?$AAn?$AAe?$AA?$CI?$AA?$CG?$AAt?$AAi?$AAm?$AAe?$AAz?$AAo?$AAn?$AAe?$AA?$CJ?$AA?$AA@ 10114d64     LIBCMTD:dtoxtm64.obj
 0003:00007da0       ??_C@_1CO@IMMOMMCB@?$AA_?$AAg?$AAe?$AAt?$AA_?$AAd?$AAs?$AAt?$AAb?$AAi?$AAa?$AAs?$AA?$CI?$AA?$CG?$AAd?$AAs?$AAt?$AAb?$AAi?$AAa?$AAs?$AA?$CJ?$AA?$AA@ 10114da0     LIBCMTD:dtoxtm64.obj
 0003:00007dd8       ??_C@_1DC@MEHEMOPB@?$AA_?$AAg?$AAe?$AAt?$AA_?$AAd?$AAa?$AAy?$AAl?$AAi?$AAg?$AAh?$AAt?$AA?$CI?$AA?$CG?$AAd?$AAa?$AAy?$AAl?$AAi?$AAg?$AAh?$AAt?$AA?$CJ?$AA?$AA@ 10114dd8     LIBCMTD:dtoxtm64.obj
 0003:00007e18       ??_C@_1NE@HCOJPFBB@?$AA?$CI?$AA?5?$AA?$CI?$AA?5?$AAd?$AAy?$AA?5?$AA?$DO?$AA?$DN?$AA?5?$AA1?$AA?5?$AA?$CJ?$AA?5?$AA?$CG?$AA?$CG?$AA?5?$AA?$CI?$AA?5?$AA?$CI?$AA?5?$AA?$CI?$AA_?$AAd?$AAa?$AAy?$AAs?$AA?$FL?$AAm?$AAo?$AA?$FN?$AA?5@ 10114e18     LIBCMTD:dtoxtm64.obj
 0003:00007f18       ??_C@_1EA@PBNKINBN@?$AA?$CI?$AA?5?$AA?$CI?$AA?5?$AAs?$AAc?$AA?5?$AA?$DO?$AA?$DN?$AA?5?$AA0?$AA?5?$AA?$CJ?$AA?5?$AA?$CG?$AA?$CG?$AA?5?$AA?$CI?$AA?5?$AAs?$AAc?$AA?5?$AA?$DM?$AA?$DN?$AA?5?$AA5?$AA9?$AA?5?$AA?$CJ?$AA?5?$AA?$CJ?$AA?$AA@ 10114f18     LIBCMTD:dtoxtm64.obj
 0003:00007f68       ??_C@_1EA@KCLJGOAL@?$AA?$CI?$AA?5?$AA?$CI?$AA?5?$AAm?$AAn?$AA?5?$AA?$DO?$AA?$DN?$AA?5?$AA0?$AA?5?$AA?$CJ?$AA?5?$AA?$CG?$AA?$CG?$AA?5?$AA?$CI?$AA?5?$AAm?$AAn?$AA?5?$AA?$DM?$AA?$DN?$AA?5?$AA5?$AA9?$AA?5?$AA?$CJ?$AA?5?$AA?$CJ?$AA?$AA@ 10114f68     LIBCMTD:dtoxtm64.obj
 0003:00007fb8       ??_C@_1EA@FOIKONLM@?$AA?$CI?$AA?5?$AA?$CI?$AA?5?$AAh?$AAr?$AA?5?$AA?$DO?$AA?$DN?$AA?5?$AA0?$AA?5?$AA?$CJ?$AA?5?$AA?$CG?$AA?$CG?$AA?5?$AA?$CI?$AA?5?$AAh?$AAr?$AA?5?$AA?$DM?$AA?$DN?$AA?5?$AA2?$AA3?$AA?5?$AA?$CJ?$AA?5?$AA?$CJ?$AA?$AA@ 10114fb8     LIBCMTD:dtoxtm64.obj
 0003:00008008       ??_C@_1EA@GACPLBON@?$AA?$CI?$AA?5?$AA?$CI?$AA?5?$AAm?$AAo?$AA?5?$AA?$DO?$AA?$DN?$AA?5?$AA1?$AA?5?$AA?$CJ?$AA?5?$AA?$CG?$AA?$CG?$AA?5?$AA?$CI?$AA?5?$AAm?$AAo?$AA?5?$AA?$DM?$AA?$DN?$AA?5?$AA1?$AA2?$AA?5?$AA?$CJ?$AA?5?$AA?$CJ?$AA?$AA@ 10115008     LIBCMTD:dtoxtm64.obj
 0003:00008054       ??_C@_1CA@BCKHBOCK@?$AA_?$AA_?$AAl?$AAo?$AAc?$AAt?$AAo?$AAt?$AAi?$AAm?$AAe?$AA6?$AA4?$AA_?$AAt?$AA?$AA@ 10115054     LIBCMTD:dtoxtm64.obj
 0003:0000807c       ??_C@_1BG@EACJFOPP@?$AAd?$AAt?$AAo?$AAx?$AAt?$AAm?$AA6?$AA4?$AA?4?$AAc?$AA?$AA@ 1011507c     LIBCMTD:dtoxtm64.obj
 0003:00008098       ??_C@_1LA@OHJGJPGH@?$AA?$CI?$AA?5?$AA?$CI?$AA?5?$AA?$CI?$AA?5?$AAl?$AAo?$AAn?$AAg?$AA?5?$AA?$CJ?$AA?$CI?$AA?5?$AAy?$AAr?$AA?5?$AA?9?$AA?5?$AA1?$AA9?$AA0?$AA0?$AA?5?$AA?$CJ?$AA?5?$AA?$DO?$AA?$DN?$AA?5?$AA_?$AAB?$AAA@ 10115098     LIBCMTD:dtoxtm64.obj
 0003:0000816c       ??_C@_07JMBJFAJH@drive?4c?$AA@ 1011516c     LIBCMTD:drive.obj
 0003:00008178       ??_C@_1BC@JCHHEAGH@?$AA_?$AAc?$AAh?$AAd?$AAr?$AAi?$AAv?$AAe?$AA?$AA@ 10115178     LIBCMTD:drive.obj
 0003:00008190       ??_C@_1BA@DHKHDDHA@?$AAd?$AAr?$AAi?$AAv?$AAe?$AA?4?$AAc?$AA?$AA@ 10115190     LIBCMTD:drive.obj
 0003:000081a4       ??_C@_1DE@JLKLCHND@?$AA?$CI?$AA?$CC?$AAI?$AAn?$AAv?$AAa?$AAl?$AAi?$AAd?$AA?5?$AAD?$AAr?$AAi?$AAv?$AAe?$AA?5?$AAI?$AAn?$AAd?$AAe?$AAx?$AA?$CC?$AA?0?$AA0?$AA?$CJ?$AA?$AA@ 101151a4     LIBCMTD:drive.obj
 0003:000081e4       ??_C@_1CA@KMNJPEDI@?$AAc?$AAh?$AAa?$AAr?$AAs?$AAe?$AAt?$AA?5?$AA?$CB?$AA?$DN?$AA?5?$AAN?$AAU?$AAL?$AAL?$AA?$AA@ 101151e4     LIBCMTD:mbspbrk.obj
 0003:0000820c       ??_C@_1BG@LIACDHFC@?$AA_?$AAm?$AAb?$AAs?$AAp?$AAb?$AAr?$AAk?$AA_?$AAl?$AA?$AA@ 1011520c     LIBCMTD:mbspbrk.obj
 0003:00008228       ??_C@_1GE@KOOCIDDE@?$AAf?$AA?3?$AA?2?$AAr?$AAt?$AAm?$AA?2?$AAv?$AAc?$AAt?$AAo?$AAo?$AAl?$AAs?$AA?2?$AAc?$AAr?$AAt?$AA_?$AAb?$AAl?$AAd?$AA?2?$AAs?$AAe?$AAl?$AAf?$AA_?$AAx?$AA8?$AA6?$AA?2@ 10115228     LIBCMTD:mbspbrk.obj
 0003:000082a0       ??_C@_1BO@JIBAMMGI@?$AAs?$AAt?$AAr?$AAi?$AAn?$AAg?$AA?5?$AA?$CB?$AA?$DN?$AA?5?$AAN?$AAU?$AAL?$AAL?$AA?$AA@ 101152a0     LIBCMTD:mbspbrk.obj
 0003:000082c4       ??_C@_1BM@BMDEPKPP@?$AA_?$AAf?$AAu?$AAl?$AAl?$AAp?$AAa?$AAt?$AAh?$AA_?$AAd?$AAb?$AAg?$AA?$AA@ 101152c4     LIBCMTD:fullpath.obj
 0003:000082e8       ??_C@_1BG@FHOOPAMM@?$AAf?$AAu?$AAl?$AAl?$AAp?$AAa?$AAt?$AAh?$AA?4?$AAc?$AA?$AA@ 101152e8     LIBCMTD:fullpath.obj
 0003:00008304       ??_C@_09IFKHNCOH@_sftbuf?4c?$AA@ 10115304     LIBCMTD:_sftbuf.obj
 0003:00008310       ??_C@_1BE@DFMOKHKL@?$AA_?$AAs?$AAf?$AAt?$AAb?$AAu?$AAf?$AA?4?$AAc?$AA?$AA@ 10115310     LIBCMTD:_sftbuf.obj
 0003:00008328       ??_C@_1CO@KCKAACMI@?$AAf?$AAl?$AAa?$AAg?$AA?5?$AA?$DN?$AA?$DN?$AA?5?$AA0?$AA?5?$AA?$HM?$AA?$HM?$AA?5?$AAf?$AAl?$AAa?$AAg?$AA?5?$AA?$DN?$AA?$DN?$AA?5?$AA1?$AA?$AA@ 10115328     LIBCMTD:_sftbuf.obj
 0003:00008360       ??_C@_1O@CEDCILHN@?$AA?$CI?$AAn?$AAu?$AAl?$AAl?$AA?$CJ?$AA?$AA@ 10115360     LIBCMTD:output.obj
 0003:00008370       ??_C@_06OJHGLDPL@?$CInull?$CJ?$AA@ 10115370     LIBCMTD:output.obj
 0003:00008378       ___lookuptable             10115378     LIBCMTD:output.obj
 0003:000083e4       ??_C@_08MEPFMIND@output?4c?$AA@ 101153e4     LIBCMTD:output.obj
 0003:000083f0       ??_C@_1EK@PNGFDECN@?$AA?$CI?$AA?$CC?$AA?8?$AAn?$AA?8?$AA?5?$AAf?$AAo?$AAr?$AAm?$AAa?$AAt?$AA?5?$AAs?$AAp?$AAe?$AAc?$AAi?$AAf?$AAi?$AAe?$AAr?$AA?5?$AAd?$AAi?$AAs?$AAa?$AAb?$AAl?$AAe?$AAd?$AA?$CC@ 101153f0     LIBCMTD:output.obj
 0003:00008448       ??_C@_1CC@IFFHEMNF@?$AA?$CI?$AAc?$AAh?$AA?5?$AA?$CB?$AA?$DN?$AA?5?$AA_?$AAT?$AA?$CI?$AA?8?$AA?2?$AA0?$AA?8?$AA?$CJ?$AA?$CJ?$AA?$AA@ 10115448     LIBCMTD:output.obj
 0003:00008470       ??_C@_1BE@IONLIDNC@?$AA_?$AAo?$AAu?$AAt?$AAp?$AAu?$AAt?$AA_?$AAl?$AA?$AA@ 10115470     LIBCMTD:output.obj
 0003:00008488       ??_C@_1BC@NHKJGCDC@?$AAo?$AAu?$AAt?$AAp?$AAu?$AAt?$AA?4?$AAc?$AA?$AA@ 10115488     LIBCMTD:output.obj
 0003:000084a0       ??_C@_08MAFBHINM@ioinit?4c?$AA@ 101154a0     LIBCMTD:ioinit.obj
 0003:000084ac       ??_C@_1CA@OEHMHBJF@?$AAv?$AAf?$AAp?$AAr?$AAi?$AAn?$AAt?$AAf?$AA_?$AAh?$AAe?$AAl?$AAp?$AAe?$AAr?$AA?$AA@ 101154ac     LIBCMTD:vfprintf.obj
 0003:000084d4       ??_C@_1BG@OKHDPPCK@?$AAv?$AAf?$AAp?$AAr?$AAi?$AAn?$AAt?$AAf?$AA?4?$AAc?$AA?$AA@ 101154d4     LIBCMTD:vfprintf.obj
 0003:000084f0       ??_C@_1GE@KOCFNGPB@?$AA_?$AAc?$AAo?$AAn?$AAt?$AAr?$AAo?$AAl?$AAf?$AAp?$AA_?$AAs?$AA?$CI?$AA?$CI?$AA?$CI?$AAv?$AAo?$AAi?$AAd?$AA?5?$AA?$CK?$AA?$CJ?$AA0?$AA?$CJ?$AA?0?$AA?5?$AA0?$AAx?$AA0?$AA0?$AA0?$AA1@ 101154f0     LIBCMTD:fp8.obj
 0003:00008568       ??_C@_1CK@JMKHCBEI@?$AA_?$AAs?$AAe?$AAt?$AAd?$AAe?$AAf?$AAa?$AAu?$AAl?$AAt?$AAp?$AAr?$AAe?$AAc?$AAi?$AAs?$AAi?$AAo?$AAn?$AA?$AA@ 10115568     LIBCMTD:fp8.obj
 0003:0000859c       ??_C@_1BI@DMMHIADH@?$AAi?$AAn?$AAt?$AAe?$AAl?$AA?2?$AAf?$AAp?$AA8?$AA?4?$AAc?$AA?$AA@ 1011559c     LIBCMTD:fp8.obj
 0003:000085b8       __real@3ff0000000000000    101155b8     LIBCMTD:testfdiv.obj
 0003:000085c8       __real@4150017ec0000000    101155c8     LIBCMTD:testfdiv.obj
 0003:000085d8       __real@4147ffff80000000    101155d8     LIBCMTD:testfdiv.obj
 0003:000085e4       ??_C@_0BK@NHEOCAHP@IsProcessorFeaturePresent?$AA@ 101155e4     LIBCMTD:testfdiv.obj
 0003:00008604       ??_C@_08CPNIBGIE@KERNEL32?$AA@ 10115604     LIBCMTD:testfdiv.obj
 0003:00008610       ??_C@_1CA@CBMNPEO@?$AAs?$AAi?$AAz?$AAe?$AAI?$AAn?$AAB?$AAy?$AAt?$AAe?$AAs?$AA?5?$AA?$DO?$AA?5?$AA0?$AA?$AA@ 10115610     LIBCMTD:cvt.obj
 0003:00008638       ??_C@_1BC@INKAPMHI@?$AA_?$AAc?$AAf?$AAt?$AAo?$AAe?$AA_?$AAl?$AA?$AA@ 10115638     LIBCMTD:cvt.obj
 0003:00008650       ??_C@_1M@BMJONBHG@?$AAc?$AAv?$AAt?$AA?4?$AAc?$AA?$AA@ 10115650     LIBCMTD:cvt.obj
 0003:00008660       ??_C@_1BI@ICGGMGLK@?$AAb?$AAu?$AAf?$AA?5?$AA?$CB?$AA?$DN?$AA?5?$AAN?$AAU?$AAL?$AAL?$AA?$AA@ 10115660     LIBCMTD:cvt.obj
 0003:0000867c       ??_C@_05KLBDPFGC@e?$CL000?$AA@ 1011567c     LIBCMTD:cvt.obj
 0003:00008688       ??_C@_1LE@EOIFGNCJ@?$AAs?$AAt?$AAr?$AAc?$AAp?$AAy?$AA_?$AAs?$AA?$CI?$AAp?$AA?0?$AA?5?$AA?$CI?$AAs?$AAi?$AAz?$AAe?$AAI?$AAn?$AAB?$AAy?$AAt?$AAe?$AAs?$AA?5?$AA?$DN?$AA?$DN?$AA?5?$AA?$CI?$AAs?$AAi?$AAz@ 10115688     LIBCMTD:cvt.obj
 0003:00008760       ??_C@_1HE@NACBNDPP@?$AAs?$AAi?$AAz?$AAe?$AAI?$AAn?$AAB?$AAy?$AAt?$AAe?$AAs?$AA?5?$AA?$DO?$AA?5?$AA?$CI?$AAs?$AAi?$AAz?$AAe?$AA_?$AAt?$AA?$CJ?$AA?$CI?$AA3?$AA?5?$AA?$CL?$AA?5?$AA?$CI?$AAn?$AAd?$AAe?$AAc@ 10115760     LIBCMTD:cvt.obj
 0003:000087ec       ??_C@_1BE@OLBNEILL@?$AA_?$AAc?$AAf?$AAt?$AAo?$AAe?$AA2?$AA_?$AAl?$AA?$AA@ 101157ec     LIBCMTD:cvt.obj
 0003:00008808       ??_C@_1FC@IKIMAMJB@?$AAs?$AAi?$AAz?$AAe?$AAI?$AAn?$AAB?$AAy?$AAt?$AAe?$AAs?$AA?5?$AA?$DO?$AA?5?$AA?$CI?$AAs?$AAi?$AAz?$AAe?$AA_?$AAt?$AA?$CJ?$AA?$CI?$AA1?$AA?5?$AA?$CL?$AA?5?$AA4?$AA?5?$AA?$CL?$AA?5?$AAn@ 10115808     LIBCMTD:cvt.obj
 0003:0000886c       ??_C@_1BC@JOKPCIC@?$AA_?$AAc?$AAf?$AAt?$AAo?$AAa?$AA_?$AAl?$AA?$AA@ 1011586c     LIBCMTD:cvt.obj
 0003:00008884       ??_C@_1BC@DCPPLJL@?$AA_?$AAc?$AAf?$AAt?$AAo?$AAf?$AA_?$AAl?$AA?$AA@ 10115884     LIBCMTD:cvt.obj
 0003:0000889c       ??_C@_1BE@CKPDLI@?$AA_?$AAc?$AAf?$AAt?$AAo?$AAf?$AA2?$AA_?$AAl?$AA?$AA@ 1011589c     LIBCMTD:cvt.obj
 0003:000088b4       ??_C@_1BC@MPIFPLAF@?$AA_?$AAc?$AAf?$AAt?$AAo?$AAg?$AA_?$AAl?$AA?$AA@ 101158b4     LIBCMTD:cvt.obj
 0003:000088d0       ??_C@_1HO@MLMGPAFH@?$AA?$CI?$AA?$CC?$AAi?$AAn?$AAc?$AAo?$AAn?$AAs?$AAi?$AAs?$AAt?$AAe?$AAn?$AAt?$AA?5?$AAI?$AAO?$AAB?$AA?5?$AAf?$AAi?$AAe?$AAl?$AAd?$AAs?$AA?$CC?$AA?0?$AA?5?$AAs?$AAt?$AAr?$AAe@ 101158d0     LIBCMTD:_flsbuf.obj
 0003:00008968       ??_C@_1BE@GOOJIKLI@?$AA_?$AAf?$AAl?$AAs?$AAb?$AAu?$AAf?$AA?4?$AAc?$AA?$AA@ 10115968     LIBCMTD:_flsbuf.obj
 0003:00008980       ??_C@_1O@EJLDHPPL@?$AAs?$AAi?$AAg?$AAn?$AAa?$AAl?$AA?$AA@ 10115980     LIBCMTD:winsig.obj
 0003:00008990       ??_C@_1BC@KDODBONJ@?$AAw?$AAi?$AAn?$AAs?$AAi?$AAg?$AA?4?$AAc?$AA?$AA@ 10115990     LIBCMTD:winsig.obj
 0003:000089a8       ??_C@_1DO@MLNEDKGB@?$AA?$CI?$AA?$CC?$AAI?$AAn?$AAv?$AAa?$AAl?$AAi?$AAd?$AA?5?$AAs?$AAi?$AAg?$AAn?$AAa?$AAl?$AA?5?$AAo?$AAr?$AA?5?$AAe?$AAr?$AAr?$AAo?$AAr?$AA?$CC?$AA?0?$AA?5?$AA0?$AA?$CJ?$AA?$AA@ 101159a8     LIBCMTD:winsig.obj
 0003:000089f4       ??_C@_08FKHPDPAC@winsig?4c?$AA@ 101159f4     LIBCMTD:winsig.obj
 0003:00008a00       ??_C@_1M@DMJEIKHL@?$AAr?$AAa?$AAi?$AAs?$AAe?$AA?$AA@ 10115a00     LIBCMTD:winsig.obj
 0003:00008a10       ??_C@_1DC@OIOKIELJ@?$AA_?$AAg?$AAe?$AAt?$AA_?$AAw?$AAi?$AAn?$AAm?$AAa?$AAj?$AAo?$AAr?$AA?$CI?$AA?$CG?$AAw?$AAi?$AAn?$AAm?$AAa?$AAj?$AAo?$AAr?$AA?$CJ?$AA?$AA@ 10115a10     LIBCMTD:crtmboxw.obj
 0003:00008a4c       ??_C@_0BI@DFKBFLJE@GetProcessWindowStation?$AA@ 10115a4c     LIBCMTD:crtmboxw.obj
 0003:00008a68       ??_C@_0BK@DEKFELLI@GetUserObjectInformationW?$AA@ 10115a68     LIBCMTD:crtmboxw.obj
 0003:00008a88       ??_C@_1DK@NLBDKACM@?$AA_?$AAg?$AAe?$AAt?$AA_?$AAo?$AAs?$AAp?$AAl?$AAa?$AAt?$AAf?$AAo?$AAr?$AAm?$AA?$CI?$AA?$CG?$AAo?$AAs?$AAp?$AAl?$AAa?$AAt?$AAf?$AAo?$AAr?$AAm?$AA?$CJ?$AA?$AA@ 10115a88     LIBCMTD:crtmboxw.obj
 0003:00008ad0       ??_C@_1CC@LBPMICNL@?$AA_?$AA_?$AAc?$AAr?$AAt?$AAM?$AAe?$AAs?$AAs?$AAa?$AAg?$AAe?$AAB?$AAo?$AAx?$AAW?$AA?$AA@ 10115ad0     LIBCMTD:crtmboxw.obj
 0003:00008af8       ??_C@_1GE@FEBHHKOE@?$AAf?$AA?3?$AA?2?$AAr?$AAt?$AAm?$AA?2?$AAv?$AAc?$AAt?$AAo?$AAo?$AAl?$AAs?$AA?2?$AAc?$AAr?$AAt?$AA_?$AAb?$AAl?$AAd?$AA?2?$AAs?$AAe?$AAl?$AAf?$AA_?$AAx?$AA8?$AA6?$AA?2@ 10115af8     LIBCMTD:crtmboxw.obj
 0003:00008b70       ??_C@_0BD@HHGDFDBJ@GetLastActivePopup?$AA@ 10115b70     LIBCMTD:crtmboxw.obj
 0003:00008b88       ??_C@_0BA@HNOPNCHB@GetActiveWindow?$AA@ 10115b88     LIBCMTD:crtmboxw.obj
 0003:00008b9c       ??_C@_0M@DLDCCGNP@MessageBoxW?$AA@ 10115b9c     LIBCMTD:crtmboxw.obj
 0003:00008bac       ??_C@_1BG@GOEBHBDC@?$AAU?$AAS?$AAE?$AAR?$AA3?$AA2?$AA?4?$AAD?$AAL?$AAL?$AA?$AA@ 10115bac     LIBCMTD:crtmboxw.obj
 0003:00008bc8       ??_C@_1CM@HABGDNLJ@?$AAl?$AAe?$AAn?$AAg?$AAt?$AAh?$AA?5?$AA?$DM?$AA?5?$AAs?$AAi?$AAz?$AAe?$AAI?$AAn?$AAT?$AAC?$AAh?$AAa?$AAr?$AAs?$AA?$AA@ 10115bc8     LIBCMTD:xtows.obj
 0003:00008bfc       ??_C@_1DE@PCJGDBBD@?$AA2?$AA?5?$AA?$DM?$AA?$DN?$AA?5?$AAr?$AAa?$AAd?$AAi?$AAx?$AA?5?$AA?$CG?$AA?$CG?$AA?5?$AAr?$AAa?$AAd?$AAi?$AAx?$AA?5?$AA?$DM?$AA?$DN?$AA?5?$AA3?$AA6?$AA?$AA@ 10115bfc     LIBCMTD:xtows.obj
 0003:00008c40       ??_C@_1FA@MKGGAGEI@?$AAs?$AAi?$AAz?$AAe?$AAI?$AAn?$AAT?$AAC?$AAh?$AAa?$AAr?$AAs?$AA?5?$AA?$DO?$AA?5?$AA?$CI?$AAs?$AAi?$AAz?$AAe?$AA_?$AAt?$AA?$CJ?$AA?$CI?$AAi?$AAs?$AA_?$AAn?$AAe?$AAg?$AA?5?$AA?$DP@ 10115c40     LIBCMTD:xtows.obj
 0003:00008ca0       ??_C@_1CC@JNJFIMGE@?$AAs?$AAi?$AAz?$AAe?$AAI?$AAn?$AAT?$AAC?$AAh?$AAa?$AAr?$AAs?$AA?5?$AA?$DO?$AA?5?$AA0?$AA?$AA@ 10115ca0     LIBCMTD:xtows.obj
 0003:00008cc8       ??_C@_1O@NCBFODOE@?$AAx?$AAt?$AAo?$AAw?$AA_?$AAs?$AA?$AA@ 10115cc8     LIBCMTD:xtows.obj
 0003:00008cd8       ??_C@_1FO@FKHEBPLJ@?$AAf?$AA?3?$AA?2?$AAr?$AAt?$AAm?$AA?2?$AAv?$AAc?$AAt?$AAo?$AAo?$AAl?$AAs?$AA?2?$AAc?$AAr?$AAt?$AA_?$AAb?$AAl?$AAd?$AA?2?$AAs?$AAe?$AAl?$AAf?$AA_?$AAx?$AA8?$AA6?$AA?2@ 10115cd8     LIBCMTD:xtows.obj
 0003:00008d48       ??_C@_1BC@HDEJCFPB@?$AAx?$AA6?$AA4?$AAt?$AAo?$AAw?$AA_?$AAs?$AA?$AA@ 10115d48     LIBCMTD:xtows.obj
 0003:00008d60       ??_C@_1FA@MJKDNFFB@?$AA?$CI?$AAL?$AA?$CC?$AAS?$AAt?$AAr?$AAi?$AAn?$AAg?$AA?5?$AAi?$AAs?$AA?5?$AAn?$AAo?$AAt?$AA?5?$AAn?$AAu?$AAl?$AAl?$AA?5?$AAt?$AAe?$AAr?$AAm?$AAi?$AAn?$AAa?$AAt?$AAe?$AAd@ 10115d60     LIBCMTD:wcsncat_s.obj
 0003:00008dc0       ??_C@_1DM@FHLMIEG@?$AAS?$AAt?$AAr?$AAi?$AAn?$AAg?$AA?5?$AAi?$AAs?$AA?5?$AAn?$AAo?$AAt?$AA?5?$AAn?$AAu?$AAl?$AAl?$AA?5?$AAt?$AAe?$AAr?$AAm?$AAi?$AAn?$AAa?$AAt?$AAe?$AAd?$AA?$AA@ 10115dc0     LIBCMTD:wcsncat_s.obj
 0003:00008e08       ??_C@_1BE@KPKIKKCF@?$AAw?$AAc?$AAs?$AAn?$AAc?$AAa?$AAt?$AA_?$AAs?$AA?$AA@ 10115e08     LIBCMTD:wcsncat_s.obj
 0003:00008e20       ??_C@_1GM@OBNDDMA@?$AAF?$AA?3?$AA?2?$AAR?$AAT?$AAM?$AA?2?$AAv?$AAc?$AAt?$AAo?$AAo?$AAl?$AAs?$AA?2?$AAc?$AAr?$AAt?$AA_?$AAb?$AAl?$AAd?$AA?2?$AAS?$AAE?$AAL?$AAF?$AA_?$AAX?$AA8?$AA6?$AA?2@ 10115e20     LIBCMTD:wcsncat_s.obj
 0003:00008ea8       ??_C@_1FC@PFMLEHKI@?$AA?$CI?$AA?$CI?$AA_?$AAD?$AAs?$AAt?$AA?$CJ?$AA?$CJ?$AA?5?$AA?$CB?$AA?$DN?$AA?5?$AAN?$AAU?$AAL?$AAL?$AA?5?$AA?$CG?$AA?$CG?$AA?5?$AA?$CI?$AA?$CI?$AA_?$AAS?$AAi?$AAz?$AAe?$AAI?$AAn?$AAW?$AAo?$AAr@ 10115ea8     LIBCMTD:wcsncat_s.obj
 0003:00008f0c       ??_C@_1BE@PMMBFFCC@?$AAw?$AAc?$AAs?$AAn?$AAc?$AAp?$AAy?$AA_?$AAs?$AA?$AA@ 10115f0c     LIBCMTD:wcsncpy_s.obj
 0003:00008f28       ??_C@_1GM@MGKGJLGA@?$AAF?$AA?3?$AA?2?$AAR?$AAT?$AAM?$AA?2?$AAv?$AAc?$AAt?$AAo?$AAo?$AAl?$AAs?$AA?2?$AAc?$AAr?$AAt?$AA_?$AAb?$AAl?$AAd?$AA?2?$AAS?$AAE?$AAL?$AAF?$AA_?$AAX?$AA8?$AA6?$AA?2@ 10115f28     LIBCMTD:wcsncpy_s.obj
 0003:00008fac       ??_C@_1BC@PLIEPKPJ@?$AAw?$AAc?$AAs?$AAc?$AAa?$AAt?$AA_?$AAs?$AA?$AA@ 10115fac     LIBCMTD:wcscat_s.obj
 0003:00008fc8       ??_C@_1GK@BGEBPLEE@?$AAF?$AA?3?$AA?2?$AAR?$AAT?$AAM?$AA?2?$AAv?$AAc?$AAt?$AAo?$AAo?$AAl?$AAs?$AA?2?$AAc?$AAr?$AAt?$AA_?$AAb?$AAl?$AAd?$AA?2?$AAS?$AAE?$AAL?$AAF?$AA_?$AAX?$AA8?$AA6?$AA?2@ 10115fc8     LIBCMTD:wcscat_s.obj
 0003:00009048       ??_C@_1BC@KIONAFPO@?$AAw?$AAc?$AAs?$AAc?$AAp?$AAy?$AA_?$AAs?$AA?$AA@ 10116048     LIBCMTD:wcscpy_s.obj
 0003:00009060       ??_C@_1BC@BHLPNJBO@?$AAf?$AAw?$AAp?$AAr?$AAi?$AAn?$AAt?$AAf?$AA?$AA@ 10116060     LIBCMTD:fwprintf.obj
 0003:00009078       ??_C@_1BG@MGCFCFAI@?$AAf?$AAw?$AAp?$AAr?$AAi?$AAn?$AAt?$AAf?$AA?4?$AAc?$AA?$AA@ 10116078     LIBCMTD:fwprintf.obj
 0003:00009094       ??_C@_09KGBNCNDN@setvbuf?4c?$AA@ 10116094     LIBCMTD:setvbuf.obj
 0003:000090a0       ??_C@_1EG@IJNJIDNB@?$AA?$CI?$AA?$CI?$AA2?$AA?5?$AA?$DM?$AA?$DN?$AA?5?$AAs?$AAi?$AAz?$AAe?$AA?$CJ?$AA?5?$AA?$CG?$AA?$CG?$AA?5?$AA?$CI?$AAs?$AAi?$AAz?$AAe?$AA?5?$AA?$DM?$AA?$DN?$AA?5?$AAI?$AAN?$AAT?$AA_?$AAM?$AAA?$AAX@ 101160a0     LIBCMTD:setvbuf.obj
 0003:000090f8       ??_C@_1HC@CBFEDAGG@?$AA?$CI?$AAt?$AAy?$AAp?$AAe?$AA?5?$AA?$DN?$AA?$DN?$AA?5?$AA_?$AAI?$AAO?$AAN?$AAB?$AAF?$AA?$CJ?$AA?5?$AA?$HM?$AA?$HM?$AA?5?$AA?$CI?$AAt?$AAy?$AAp?$AAe?$AA?5?$AA?$DN?$AA?$DN?$AA?5?$AA_?$AAI?$AAO@ 101160f8     LIBCMTD:setvbuf.obj
 0003:00009180       ??_C@_1BA@OGODIODK@?$AAs?$AAe?$AAt?$AAv?$AAb?$AAu?$AAf?$AA?$AA@ 10116180     LIBCMTD:setvbuf.obj
 0003:00009194       ??_C@_1BE@FMDCPFIG@?$AAs?$AAe?$AAt?$AAv?$AAb?$AAu?$AAf?$AA?4?$AAc?$AA?$AA@ 10116194     LIBCMTD:setvbuf.obj
 0003:000091ac       ??_C@_1CA@LFDHAMEM@?$AA_?$AAs?$AAe?$AAt?$AA_?$AAe?$AAr?$AAr?$AAo?$AAr?$AA_?$AAm?$AAo?$AAd?$AAe?$AA?$AA@ 101161ac     LIBCMTD:errmode.obj
 0003:000091d4       ??_C@_1BE@FFANBHLE@?$AAe?$AAr?$AAr?$AAm?$AAo?$AAd?$AAe?$AA?4?$AAc?$AA?$AA@ 101161d4     LIBCMTD:errmode.obj
 0003:000091ec       ??_C@_1DE@BCNCAIK@?$AA?$CI?$AA?$CC?$AAI?$AAn?$AAv?$AAa?$AAl?$AAi?$AAd?$AA?5?$AAe?$AAr?$AAr?$AAo?$AAr?$AA_?$AAm?$AAo?$AAd?$AAe?$AA?$CC?$AA?0?$AA?5?$AA0?$AA?$CJ?$AA?$AA@ 101161ec     LIBCMTD:errmode.obj
 0003:0000922c       ??_C@_0DN@EBBNMLME@?$CIPress?5Retry?5to?5debug?5the?5applic@ 1011622c     LIBCMTD:assert.obj
 0003:00009278       ??_C@_1LM@PPELICOO@?$AAs?$AAt?$AAr?$AAc?$AAa?$AAt?$AA_?$AAs?$AA?$CI?$AAa?$AAs?$AAs?$AAe?$AAr?$AAt?$AAb?$AAu?$AAf?$AA?0?$AA?5?$AA?$CI?$AA6?$AA0?$AA?5?$AA?$CK?$AA?5?$AA9?$AA?$CJ?$AA?0?$AA?5?$AA?$CC?$AA?$CI@ 10116278     LIBCMTD:assert.obj
 0003:00009360       ??_C@_1FG@FPMGDMJC@?$AAs?$AAt?$AAr?$AAc?$AAa?$AAt?$AA_?$AAs?$AA?$CI?$AAa?$AAs?$AAs?$AAe?$AAr?$AAt?$AAb?$AAu?$AAf?$AA?0?$AA?5?$AA?$CI?$AA6?$AA0?$AA?5?$AA?$CK?$AA?5?$AA9?$AA?$CJ?$AA?0?$AA?5?$AAd?$AAb@ 10116360     LIBCMTD:assert.obj
 0003:000093c8       ??_C@_0HA@OJHAGA@For?5information?5on?5how?5your?5prog@ 101163c8     LIBCMTD:assert.obj
 0003:00009450       ??_C@_1BCK@FOGOPFPO@?$AAs?$AAt?$AAr?$AAc?$AAa?$AAt?$AA_?$AAs?$AA?$CI?$AAa?$AAs?$AAs?$AAe?$AAr?$AAt?$AAb?$AAu?$AAf?$AA?0?$AA?5?$AA?$CI?$AA6?$AA0?$AA?5?$AA?$CK?$AA?5?$AA9?$AA?$CJ?$AA?0?$AA?5?$AA?$CC?$AAF@ 10116450     LIBCMTD:assert.obj
 0003:000095b8       ??_C@_1EM@ENNCDANH@?$AAs?$AAt?$AAr?$AAc?$AAa?$AAt?$AA_?$AAs?$AA?$CI?$AA?5?$AAa?$AAs?$AAs?$AAe?$AAr?$AAt?$AAb?$AAu?$AAf?$AA?0?$AA?5?$AA?$CI?$AA6?$AA0?$AA?5?$AA?$CK?$AA?5?$AA9?$AA?$CJ?$AA?0?$AA?5?$AAe@ 101165b8     LIBCMTD:assert.obj
 0003:00009618       ??_C@_1CHK@HNOMNMBD@?$AA_?$AAm?$AAb?$AAs?$AAn?$AAb?$AAc?$AAa?$AAt?$AA_?$AAs?$AA?$CI?$AA?5?$AAa?$AAs?$AAs?$AAe?$AAr?$AAt?$AAb?$AAu?$AAf?$AA?0?$AA?5?$AA?$CI?$AA6?$AA0?$AA?5?$AA?$CK?$AA?5?$AA9?$AA?$CJ@ 10116618     LIBCMTD:assert.obj
 0003:00009910       ??_C@_0N@MEECIJGN@Expression?3?5?$AA@ 10116910     LIBCMTD:assert.obj
 0003:00009920       ??_C@_1GA@GHECLIPG@?$AAs?$AAt?$AAr?$AAc?$AAa?$AAt?$AA_?$AAs?$AA?$CI?$AA?5?$AAa?$AAs?$AAs?$AAe?$AAr?$AAt?$AAb?$AAu?$AAf?$AA?0?$AA?5?$AA?$CI?$AA6?$AA0?$AA?5?$AA?$CK?$AA?5?$AA9?$AA?$CJ?$AA?0?$AA?5?$AA?$CC@ 10116920     LIBCMTD:assert.obj
 0003:00009998       ??_C@_1KG@MJEHKFDP@?$AA_?$AAi?$AAt?$AAo?$AAa?$AA_?$AAs?$AA?$CI?$AA?5?$AAl?$AAi?$AAn?$AAe?$AAn?$AAo?$AA?0?$AA?5?$AAa?$AAs?$AAs?$AAe?$AAr?$AAt?$AAb?$AAu?$AAf?$AA?5?$AA?$CL?$AA?5?$AAs?$AAt?$AAr@ 10116998     LIBCMTD:assert.obj
 0003:00009a60       ??_C@_06FIEBOLOH@Line?3?5?$AA@ 10116a60     LIBCMTD:assert.obj
 0003:00009a68       ??_C@_1FE@EHMPHKDB@?$AAs?$AAt?$AAr?$AAc?$AAa?$AAt?$AA_?$AAs?$AA?$CI?$AA?5?$AAa?$AAs?$AAs?$AAe?$AAr?$AAt?$AAb?$AAu?$AAf?$AA?0?$AA?5?$AA?$CI?$AA6?$AA0?$AA?5?$AA?$CK?$AA?5?$AA9?$AA?$CJ?$AA?0?$AA?5?$AA?$CC@ 10116a68     LIBCMTD:assert.obj
 0003:00009ad0       ??_C@_1FE@BELKICLD@?$AAs?$AAt?$AAr?$AAc?$AAa?$AAt?$AA_?$AAs?$AA?$CI?$AA?5?$AAa?$AAs?$AAs?$AAe?$AAr?$AAt?$AAb?$AAu?$AAf?$AA?0?$AA?5?$AA?$CI?$AA6?$AA0?$AA?5?$AA?$CK?$AA?5?$AA9?$AA?$CJ?$AA?0?$AA?5?$AAf@ 10116ad0     LIBCMTD:assert.obj
 0003:00009b38       ??_C@_1IC@IABENIAD@?$AAs?$AAt?$AAr?$AAc?$AAa?$AAt?$AA_?$AAs?$AA?$CI?$AA?5?$AAa?$AAs?$AAs?$AAe?$AAr?$AAt?$AAb?$AAu?$AAf?$AA?0?$AA?5?$AA?$CI?$AA6?$AA0?$AA?5?$AA?$CK?$AA?5?$AA9?$AA?$CJ?$AA?0?$AA?5?$AAp@ 10116b38     LIBCMTD:assert.obj
 0003:00009bd8       ??_C@_1HK@LJCIAEID@?$AA_?$AAm?$AAb?$AAs?$AAn?$AAb?$AAc?$AAa?$AAt?$AA_?$AAs?$AA?$CI?$AA?5?$AAa?$AAs?$AAs?$AAe?$AAr?$AAt?$AAb?$AAu?$AAf?$AA?0?$AA?5?$AA?$CI?$AA6?$AA0?$AA?5?$AA?$CK?$AA?5?$AA9?$AA?$CJ@ 10116bd8     LIBCMTD:assert.obj
 0003:00009c70       ??_C@_1HC@NNJOOJHD@?$AA_?$AAm?$AAb?$AAs?$AAn?$AAb?$AAc?$AAa?$AAt?$AA_?$AAs?$AA?$CI?$AA?5?$AAa?$AAs?$AAs?$AAe?$AAr?$AAt?$AAb?$AAu?$AAf?$AA?0?$AA?5?$AA?$CI?$AA6?$AA0?$AA?5?$AA?$CK?$AA?5?$AA9?$AA?$CJ@ 10116c70     LIBCMTD:assert.obj
 0003:00009cf8       ??_C@_1FO@ILLBEHNB@?$AAs?$AAt?$AAr?$AAc?$AAa?$AAt?$AA_?$AAs?$AA?$CI?$AA?5?$AAa?$AAs?$AAs?$AAe?$AAr?$AAt?$AAb?$AAu?$AAf?$AA?0?$AA?5?$AA?$CI?$AA6?$AA0?$AA?5?$AA?$CK?$AA?5?$AA9?$AA?$CJ?$AA?0?$AA?5?$AAp@ 10116cf8     LIBCMTD:assert.obj
 0003:00009d68       ??_C@_1FG@BIHAHDLM@?$AAs?$AAt?$AAr?$AAc?$AAa?$AAt?$AA_?$AAs?$AA?$CI?$AA?5?$AAa?$AAs?$AAs?$AAe?$AAr?$AAt?$AAb?$AAu?$AAf?$AA?0?$AA?5?$AA?$CI?$AA6?$AA0?$AA?5?$AA?$CK?$AA?5?$AA9?$AA?$CJ?$AA?0?$AA?5?$AAd@ 10116d68     LIBCMTD:assert.obj
 0003:00009dd0       ??_C@_1GK@LELDAJFN@?$AA_?$AAm?$AAb?$AAs?$AAn?$AAb?$AAc?$AAa?$AAt?$AA_?$AAs?$AA?$CI?$AA?5?$AAa?$AAs?$AAs?$AAe?$AAr?$AAt?$AAb?$AAu?$AAf?$AA?0?$AA?5?$AA?$CI?$AA6?$AA0?$AA?5?$AA?$CK?$AA?5?$AA9?$AA?$CJ@ 10116dd0     LIBCMTD:assert.obj
 0003:00009e50       ??_C@_06IGPBOHMJ@File?3?5?$AA@ 10116e50     LIBCMTD:assert.obj
 0003:00009e58       ??_C@_1FE@JHHKPPGM@?$AAs?$AAt?$AAr?$AAc?$AAa?$AAt?$AA_?$AAs?$AA?$CI?$AA?5?$AAa?$AAs?$AAs?$AAe?$AAr?$AAt?$AAb?$AAu?$AAf?$AA?0?$AA?5?$AA?$CI?$AA6?$AA0?$AA?5?$AA?$CK?$AA?5?$AA9?$AA?$CJ?$AA?0?$AA?5?$AA?$CC@ 10116e58     LIBCMTD:assert.obj
 0003:00009ec0       ??_C@_1FC@HGJOLIGH@?$AAs?$AAt?$AAr?$AAc?$AAa?$AAt?$AA_?$AAs?$AA?$CI?$AA?5?$AAa?$AAs?$AAs?$AAe?$AAr?$AAt?$AAb?$AAu?$AAf?$AA?0?$AA?5?$AA?$CI?$AA6?$AA0?$AA?5?$AA?$CK?$AA?5?$AA9?$AA?$CJ?$AA?0?$AA?5?$AAn@ 10116ec0     LIBCMTD:assert.obj
 0003:00009f28       ??_C@_1EK@HNKCAGGP@?$AAs?$AAt?$AAr?$AAc?$AAa?$AAt?$AA_?$AAs?$AA?$CI?$AA?5?$AAa?$AAs?$AAs?$AAe?$AAr?$AAt?$AAb?$AAu?$AAf?$AA?0?$AA?5?$AA?$CI?$AA6?$AA0?$AA?5?$AA?$CK?$AA?5?$AA9?$AA?$CJ?$AA?0?$AA?5?$AAp@ 10116f28     LIBCMTD:assert.obj
 0003:00009f80       ??_C@_1HO@DGLFHLNC@?$AA_?$AAm?$AAb?$AAs?$AAn?$AAb?$AAc?$AAp?$AAy?$AA_?$AAs?$AA?$CI?$AA?5?$AAp?$AAc?$AAh?$AA?0?$AA?5?$AA?$CI?$AA2?$AA6?$AA0?$AA?5?$AA?$CL?$AA?5?$AA1?$AA?$CJ?$AA?5?$AA?9?$AA?5?$AA?$CI?$AAp@ 10116f80     LIBCMTD:assert.obj
 0003:0000a018       ??_C@_1GO@MKBPHEIL@?$AAs?$AAt?$AAr?$AAc?$AAp?$AAy?$AA_?$AAs?$AA?$CI?$AA?5?$AAp?$AAr?$AAo?$AAg?$AAn?$AAa?$AAm?$AAe?$AA?0?$AA?5?$AA2?$AA6?$AA0?$AA?5?$AA?$CL?$AA?5?$AA1?$AA?0?$AA?5?$AA?$CC?$AA?$DM?$AAp@ 10117018     LIBCMTD:assert.obj
 0003:0000a09c       ??_C@_09KLGCKDOD@Program?3?5?$AA@ 1011709c     LIBCMTD:assert.obj
 0003:0000a0a8       ??_C@_1FK@JLNGAFHA@?$AAs?$AAt?$AAr?$AAc?$AAa?$AAt?$AA_?$AAs?$AA?$CI?$AA?5?$AAa?$AAs?$AAs?$AAe?$AAr?$AAt?$AAb?$AAu?$AAf?$AA?0?$AA?5?$AA?$CI?$AA6?$AA0?$AA?5?$AA?$CK?$AA?5?$AA9?$AA?$CJ?$AA?0?$AA?5?$AA?$CC@ 101170a8     LIBCMTD:assert.obj
 0003:0000a118       ??_C@_1FI@LABOHEIE@?$AAs?$AAt?$AAr?$AAc?$AAa?$AAt?$AA_?$AAs?$AA?$CI?$AA?5?$AAa?$AAs?$AAs?$AAe?$AAr?$AAt?$AAb?$AAu?$AAf?$AA?0?$AA?5?$AA?$CI?$AA6?$AA0?$AA?5?$AA?$CK?$AA?5?$AA9?$AA?$CJ?$AA?0?$AA?5?$AAd@ 10117118     LIBCMTD:assert.obj
 0003:0000a184       ??_C@_0BC@LAIDCHCH@Assertion?5failed?$CB?$AA@ 10117184     LIBCMTD:assert.obj
 0003:0000a1a0       ??_C@_1GK@MEIIIEKC@?$AAs?$AAt?$AAr?$AAc?$AAp?$AAy?$AA_?$AAs?$AA?$CI?$AA?5?$AAa?$AAs?$AAs?$AAe?$AAr?$AAt?$AAb?$AAu?$AAf?$AA?0?$AA?5?$AA?$CI?$AA6?$AA0?$AA?5?$AA?$CK?$AA?5?$AA9?$AA?$CJ?$AA?0?$AA?5?$AA?$CC@ 101171a0     LIBCMTD:assert.obj
 0003:0000a220       ??_C@_1BA@DADDCNOK@?$AA_?$AAa?$AAs?$AAs?$AAe?$AAr?$AAt?$AA?$AA@ 10117220     LIBCMTD:assert.obj
 0003:0000a234       ??_C@_1BC@IOLPDCAK@?$AAa?$AAs?$AAs?$AAe?$AAr?$AAt?$AA?4?$AAc?$AA?$AA@ 10117234     LIBCMTD:assert.obj
 0003:0000a24c       ??_C@_1BC@HGPNAKGC@?$AAs?$AAt?$AAr?$AAc?$AAa?$AAt?$AA_?$AAs?$AA?$AA@ 1011724c     LIBCMTD:strcat_s.obj
 0003:0000a264       ??_C@_1CG@LLJCAOHF@?$AA_?$AAw?$AAc?$AAs?$AAt?$AAo?$AAm?$AAb?$AAs?$AA_?$AAl?$AA_?$AAh?$AAe?$AAl?$AAp?$AAe?$AAr?$AA?$AA@ 10117264     LIBCMTD:wcstombs.obj
 0003:0000a294       ??_C@_1BG@POHBKINF@?$AAw?$AAc?$AAs?$AAt?$AAo?$AAm?$AAb?$AAs?$AA?4?$AAc?$AA?$AA@ 10117294     LIBCMTD:wcstombs.obj
 0003:0000a2b0       ??_C@_1BK@OIBENBPM@?$AAp?$AAw?$AAc?$AAs?$AA?5?$AA?$CB?$AA?$DN?$AA?5?$AAN?$AAU?$AAL?$AAL?$AA?$AA@ 101172b0     LIBCMTD:wcstombs.obj
 0003:0000a2d0       ??_C@_1CM@KEOGBFLI@?$AAs?$AAi?$AAz?$AAe?$AAI?$AAn?$AAB?$AAy?$AAt?$AAe?$AAs?$AA?5?$AA?$DO?$AA?5?$AAr?$AAe?$AAt?$AAs?$AAi?$AAz?$AAe?$AA?$AA@ 101172d0     LIBCMTD:wcstombs.obj
 0003:0000a304       ??_C@_1BM@BDMCLLDL@?$AA_?$AAw?$AAc?$AAs?$AAt?$AAo?$AAm?$AAb?$AAs?$AA_?$AAs?$AA_?$AAl?$AA?$AA@ 10117304     LIBCMTD:wcstombs.obj
 0003:0000a328       ??_C@_1IM@MFGKHGBP@?$AA?$CI?$AAd?$AAs?$AAt?$AA?5?$AA?$CB?$AA?$DN?$AA?5?$AAN?$AAU?$AAL?$AAL?$AA?5?$AA?$CG?$AA?$CG?$AA?5?$AAs?$AAi?$AAz?$AAe?$AAI?$AAn?$AAB?$AAy?$AAt?$AAe?$AAs?$AA?5?$AA?$DO?$AA?5?$AA0?$AA?$CJ@ 10117328     LIBCMTD:wcstombs.obj
 0003:0000a3d0       ??_C@_1CE@IGKFIJFD@?$AA_?$AAv?$AAs?$AAw?$AAp?$AAr?$AAi?$AAn?$AAt?$AAf?$AA_?$AAh?$AAe?$AAl?$AAp?$AAe?$AAr?$AA?$AA@ 101173d0     LIBCMTD:vswprnc.obj
 0003:0000a400       ??_C@_1GG@PFLMBLMN@?$AAf?$AA?3?$AA?2?$AAr?$AAt?$AAm?$AA?2?$AAv?$AAc?$AAt?$AAo?$AAo?$AAl?$AAs?$AA?2?$AAc?$AAr?$AAt?$AA_?$AAb?$AAl?$AAd?$AA?2?$AAs?$AAe?$AAl?$AAf?$AA_?$AAx?$AA8?$AA6?$AA?2@ 10117400     LIBCMTD:vswprnc.obj
 0003:0000a47c       ??_C@_1DA@HPBFKMEB@?$AA?$CI?$AA?$CC?$AAB?$AAu?$AAf?$AAf?$AAe?$AAr?$AA?5?$AAt?$AAo?$AAo?$AA?5?$AAs?$AAm?$AAa?$AAl?$AAl?$AA?$CC?$AA?0?$AA?5?$AA0?$AA?$CJ?$AA?$AA@ 1011747c     LIBCMTD:vswprnc.obj
 0003:0000a4b8       ??_C@_1EE@MPCHJFGP@?$AAs?$AAt?$AAr?$AAi?$AAn?$AAg?$AA?5?$AA?$CB?$AA?$DN?$AA?5?$AAN?$AAU?$AAL?$AAL?$AA?5?$AA?$CG?$AA?$CG?$AA?5?$AAs?$AAi?$AAz?$AAe?$AAI?$AAn?$AAW?$AAo?$AAr?$AAd?$AAs?$AA?5?$AA?$DO?$AA?5@ 101174b8     LIBCMTD:vswprnc.obj
 0003:0000a50c       ??_C@_1BO@OALHJLCI@?$AA_?$AAv?$AAs?$AAw?$AAp?$AAr?$AAi?$AAn?$AAt?$AAf?$AA_?$AAs?$AA_?$AAl?$AA?$AA@ 1011750c     LIBCMTD:vswprnc.obj
 0003:0000a530       ??_C@_1BO@MLMCMBKN@?$AAf?$AAo?$AAr?$AAm?$AAa?$AAt?$AA?5?$AA?$CB?$AA?$DN?$AA?5?$AAN?$AAU?$AAL?$AAL?$AA?$AA@ 10117530     LIBCMTD:vswprnc.obj
 0003:0000a554       ??_C@_1CA@BKFKMJFF@?$AA_?$AAv?$AAs?$AAn?$AAw?$AAp?$AAr?$AAi?$AAn?$AAt?$AAf?$AA_?$AAs?$AA_?$AAl?$AA?$AA@ 10117554     LIBCMTD:vswprnc.obj
 0003:0000a57c       ??_C@_1DE@MMOGFGHF@?$AAs?$AAt?$AAr?$AAc?$AAp?$AAy?$AA_?$AAs?$AA?$CI?$AA?$CK?$AAe?$AAn?$AAv?$AA?0?$AA?5?$AAc?$AAc?$AAh?$AAa?$AAr?$AAs?$AA?0?$AA?5?$AAp?$AA?$CJ?$AA?$AA@ 1011757c     LIBCMTD:stdenvp.obj
 0003:0000a5bc       ??_C@_1BC@GHMCNHHL@?$AA_?$AAs?$AAe?$AAt?$AAe?$AAn?$AAv?$AAp?$AA?$AA@ 101175bc     LIBCMTD:stdenvp.obj
 0003:0000a5d4       ??_C@_1BE@DFNOPGHI@?$AAs?$AAt?$AAd?$AAe?$AAn?$AAv?$AAp?$AA?4?$AAc?$AA?$AA@ 101175d4     LIBCMTD:stdenvp.obj
 0003:0000a5ec       ??_C@_09HCDLHOJP@stdenvp?4c?$AA@ 101175ec     LIBCMTD:stdenvp.obj
 0003:0000a5f8       ??_C@_09IKILHJIC@stdargv?4c?$AA@ 101175f8     LIBCMTD:stdargv.obj
 0003:0000a604       ??_C@_07BPGNOCOG@a_env?4c?$AA@ 10117604     LIBCMTD:a_env.obj
 0003:0000a610       ??_C@_0OH@IHEJDJAH@Microsoft?5Visual?5C?$CL?$CL?5Runtime?5Lib@ 10117610     LIBCMTD:gs_support.obj
 0003:0000a728       ??_C@_1BE@CEKCJJBD@?$AAi?$AAs?$AAc?$AAt?$AAy?$AAp?$AAe?$AA?4?$AAc?$AA?$AA@ 10117728     LIBCMTD:isctype.obj
 0003:0000a740       ??_C@_1DC@BPLPALML@?$AA?$CI?$AAu?$AAn?$AAs?$AAi?$AAg?$AAn?$AAe?$AAd?$AA?$CJ?$AA?$CI?$AAc?$AA?5?$AA?$CL?$AA?5?$AA1?$AA?$CJ?$AA?5?$AA?$DM?$AA?$DN?$AA?5?$AA2?$AA5?$AA6?$AA?$AA@ 10117740     LIBCMTD:isctype.obj
 0003:0000a77c       ??_C@_09KJLOAKHC@mbctype?4c?$AA@ 1011777c     LIBCMTD:mbctype.obj
 0003:0000a788       ??_C@_07LCBHPJJN@LC_TIME?$AA@ 10117788     LIBCMTD:setlocal.obj
 0003:0000a794       ??_C@_0L@DLHIECNL@LC_NUMERIC?$AA@ 10117794     LIBCMTD:setlocal.obj
 0003:0000a7a4       ??_C@_0M@MIENIKLA@LC_MONETARY?$AA@ 101177a4     LIBCMTD:setlocal.obj
 0003:0000a7b4       ??_C@_08EADHIDAD@LC_CTYPE?$AA@ 101177b4     LIBCMTD:setlocal.obj
 0003:0000a7c0       ??_C@_0L@KFJHEKIK@LC_COLLATE?$AA@ 101177c0     LIBCMTD:setlocal.obj
 0003:0000a7d0       ??_C@_06NEFDFEKB@LC_ALL?$AA@ 101177d0     LIBCMTD:setlocal.obj
 0003:0000a7d8       ___lc_category             101177d8     LIBCMTD:setlocal.obj
 0003:0000a8c8       ??_C@_1BG@PFHEEGCP@?$AAs?$AAe?$AAt?$AAl?$AAo?$AAc?$AAa?$AAl?$AA?4?$AAc?$AA?$AA@ 101178c8     LIBCMTD:setlocal.obj
 0003:0000a8e8       ??_C@_1BKC@GGIENNAK@?$AA?$CI?$AA?$CI?$AAp?$AAt?$AAl?$AAo?$AAc?$AAi?$AA?9?$AA?$DO?$AAl?$AAc?$AA_?$AAc?$AAa?$AAt?$AAe?$AAg?$AAo?$AAr?$AAy?$AA?$FL?$AAc?$AAa?$AAt?$AAe?$AAg?$AAo?$AAr?$AAy?$AA?$FN?$AA?4@ 101178e8     LIBCMTD:setlocal.obj
 0003:0000aae0       ??_C@_1CI@FGIONOJM@?$AA_?$AAc?$AAo?$AAn?$AAf?$AAi?$AAg?$AAt?$AAh?$AAr?$AAe?$AAa?$AAd?$AAl?$AAo?$AAc?$AAa?$AAl?$AAe?$AA?$AA@ 10117ae0     LIBCMTD:setlocal.obj
 0003:0000ab10       ??_C@_1GA@LDEGDKD@?$AA?$CI?$AA?$CC?$AAI?$AAn?$AAv?$AAa?$AAl?$AAi?$AAd?$AA?5?$AAp?$AAa?$AAr?$AAa?$AAm?$AAe?$AAt?$AAe?$AAr?$AA?5?$AAf?$AAo?$AAr?$AA?5?$AA_?$AAc?$AAo?$AAn?$AAf?$AAi?$AAg?$AAt@ 10117b10     LIBCMTD:setlocal.obj
 0003:0000ab84       ??_C@_0L@LEECJGMI@setlocal?4c?$AA@ 10117b84     LIBCMTD:setlocal.obj
 0003:0000ab94       ??_C@_1BE@DBJGBOJC@?$AAs?$AAe?$AAt?$AAl?$AAo?$AAc?$AAa?$AAl?$AAe?$AA?$AA@ 10117b94     LIBCMTD:setlocal.obj
 0003:0000abb0       ??_C@_1FG@OHLFEKMC@?$AAL?$AAC?$AA_?$AAM?$AAI?$AAN?$AA?5?$AA?$DM?$AA?$DN?$AA?5?$AA_?$AAc?$AAa?$AAt?$AAe?$AAg?$AAo?$AAr?$AAy?$AA?5?$AA?$CG?$AA?$CG?$AA?5?$AA_?$AAc?$AAa?$AAt?$AAe?$AAg?$AAo?$AAr?$AAy@ 10117bb0     LIBCMTD:setlocal.obj
 0003:0000ac18       ??_C@_1IA@PFIKKKFB@?$AAs?$AAt?$AAr?$AAn?$AAc?$AAp?$AAy?$AA_?$AAs?$AA?$CI?$AAl?$AAc?$AAt?$AAe?$AAm?$AAp?$AA?0?$AA?5?$AA?$CI?$AAs?$AAi?$AAz?$AAe?$AAo?$AAf?$AA?$CI?$AAl?$AAc?$AAt?$AAe?$AAm?$AAp@ 10117c18     LIBCMTD:setlocal.obj
 0003:0000acb4       ??_C@_1CE@OFNHIOO@?$AA_?$AAs?$AAe?$AAt?$AAl?$AAo?$AAc?$AAa?$AAl?$AAe?$AA_?$AAn?$AAo?$AAl?$AAo?$AAc?$AAk?$AA?$AA@ 10117cb4     LIBCMTD:setlocal.obj
 0003:0000ace0       ??_C@_01ICJEACDI@?$DL?$AA@ 10117ce0     LIBCMTD:setlocal.obj
 0003:0000ace4       ??_C@_02BALPLPBG@?$DN?$DL?$AA@ 10117ce4     LIBCMTD:setlocal.obj
 0003:0000ace8       ??_C@_1GO@JALHLJEH@?$AAs?$AAt?$AAr?$AAc?$AAp?$AAy?$AA_?$AAs?$AA?$CI?$AAp?$AAc?$AAh?$AA?5?$AA?$CL?$AA?5?$AAs?$AAi?$AAz?$AAe?$AAo?$AAf?$AA?$CI?$AAi?$AAn?$AAt?$AA?$CJ?$AA?0?$AA?5?$AAc?$AAc?$AAh?$AA?5@ 10117ce8     LIBCMTD:setlocal.obj
 0003:0000ad6c       ??_C@_1CG@IEFIICPK@?$AA_?$AAs?$AAe?$AAt?$AAl?$AAo?$AAc?$AAa?$AAl?$AAe?$AA_?$AAs?$AAe?$AAt?$AA_?$AAc?$AAa?$AAt?$AA?$AA@ 10117d6c     LIBCMTD:setlocal.obj
 0003:0000ad9c       ??_C@_1DA@GDKKLCLM@?$AAs?$AAt?$AAr?$AAc?$AAa?$AAt?$AA_?$AAs?$AA?$CI?$AAp?$AAc?$AAh?$AA?0?$AA?5?$AAc?$AAc?$AAh?$AA?0?$AA?5?$AA?$CC?$AA?$DL?$AA?$CC?$AA?$CJ?$AA?$AA@ 10117d9c     LIBCMTD:setlocal.obj
 0003:0000add8       ??_C@_1CG@NNFIJLDA@?$AA_?$AAs?$AAe?$AAt?$AAl?$AAo?$AAc?$AAa?$AAl?$AAe?$AA_?$AAg?$AAe?$AAt?$AA_?$AAa?$AAl?$AAl?$AA?$AA@ 10117dd8     LIBCMTD:setlocal.obj
 0003:0000ae08       ??_C@_01NEMOKFLO@?$DN?$AA@ 10117e08     LIBCMTD:setlocal.obj
 0003:0000ae10       ??_C@_1FA@MHAOOIBO@?$AAs?$AAt?$AAr?$AAc?$AAp?$AAy?$AA_?$AAs?$AA?$CI?$AAo?$AAu?$AAt?$AAp?$AAu?$AAt?$AA?0?$AA?5?$AAs?$AAi?$AAz?$AAe?$AAI?$AAn?$AAC?$AAh?$AAa?$AAr?$AAs?$AA?0?$AA?5?$AAc?$AAa@ 10117e10     LIBCMTD:setlocal.obj
 0003:0000ae70       ??_C@_1IA@ONNFOEDA@?$AAs?$AAt?$AAr?$AAn?$AAc?$AAp?$AAy?$AA_?$AAs?$AA?$CI?$AAc?$AAa?$AAc?$AAh?$AAe?$AAi?$AAn?$AA?0?$AA?5?$AAc?$AAa?$AAc?$AAh?$AAe?$AAi?$AAn?$AAS?$AAi?$AAz?$AAe?$AA?0?$AA?5@ 10117e70     LIBCMTD:setlocal.obj
 0003:0000af0c       ??_C@_01GFHCPBMG@C?$AA@    10117f0c     LIBCMTD:setlocal.obj
 0003:0000af10       ??_C@_1EG@MOMHKOD@?$AAs?$AAt?$AAr?$AAc?$AAp?$AAy?$AA_?$AAs?$AA?$CI?$AAo?$AAu?$AAt?$AAp?$AAu?$AAt?$AA?0?$AA?5?$AAs?$AAi?$AAz?$AAe?$AAI?$AAn?$AAC?$AAh?$AAa?$AAr?$AAs?$AA?0?$AA?5?$AA?$CC?$AAC@ 10117f10     LIBCMTD:setlocal.obj
 0003:0000af64       ??_C@_1BM@OIIBLEFG@?$AA_?$AAe?$AAx?$AAp?$AAa?$AAn?$AAd?$AAl?$AAo?$AAc?$AAa?$AAl?$AAe?$AA?$AA@ 10117f64     LIBCMTD:setlocal.obj
 0003:0000af88       ??_C@_1BGM@IJDLABMC@?$AAs?$AAt?$AAr?$AAc?$AAa?$AAt?$AA_?$AAs?$AA?$CI?$AAo?$AAu?$AAt?$AAs?$AAt?$AAr?$AA?0?$AA?5?$AAs?$AAi?$AAz?$AAe?$AAI?$AAn?$AAB?$AAy?$AAt?$AAe?$AAs?$AA?0?$AA?5?$AA?$CI?$AA?5@ 10117f88     LIBCMTD:setlocal.obj
 0003:0000b13c       ??_C@_1BC@PIABMDIP@?$AA_?$AAs?$AAt?$AAr?$AAc?$AAa?$AAt?$AAs?$AA?$AA@ 1011813c     LIBCMTD:setlocal.obj
 0003:0000b158       ??_C@_1MM@NOPMGFHF@?$AAs?$AAt?$AAr?$AAn?$AAc?$AAp?$AAy?$AA_?$AAs?$AA?$CI?$AAn?$AAa?$AAm?$AAe?$AAs?$AA?9?$AA?$DO?$AAs?$AAz?$AAC?$AAo?$AAd?$AAe?$AAP?$AAa?$AAg?$AAe?$AA?0?$AA?5?$AA?$CI?$AAs?$AAi@ 10118158     LIBCMTD:setlocal.obj
 0003:0000b250       ??_C@_1MG@PHNILIAG@?$AAs?$AAt?$AAr?$AAn?$AAc?$AAp?$AAy?$AA_?$AAs?$AA?$CI?$AAn?$AAa?$AAm?$AAe?$AAs?$AA?9?$AA?$DO?$AAs?$AAz?$AAC?$AAo?$AAu?$AAn?$AAt?$AAr?$AAy?$AA?0?$AA?5?$AA?$CI?$AAs?$AAi?$AAz@ 10118250     LIBCMTD:setlocal.obj
 0003:0000b340       ??_C@_1MM@BFEECMAF@?$AAs?$AAt?$AAr?$AAn?$AAc?$AAp?$AAy?$AA_?$AAs?$AA?$CI?$AAn?$AAa?$AAm?$AAe?$AAs?$AA?9?$AA?$DO?$AAs?$AAz?$AAL?$AAa?$AAn?$AAg?$AAu?$AAa?$AAg?$AAe?$AA?0?$AA?5?$AA?$CI?$AAs?$AAi@ 10118340     LIBCMTD:setlocal.obj
 0003:0000b434       ??_C@_03EGDHDPFD@_?4?0?$AA@ 10118434     LIBCMTD:setlocal.obj
 0003:0000b438       ??_C@_1NG@FMOPGKGG@?$AAs?$AAt?$AAr?$AAn?$AAc?$AAp?$AAy?$AA_?$AAs?$AA?$CI?$AAn?$AAa?$AAm?$AAe?$AAs?$AA?9?$AA?$DO?$AAs?$AAz?$AAC?$AAo?$AAd?$AAe?$AAP?$AAa?$AAg?$AAe?$AA?0?$AA?5?$AA?$CI?$AAs?$AAi@ 10118438     LIBCMTD:setlocal.obj
 0003:0000b538       ??_C@_1BK@CBMMLAGJ@?$AA_?$AA_?$AAl?$AAc?$AA_?$AAs?$AAt?$AAr?$AAt?$AAo?$AAl?$AAc?$AA?$AA@ 10118538     LIBCMTD:setlocal.obj
 0003:0000b558       ??_C@_01IDAFKMJL@_?$AA@    10118558     LIBCMTD:setlocal.obj
 0003:0000b560       ??_C@_1HC@IBDBLKCB@?$AAs?$AAt?$AAr?$AAc?$AAp?$AAy?$AA_?$AAs?$AA?$CI?$AAl?$AAo?$AAc?$AAa?$AAl?$AAe?$AA?0?$AA?5?$AAs?$AAi?$AAz?$AAe?$AAI?$AAn?$AAB?$AAy?$AAt?$AAe?$AAs?$AA?0?$AA?5?$AA?$CI?$AAc@ 10118560     LIBCMTD:setlocal.obj
 0003:0000b5e8       ??_C@_1BK@FGDJDEPG@?$AA_?$AA_?$AAl?$AAc?$AA_?$AAl?$AAc?$AAt?$AAo?$AAs?$AAt?$AAr?$AA?$AA@ 101185e8     LIBCMTD:setlocal.obj
 0003:0000b608       ??_C@_1BA@BMMDEPNE@?$AAs?$AAt?$AAr?$AAt?$AAo?$AAx?$AAq?$AA?$AA@ 10118608     LIBCMTD:strtoq.obj
 0003:0000b61c       ??_C@_1BC@MIDDLJDN@?$AAs?$AAt?$AAr?$AAt?$AAo?$AAq?$AA?4?$AAc?$AA?$AA@ 1011861c     LIBCMTD:strtoq.obj
 0003:0000b634       ??_C@_1BA@PCFLFGNC@?$AAw?$AAc?$AAs?$AAt?$AAo?$AAx?$AAl?$AA?$AA@ 10118634     LIBCMTD:wcstol.obj
 0003:0000b648       ??_C@_1BC@KCPEGNFM@?$AAw?$AAc?$AAs?$AAt?$AAo?$AAl?$AA?4?$AAc?$AA?$AA@ 10118648     LIBCMTD:wcstol.obj
 0003:0000b660       ??_C@_1BA@FACINJJA@?$AAw?$AAc?$AAs?$AAt?$AAo?$AAx?$AAq?$AA?$AA@ 10118660     LIBCMTD:wcstoq.obj
 0003:0000b674       ??_C@_1BC@EFEKEJKG@?$AAw?$AAc?$AAs?$AAt?$AAo?$AAq?$AA?4?$AAc?$AA?$AA@ 10118674     LIBCMTD:wcstoq.obj
 0003:0000b68c       ??_C@_1CA@JGBKKNCE@?$AA_?$AA_?$AAw?$AAs?$AAt?$AAr?$AAg?$AAt?$AAo?$AAl?$AAd?$AA1?$AA2?$AA_?$AAl?$AA?$AA@ 1011868c     LIBCMTD:wstrgtold.obj
 0003:0000b6b4       ??_C@_1DE@JLGAJID@?$AA?4?$AA?4?$AA?1?$AAi?$AAn?$AAc?$AAl?$AAu?$AAd?$AAe?$AA?2?$AAs?$AAt?$AAr?$AAg?$AAt?$AAo?$AAl?$AAd?$AA1?$AA2?$AA?4?$AAi?$AAn?$AAl?$AA?$AA@ 101186b4     LIBCMTD:wstrgtold.obj
 0003:0000b6f4       ??_C@_1CA@MBDBOHIB@?$AA_?$AAL?$AAo?$AAc?$AAa?$AAl?$AAe?$AA?5?$AA?$CB?$AA?$DN?$AA?5?$AAN?$AAU?$AAL?$AAL?$AA?$AA@ 101186f4     LIBCMTD:wstrgtold.obj
 0003:0000b71c       ??_C@_1BO@IHLJHOPI@?$AA_?$AA_?$AAs?$AAt?$AAr?$AAg?$AAt?$AAo?$AAl?$AAd?$AA1?$AA2?$AA_?$AAl?$AA?$AA@ 1011871c     LIBCMTD:strgtold.obj
 0003:0000b740       ??_C@_0DB@FNNAMKJO@f?3?2rtm?2vctools?2crt_bld?2self_x86?2@ 10118740     LIBCMTD:woutput.obj
 0003:0000b77c       ??_C@_1BG@BBCDFOMA@?$AA_?$AAw?$AAo?$AAu?$AAt?$AAp?$AAu?$AAt?$AA_?$AAl?$AA?$AA@ 1011877c     LIBCMTD:woutput.obj
 0003:0000b798       ??_C@_1GC@ELIAPJJM@?$AAf?$AA?3?$AA?2?$AAr?$AAt?$AAm?$AA?2?$AAv?$AAc?$AAt?$AAo?$AAo?$AAl?$AAs?$AA?2?$AAc?$AAr?$AAt?$AA_?$AAb?$AAl?$AAd?$AA?2?$AAs?$AAe?$AAl?$AAf?$AA_?$AAx?$AA8?$AA6?$AA?2@ 10118798     LIBCMTD:woutput.obj
 0003:0000b810       ??_C@_1FK@BCPANIEK@?$AA?$CI?$AA?$CC?$AAM?$AAi?$AAs?$AAs?$AAi?$AAn?$AAg?$AA?5?$AAp?$AAo?$AAs?$AAi?$AAt?$AAi?$AAo?$AAn?$AA?5?$AAi?$AAn?$AA?5?$AAt?$AAh?$AAe?$AA?5?$AAf?$AAo?$AAr?$AAm?$AAa?$AAt@ 10118810     LIBCMTD:woutputp.obj
 0003:0000b880       ??_C@_1FK@LNCFKALM@?$AA?$CI?$AA?$CI?$AAs?$AAt?$AAa?$AAt?$AAe?$AA?5?$AA?$DN?$AA?$DN?$AA?5?$AAS?$AAT?$AA_?$AAN?$AAO?$AAR?$AAM?$AAA?$AAL?$AA?$CJ?$AA?5?$AA?$HM?$AA?$HM?$AA?5?$AA?$CI?$AAs?$AAt?$AAa?$AAt?$AAe?$AA?5@ 10118880     LIBCMTD:woutputp.obj
 0003:0000b8f0       ??_C@_1JC@OACKELNN@?$AA_?$AAt?$AAv?$AAa?$AAl?$AAi?$AAd?$AAa?$AAt?$AAe?$AA_?$AAp?$AAa?$AAr?$AAa?$AAm?$AA_?$AAr?$AAe?$AAu?$AAs?$AAe?$AA?$CI?$AA?$CG?$AAp?$AAo?$AAs?$AA_?$AAv?$AAa?$AAl?$AAu@ 101188f0     LIBCMTD:woutputp.obj
 0003:0000b9a0       ??_C@_1IK@NBGDDCBN@?$AA_?$AAt?$AAv?$AAa?$AAl?$AAi?$AAd?$AAa?$AAt?$AAe?$AA_?$AAp?$AAa?$AAr?$AAa?$AAm?$AA_?$AAr?$AAe?$AAu?$AAs?$AAe?$AA?$CI?$AA?$CG?$AAp?$AAo?$AAs?$AA_?$AAv?$AAa?$AAl?$AAu@ 101189a0     LIBCMTD:woutputp.obj
 0003:0000ba48       ??_C@_1DG@GOHGNKHE@?$AAp?$AAa?$AAs?$AAs?$AA?5?$AA?$DN?$AA?$DN?$AA?5?$AAF?$AAO?$AAR?$AAM?$AAA?$AAT?$AA_?$AAO?$AAU?$AAT?$AAP?$AAU?$AAT?$AA_?$AAP?$AAA?$AAS?$AAS?$AA?$AA@ 10118a48     LIBCMTD:woutputp.obj
 0003:0000ba88       ??_C@_1IM@DNGHAPLB@?$AA_?$AAt?$AAv?$AAa?$AAl?$AAi?$AAd?$AAa?$AAt?$AAe?$AA_?$AAp?$AAa?$AAr?$AAa?$AAm?$AA_?$AAr?$AAe?$AAu?$AAs?$AAe?$AA?$CI?$AA?$CG?$AAp?$AAo?$AAs?$AA_?$AAv?$AAa?$AAl?$AAu@ 10118a88     LIBCMTD:woutputp.obj
 0003:0000bb30       ??_C@_1IG@HJIMKDHC@?$AA_?$AAt?$AAv?$AAa?$AAl?$AAi?$AAd?$AAa?$AAt?$AAe?$AA_?$AAp?$AAa?$AAr?$AAa?$AAm?$AA_?$AAr?$AAe?$AAu?$AAs?$AAe?$AA?$CI?$AA?$CG?$AAp?$AAo?$AAs?$AA_?$AAv?$AAa?$AAl?$AAu@ 10118b30     LIBCMTD:woutputp.obj
 0003:0000bbd0       ??_C@_1IG@FDCPLALG@?$AA_?$AAt?$AAv?$AAa?$AAl?$AAi?$AAd?$AAa?$AAt?$AAe?$AA_?$AAp?$AAa?$AAr?$AAa?$AAm?$AA_?$AAr?$AAe?$AAu?$AAs?$AAe?$AA?$CI?$AA?$CG?$AAp?$AAo?$AAs?$AA_?$AAv?$AAa?$AAl?$AAu@ 10118bd0     LIBCMTD:woutputp.obj
 0003:0000bc70       ??_C@_1EM@BNPHBBIA@?$AA?$CI?$AA?$CI?$AAt?$AAy?$AAp?$AAe?$AA_?$AAp?$AAo?$AAs?$AA?$DO?$AA?$DN?$AA0?$AA?$CJ?$AA?5?$AA?$CG?$AA?$CG?$AA?5?$AA?$CI?$AAt?$AAy?$AAp?$AAe?$AA_?$AAp?$AAo?$AAs?$AA?$DM?$AA_?$AAA?$AAR?$AAG@ 10118c70     LIBCMTD:woutputp.obj
 0003:0000bcd0       ??_C@_1IK@EIEPDKHJ@?$AA_?$AAt?$AAv?$AAa?$AAl?$AAi?$AAd?$AAa?$AAt?$AAe?$AA_?$AAp?$AAa?$AAr?$AAa?$AAm?$AA_?$AAr?$AAe?$AAu?$AAs?$AAe?$AA?$CI?$AA?$CG?$AAp?$AAo?$AAs?$AA_?$AAv?$AAa?$AAl?$AAu@ 10118cd0     LIBCMTD:woutputp.obj
 0003:0000bd78       ??_C@_1JG@JBJBOCFB@?$AA?$CI?$AA?$CI?$AAp?$AAr?$AAe?$AAc?$AAi?$AAs?$AA_?$AAp?$AAo?$AAs?$AA?5?$AA?$DO?$AA?$DN?$AA?5?$AA0?$AA?$CJ?$AA?5?$AA?$CG?$AA?$CG?$AA?5?$AA?$CI?$AA?$CK?$AAe?$AAn?$AAd?$AA_?$AAp?$AAo?$AAs?$AA?5@ 10118d78     LIBCMTD:woutputp.obj
 0003:0000be30       ??_C@_1II@PIPIMLPF@?$AA_?$AAt?$AAv?$AAa?$AAl?$AAi?$AAd?$AAa?$AAt?$AAe?$AA_?$AAp?$AAa?$AAr?$AAa?$AAm?$AA_?$AAr?$AAe?$AAu?$AAs?$AAe?$AA?$CI?$AA?$CG?$AAp?$AAo?$AAs?$AA_?$AAv?$AAa?$AAl?$AAu@ 10118e30     LIBCMTD:woutputp.obj
 0003:0000bed8       ??_C@_1JE@NMBHOLFI@?$AA?$CI?$AA?$CI?$AAw?$AAi?$AAd?$AAt?$AAh?$AA_?$AAp?$AAo?$AAs?$AA?5?$AA?$DO?$AA?$DN?$AA?5?$AA0?$AA?$CJ?$AA?5?$AA?$CG?$AA?$CG?$AA?5?$AA?$CI?$AA?$CK?$AAe?$AAn?$AAd?$AA_?$AAp?$AAo?$AAs?$AA?5?$AA?$DN@ 10118ed8     LIBCMTD:woutputp.obj
 0003:0000bf8c       ??_C@_1CM@IEGCDOKE@?$AA?$CI?$AAs?$AAt?$AAa?$AAt?$AAe?$AA?5?$AA?$CB?$AA?$DN?$AA?5?$AAS?$AAT?$AA_?$AAI?$AAN?$AAV?$AAA?$AAL?$AAI?$AAD?$AA?$CJ?$AA?$AA@ 10118f8c     LIBCMTD:woutputp.obj
 0003:0000bfc0       ??_C@_1JC@PFJNKEIO@?$AA?$CI?$AA?$CI?$AAt?$AAy?$AAp?$AAe?$AA_?$AAp?$AAo?$AAs?$AA?5?$AA?$DO?$AA?$DN?$AA?5?$AA0?$AA?$CJ?$AA?5?$AA?$CG?$AA?$CG?$AA?5?$AA?$CI?$AA?$CK?$AAe?$AAn?$AAd?$AA_?$AAp?$AAo?$AAs?$AA?5?$AA?$DN?$AA?$DN@ 10118fc0     LIBCMTD:woutputp.obj
 0003:0000c070       ??_C@_1BK@GDEKGMNC@?$AA_?$AAw?$AAo?$AAu?$AAt?$AAp?$AAu?$AAt?$AA_?$AAp?$AA_?$AAl?$AA?$AA@ 10119070     LIBCMTD:woutputp.obj
 0003:0000c090       ??_C@_1BC@MJNBEDIJ@?$AA_?$AAi?$AAn?$AAp?$AAu?$AAt?$AA_?$AAl?$AA?$AA@ 10119090     LIBCMTD:input.obj
 0003:0000c0a8       ??_C@_1BA@LIDNIBLD@?$AAi?$AAn?$AAp?$AAu?$AAt?$AA?4?$AAc?$AA?$AA@ 101190a8     LIBCMTD:input.obj
 0003:0000c0bc       ??_C@_07CMLOKKIF@input?4c?$AA@ 101190bc     LIBCMTD:input.obj
 0003:0000c0c8       ??_C@_1DO@MBOKMJPK@?$AAn?$AAF?$AAl?$AAo?$AAa?$AAt?$AAS?$AAt?$AAr?$AAU?$AAs?$AAe?$AAd?$AA?$DM?$AA?$DN?$AA?$CI?$AA?$CK?$AAp?$AAn?$AAF?$AAl?$AAo?$AAa?$AAt?$AAS?$AAt?$AAr?$AAS?$AAz?$AA?$CJ?$AA?$AA@ 101190c8     LIBCMTD:input.obj
 0003:0000c114       ??_C@_1DG@MPPGJOHD@?$AA?$CI?$AA?$CC?$AAI?$AAn?$AAv?$AAa?$AAl?$AAi?$AAd?$AA?5?$AAI?$AAn?$AAp?$AAu?$AAt?$AA?5?$AAF?$AAo?$AAr?$AAm?$AAa?$AAt?$AA?$CC?$AA?0?$AA0?$AA?$CJ?$AA?$AA@ 10119114     LIBCMTD:inputs.obj
 0003:0000c154       ??_C@_1BG@LBKFJFHM@?$AA_?$AAi?$AAn?$AAp?$AAu?$AAt?$AA_?$AAs?$AA_?$AAl?$AA?$AA@ 10119154     LIBCMTD:inputs.obj
 0003:0000c170       ??_C@_1GA@EKLPPGMG@?$AAf?$AA?3?$AA?2?$AAr?$AAt?$AAm?$AA?2?$AAv?$AAc?$AAt?$AAo?$AAo?$AAl?$AAs?$AA?2?$AAc?$AAr?$AAt?$AA_?$AAb?$AAl?$AAd?$AA?2?$AAs?$AAe?$AAl?$AAf?$AA_?$AAx?$AA8?$AA6?$AA?2@ 10119170     LIBCMTD:inputs.obj
 0003:0000c1e4       ??_C@_0DA@ONFNIG@f?3?2rtm?2vctools?2crt_bld?2self_x86?2@ 101191e4     LIBCMTD:inputs.obj
 0003:0000c220       ??_C@_13NOLLCAOD@?$AA?$AA?$AA?$AA@ 10119220     LIBCMTD:a_map.obj
 0003:0000c228       ??_C@_1GC@BCDEFAEE@?$AAF?$AA?3?$AA?2?$AAR?$AAT?$AAM?$AA?2?$AAv?$AAc?$AAt?$AAo?$AAo?$AAl?$AAs?$AA?2?$AAc?$AAr?$AAt?$AA_?$AAb?$AAl?$AAd?$AA?2?$AAS?$AAE?$AAL?$AAF?$AA_?$AAX?$AA8?$AA6?$AA?2@ 10119228     LIBCMTD:a_map.obj
 0003:0000c2a0       ??_C@_1FE@KNPCCODH@?$AA?$CI?$AA?$CC?$AAC?$AAo?$AAr?$AAr?$AAu?$AAp?$AAt?$AAe?$AAd?$AA?5?$AAp?$AAo?$AAi?$AAn?$AAt?$AAe?$AAr?$AA?5?$AAp?$AAa?$AAs?$AAs?$AAe?$AAd?$AA?5?$AAt?$AAo?$AA?5?$AA_?$AAf@ 101192a0     LIBCMTD:a_map.obj
 0003:0000c308       ??_7exception@std@@6B@     10119308     LIBCMTD:stdexcpt.obj
 0003:0000c314       ??_C@_0BC@EOODALEL@Unknown?5exception?$AA@ 10119314     LIBCMTD:stdexcpt.obj
 0003:0000c330       ??_7bad_cast@std@@6B@      10119330     LIBCMTD:stdexcpt.obj
 0003:0000c340       ??_7bad_typeid@std@@6B@    10119340     LIBCMTD:stdexcpt.obj
 0003:0000c350       ??_7__non_rtti_object@std@@6B@ 10119350     LIBCMTD:stdexcpt.obj
 0003:0000c384       ??_C@_0M@EKFFODEC@MSPDB80?4DLL?$AA@ 10119384     LIBCMTD:pdblkup.obj
 0003:0000c394       ??_C@_0BB@KCIACLNC@PDBOpenValidate5?$AA@ 10119394     LIBCMTD:pdblkup.obj
 0003:0000c3a8       ??_C@_0BF@BMIHBHCA@EnvironmentDirectory?$AA@ 101193a8     LIBCMTD:pdblkup.obj
 0003:0000c3c4       ??_C@_0CN@EAEOKKOC@SOFTWARE?2Microsoft?2VisualStudio?2@ 101193c4     LIBCMTD:pdblkup.obj
 0003:0000c3fc       ??_C@_0M@HLOHPNFA@RegCloseKey?$AA@ 101193fc     LIBCMTD:pdblkup.obj
 0003:0000c40c       ??_C@_0BB@HHEIPGME@RegQueryValueExA?$AA@ 1011940c     LIBCMTD:pdblkup.obj
 0003:0000c420       ??_C@_0O@DCOGKJGG@RegOpenKeyExA?$AA@ 10119420     LIBCMTD:pdblkup.obj
 0003:0000c430       ??_C@_0N@JJPEKNFO@ADVAPI32?4DLL?$AA@ 10119430     LIBCMTD:pdblkup.obj
 0003:0000c440       ??_C@_0BK@CFCOFLF@?5Complete?5Object?5Locator?8?$AA@ 10119440     LIBCMTD:undname.obj
 0003:0000c460       ??_C@_0BN@MECKDCOJ@?5Class?5Hierarchy?5Descriptor?8?$AA@ 10119460     LIBCMTD:undname.obj
 0003:0000c484       ??_C@_0BD@LGICGFMM@?5Base?5Class?5Array?8?$AA@ 10119484     LIBCMTD:undname.obj
 0003:0000c49c       ??_C@_0BM@LDKODKLH@?5Base?5Class?5Descriptor?5at?5?$CI?$AA@ 1011949c     LIBCMTD:undname.obj
 0003:0000c4c0       ??_C@_0BC@DAFEJGAK@?5Type?5Descriptor?8?$AA@ 101194c0     LIBCMTD:undname.obj
 0003:0000c4d8       ??_C@_0BM@PMGGMLDN@?$GAlocal?5static?5thread?5guard?8?$AA@ 101194d8     LIBCMTD:undname.obj
 0003:0000c4fc       ??_C@_0CL@FGIJHLCE@?$GAmanaged?5vector?5copy?5constructor@ 101194fc     LIBCMTD:undname.obj
 0003:0000c530       ??_C@_0CJ@GJELGAMM@?$GAvector?5vbase?5copy?5constructor?5i@ 10119530     LIBCMTD:undname.obj
 0003:0000c564       ??_C@_0CD@CGAJBKEJ@?$GAvector?5copy?5constructor?5iterato@ 10119564     LIBCMTD:undname.obj
 0003:0000c590       ??_C@_0CB@PDBIFEP@?$GAdynamic?5atexit?5destructor?5for?5?8@ 10119590     LIBCMTD:undname.obj
 0003:0000c5b8       ??_C@_0BL@CLIPGLGB@?$GAdynamic?5initializer?5for?5?8?$AA@ 101195b8     LIBCMTD:undname.obj
 0003:0000c5d8       ??_C@_0CM@FCBBDIGB@?$GAeh?5vector?5vbase?5copy?5constructo@ 101195d8     LIBCMTD:undname.obj
 0003:0000c60c       ??_C@_0CG@HLDDJMAG@?$GAeh?5vector?5copy?5constructor?5iter@ 1011960c     LIBCMTD:undname.obj
 0003:0000c63c       ??_C@_0CF@IMGKMJNO@?$GAmanaged?5vector?5destructor?5itera@ 1011963c     LIBCMTD:undname.obj
 0003:0000c668       ??_C@_0CG@CFDHKGGD@?$GAmanaged?5vector?5constructor?5iter@ 10119668     LIBCMTD:undname.obj
 0003:0000c698       ??_C@_0BN@CKNJLHMB@?$GAplacement?5delete?$FL?$FN?5closure?8?$AA@ 10119698     LIBCMTD:undname.obj
 0003:0000c6bc       ??_C@_0BL@CNOONJFP@?$GAplacement?5delete?5closure?8?$AA@ 101196bc     LIBCMTD:undname.obj
 0003:0000c6dc       ??_C@_0P@HJKNJFNN@?$GAomni?5callsig?8?$AA@ 101196dc     LIBCMTD:undname.obj
 0003:0000c6f0       ??_C@_09LBNFPBCA@?5delete?$FL?$FN?$AA@ 101196f0     LIBCMTD:undname.obj
 0003:0000c6fc       ??_C@_06FHBGPFGH@?5new?$FL?$FN?$AA@ 101196fc     LIBCMTD:undname.obj
 0003:0000c704       ??_C@_0CE@IIHCMGGL@?$GAlocal?5vftable?5constructor?5closu@ 10119704     LIBCMTD:undname.obj
 0003:0000c730       ??_C@_0BA@KKLDJDLB@?$GAlocal?5vftable?8?$AA@ 10119730     LIBCMTD:undname.obj
 0003:0000c744       ??_C@_05KHLCHHI@?$GARTTI?$AA@ 10119744     LIBCMTD:undname.obj
 0003:0000c74c       ??_C@_03KLGMFNMG@?$GAEH?$AA@ 1011974c     LIBCMTD:undname.obj
 0003:0000c750       ??_C@_0BA@KBCDOMBN@?$GAudt?5returning?8?$AA@ 10119750     LIBCMTD:undname.obj
 0003:0000c764       ??_C@_0BL@LLKPOHJI@?$GAcopy?5constructor?5closure?8?$AA@ 10119764     LIBCMTD:undname.obj
 0003:0000c784       ??_C@_0CH@OOJPLCPH@?$GAeh?5vector?5vbase?5constructor?5ite@ 10119784     LIBCMTD:undname.obj
 0003:0000c7b4       ??_C@_0CA@GCEOPDGL@?$GAeh?5vector?5destructor?5iterator?8?$AA@ 101197b4     LIBCMTD:undname.obj
 0003:0000c7dc       ??_C@_0CB@JONCMFFK@?$GAeh?5vector?5constructor?5iterator?8@ 101197dc     LIBCMTD:undname.obj
 0003:0000c804       ??_C@_0BL@NILFHHPC@?$GAvirtual?5displacement?5map?8?$AA@ 10119804     LIBCMTD:undname.obj
 0003:0000c824       ??_C@_0CE@IKBNEHA@?$GAvector?5vbase?5constructor?5iterat@ 10119824     LIBCMTD:undname.obj
 0003:0000c850       ??_C@_0BN@LFPFMEDL@?$GAvector?5destructor?5iterator?8?$AA@ 10119850     LIBCMTD:undname.obj
 0003:0000c874       ??_C@_0BO@PFGOCPJJ@?$GAvector?5constructor?5iterator?8?$AA@ 10119874     LIBCMTD:undname.obj
 0003:0000c898       ??_C@_0BN@IMDCHIKM@?$GAscalar?5deleting?5destructor?8?$AA@ 10119898     LIBCMTD:undname.obj
 0003:0000c8bc       ??_C@_0BO@OBMKPJIG@?$GAdefault?5constructor?5closure?8?$AA@ 101198bc     LIBCMTD:undname.obj
 0003:0000c8e0       ??_C@_0BN@DEGPLNFK@?$GAvector?5deleting?5destructor?8?$AA@ 101198e0     LIBCMTD:undname.obj
 0003:0000c904       ??_C@_0BD@JDLKDPAB@?$GAvbase?5destructor?8?$AA@ 10119904     LIBCMTD:undname.obj
 0003:0000c91c       ??_C@_08OBABFOLI@?$GAstring?8?$AA@ 1011991c     LIBCMTD:undname.obj
 0003:0000c928       ??_C@_0BF@KDPPACIK@?$GAlocal?5static?5guard?8?$AA@ 10119928     LIBCMTD:undname.obj
 0003:0000c944       ??_C@_08LLFFHHDJ@?$GAtypeof?8?$AA@ 10119944     LIBCMTD:undname.obj
 0003:0000c950       ??_C@_07FEEIOKP@?$GAvcall?8?$AA@ 10119950     LIBCMTD:undname.obj
 0003:0000c95c       ??_C@_09BLBHBJP@?$GAvbtable?8?$AA@ 1011995c     LIBCMTD:undname.obj
 0003:0000c968       ??_C@_09IFPLHPGF@?$GAvftable?8?$AA@ 10119968     LIBCMTD:undname.obj
 0003:0000c974       ??_C@_02MHEGNOJ@?$FO?$DN?$AA@ 10119974     LIBCMTD:undname.obj
 0003:0000c978       ??_C@_02DHLNPPGH@?$HM?$DN?$AA@ 10119978     LIBCMTD:undname.obj
 0003:0000c97c       ??_C@_02FGJGFEAB@?$CG?$DN?$AA@ 1011997c     LIBCMTD:undname.obj
 0003:0000c980       ??_C@_03CDNPDDLA@?$DM?$DM?$DN?$AA@ 10119980     LIBCMTD:undname.obj
 0003:0000c984       ??_C@_03IKFCCPFF@?$DO?$DO?$DN?$AA@ 10119984     LIBCMTD:undname.obj
 0003:0000c988       ??_C@_02FENAOKFI@?$CF?$DN?$AA@ 10119988     LIBCMTD:undname.obj
 0003:0000c98c       ??_C@_02FJEHGPIO@?1?$DN?$AA@ 1011998c     LIBCMTD:undname.obj
 0003:0000c990       ??_C@_02FKMDLLOA@?9?$DN?$AA@ 10119990     LIBCMTD:undname.obj
 0003:0000c994       ??_C@_02FOEOMHFC@?$CL?$DN?$AA@ 10119994     LIBCMTD:undname.obj
 0003:0000c998       ??_C@_02FPIMKNGF@?$CK?$DN?$AA@ 10119998     LIBCMTD:undname.obj
 0003:0000c99c       ??_C@_02NONPIBCD@?$HM?$HM?$AA@ 1011999c     LIBCMTD:undname.obj
 0003:0000c9a0       ??_C@_02PPKAJPJL@?$CG?$CG?$AA@ 101199a0     LIBCMTD:undname.obj
 0003:0000c9a4       ??_C@_01DNKMNLPK@?$HM?$AA@ 101199a4     LIBCMTD:undname.obj
 0003:0000c9a8       ??_C@_01JKBOJNNK@?$FO?$AA@ 101199a8     LIBCMTD:undname.obj
 0003:0000c9ac       ??_C@_01PJKLJHI@?$HO?$AA@  101199ac     LIBCMTD:undname.obj
 0003:0000c9b0       ??_C@_02HCKGKOFO@?$CI?$CJ?$AA@ 101199b0     LIBCMTD:undname.obj
 0003:0000c9b4       ??_C@_01IHBHIGKO@?0?$AA@   101199b4     LIBCMTD:undname.obj
 0003:0000c9b8       ??_C@_02EEKDKGMJ@?$DO?$DN?$AA@ 101199b8     LIBCMTD:undname.obj
 0003:0000c9bc       ??_C@_01PPODPGHN@?$DO?$AA@ 101199bc     LIBCMTD:undname.obj
 0003:0000c9c0       ??_C@_02EHCHHCKH@?$DM?$DN?$AA@ 101199c0     LIBCMTD:undname.obj
 0003:0000c9c4       ??_C@_01MNNFJEPP@?$DM?$AA@ 101199c4     LIBCMTD:undname.obj
 0003:0000c9c8       ??_C@_01FGNFDNOH@?$CF?$AA@ 101199c8     LIBCMTD:undname.obj
 0003:0000c9cc       ??_C@_01KMDKNFGN@?1?$AA@   101199cc     LIBCMTD:undname.obj
 0003:0000c9d0       ??_C@_03MNHNFDLC@?9?$DO?$CK?$AA@ 101199d0     LIBCMTD:undname.obj
 0003:0000c9d4       ??_C@_01HNPIGOCE@?$CG?$AA@ 101199d4     LIBCMTD:undname.obj
 0003:0000c9d8       ??_C@_01MIFGBAGJ@?$CL?$AA@ 101199d8     LIBCMTD:undname.obj
 0003:0000c9dc       ??_C@_02BAABKJLB@?9?9?$AA@ 101199dc     LIBCMTD:undname.obj
 0003:0000c9e0       ??_C@_02ECNGHCIF@?$CL?$CL?$AA@ 101199e0     LIBCMTD:undname.obj
 0003:0000c9e4       ??_C@_01NBENCBCI@?$CK?$AA@ 101199e4     LIBCMTD:undname.obj
 0003:0000c9e8       ??_C@_02HBOOOICD@?9?$DO?$AA@ 101199e8     LIBCMTD:undname.obj
 0003:0000c9ec       ??_C@_08LHJFAFGD@operator?$AA@ 101199ec     LIBCMTD:undname.obj
 0003:0000c9f8       ??_C@_02GPECMEKF@?$FL?$FN?$AA@ 101199f8     LIBCMTD:undname.obj
 0003:0000c9fc       ??_C@_02FDNJECIE@?$CB?$DN?$AA@ 101199fc     LIBCMTD:undname.obj
 0003:0000ca00       ??_C@_02EGOFBIJA@?$DN?$DN?$AA@ 10119a00     LIBCMTD:undname.obj
 0003:0000ca04       ??_C@_01DCLJPIOD@?$CB?$AA@ 10119a04     LIBCMTD:undname.obj
 0003:0000ca08       ??_C@_02FODMEDOG@?$DM?$DM?$AA@ 10119a08     LIBCMTD:undname.obj
 0003:0000ca0c       ??_C@_02GPIOPFAK@?$DO?$DO?$AA@ 10119a0c     LIBCMTD:undname.obj
 0003:0000ca10       ??_C@_07FPCDHGMM@?5delete?$AA@ 10119a10     LIBCMTD:undname.obj
 0003:0000ca1c       ??_C@_04NIHEBCM@?5new?$AA@ 10119a1c     LIBCMTD:undname.obj
 0003:0000ca24       ??_C@_0M@GFIIJFMG@__unaligned?$AA@ 10119a24     LIBCMTD:undname.obj
 0003:0000ca34       ??_C@_0L@PILCLIHE@__restrict?$AA@ 10119a34     LIBCMTD:undname.obj
 0003:0000ca44       ??_C@_07JOMMBBKO@__ptr64?$AA@ 10119a44     LIBCMTD:undname.obj
 0003:0000ca50       ??_C@_09HIJEGCPM@__clrcall?$AA@ 10119a50     LIBCMTD:undname.obj
 0003:0000ca5c       ??_C@_0L@JMKHOMEK@__fastcall?$AA@ 10119a5c     LIBCMTD:undname.obj
 0003:0000ca6c       ??_C@_0L@NPHFGOKO@__thiscall?$AA@ 10119a6c     LIBCMTD:undname.obj
 0003:0000ca7c       ??_C@_09IFJBGAPI@__stdcall?$AA@ 10119a7c     LIBCMTD:undname.obj
 0003:0000ca88       ??_C@_08GHMPAG@__pascal?$AA@ 10119a88     LIBCMTD:undname.obj
 0003:0000ca94       ??_C@_07KOLFKCDI@__cdecl?$AA@ 10119a94     LIBCMTD:undname.obj
 0003:0000caa0       ??_C@_08EHJDFFNH@__based?$CI?$AA@ 10119aa0     LIBCMTD:undname.obj
 0003:0000cc7c       ??_C@_04HEJADOOB@CV?3?5?$AA@ 10119c7c     LIBCMTD:undname.obj
 0003:0000cc84       ??_C@_02MOLJINC@?3?3?$AA@  10119c84     LIBCMTD:undname.obj
 0003:0000cc88       ??_C@_01NLNLIGKH@?$GA?$AA@ 10119c88     LIBCMTD:undname.obj
 0003:0000cc8c       ??_C@_0O@KHGCOMHP@generic?9type?9?$AA@ 10119c8c     LIBCMTD:undname.obj
 0003:0000cc9c       ??_C@_0BE@JAEOCHPE@template?9parameter?9?$AA@ 10119c9c     LIBCMTD:undname.obj
 0003:0000ccb4       ??_C@_02OHHJMEON@?8?8?$AA@ 10119cb4     LIBCMTD:undname.obj
 0003:0000ccb8       ??_C@_0BG@JNJLAMPM@?$GAanonymous?5namespace?8?$AA@ 10119cb8     LIBCMTD:undname.obj
 0003:0000ccd4       ??_C@_0BN@IBLMMFAP@?$GAnon?9type?9template?9parameter?$AA@ 10119cd4     LIBCMTD:undname.obj
 0003:0000ccf8       ??_C@_0BE@EODMJLIF@?$GAtemplate?9parameter?$AA@ 10119cf8     LIBCMTD:undname.obj
 0003:0000cd10       ??_C@_04GKJNKENE@void?$AA@ 10119d10     LIBCMTD:undname.obj
 0003:0000cd18       ??_C@_0M@DHNBOJMP@extern?5?$CCC?$CC?5?$AA@ 10119d18     LIBCMTD:undname.obj
 0003:0000cd28       ??_C@_08KJLFOPNE@?$FLthunk?$FN?3?$AA@ 10119d28     LIBCMTD:undname.obj
 0003:0000cd34       ??_C@_08GPDDCMKI@public?3?5?$AA@ 10119d34     LIBCMTD:undname.obj
 0003:0000cd40       ??_C@_0M@GAIFPFIP@protected?3?5?$AA@ 10119d40     LIBCMTD:undname.obj
 0003:0000cd50       ??_C@_09LAPHOOG@private?3?5?$AA@ 10119d50     LIBCMTD:undname.obj
 0003:0000cd5c       ??_C@_08NIEOINHE@virtual?5?$AA@ 10119d5c     LIBCMTD:undname.obj
 0003:0000cd68       ??_C@_07PGOEDBHP@static?5?$AA@ 10119d68     LIBCMTD:undname.obj
 0003:0000cd74       ??_C@_0DA@HGFJFBBE@?$GAtemplate?5static?5data?5member?5des@ 10119d74     LIBCMTD:undname.obj
 0003:0000cdb0       ??_C@_0DB@ILEFOCIJ@?$GAtemplate?5static?5data?5member?5con@ 10119db0     LIBCMTD:undname.obj
 0003:0000cdec       ??_C@_0CB@KJDOOODE@?$GAlocal?5static?5destructor?5helper?8@ 10119dec     LIBCMTD:undname.obj
 0003:0000ce14       ??_C@_0L@HNGCOGAE@?$GAadjustor?$HL?$AA@ 10119e14     LIBCMTD:undname.obj
 0003:0000ce24       ??_C@_0L@GHPFDFH@?$GAvtordisp?$HL?$AA@ 10119e24     LIBCMTD:undname.obj
 0003:0000ce34       ??_C@_0N@CBHHHENL@?$GAvtordispex?$HL?$AA@ 10119e34     LIBCMTD:undname.obj
 0003:0000ce44       ??_C@_02IGFCGPIL@?$HN?8?$AA@ 10119e44     LIBCMTD:undname.obj
 0003:0000ce48       ??_C@_03OPGICMGF@?$HN?8?5?$AA@ 10119e48     LIBCMTD:undname.obj
 0003:0000ce4c       ??_C@_02KCKGHPCA@?$CJ?5?$AA@ 10119e4c     LIBCMTD:undname.obj
 0003:0000ce50       ??_C@_05BEFAKPML@void?5?$AA@ 10119e50     LIBCMTD:undname.obj
 0003:0000ce58       ??_C@_08PABEKFH@volatile?$AA@ 10119e58     LIBCMTD:undname.obj
 0003:0000ce64       ??_C@_0M@ELJOJFFH@?0?$DMellipsis?$DO?$AA@ 10119e64     LIBCMTD:undname.obj
 0003:0000ce74       ??_C@_04EENFHACM@?0?4?4?4?$AA@ 10119e74     LIBCMTD:undname.obj
 0003:0000ce7c       ??_C@_0L@EGPHHEKN@?$DMellipsis?$DO?$AA@ 10119e7c     LIBCMTD:undname.obj
 0003:0000ce8c       ??_C@_07HDJPLPEK@?5throw?$CI?$AA@ 10119e8c     LIBCMTD:undname.obj
 0003:0000ce98       ??_C@_09EFNPDFFP@?5volatile?$AA@ 10119e98     LIBCMTD:undname.obj
 0003:0000cea4       ??_C@_05BNCCCJPP@const?$AA@ 10119ea4     LIBCMTD:undname.obj
 0003:0000ceac       ??_C@_07EDHNAJHC@signed?5?$AA@ 10119eac     LIBCMTD:undname.obj
 0003:0000ceb8       ??_C@_09EBBEKKIH@unsigned?5?$AA@ 10119eb8     LIBCMTD:undname.obj
 0003:0000cec4       ??_C@_07NFANNNEC@UNKNOWN?$AA@ 10119ec4     LIBCMTD:undname.obj
 0003:0000ced0       ??_C@_06GCICPBLB@__w64?5?$AA@ 10119ed0     LIBCMTD:undname.obj
 0003:0000ced8       ??_C@_07CLGGIAMF@wchar_t?$AA@ 10119ed8     LIBCMTD:undname.obj
 0003:0000cee4       ??_C@_08GAHOLHEO@__int128?$AA@ 10119ee4     LIBCMTD:undname.obj
 0003:0000cef0       ??_C@_07LFCOJCAC@__int64?$AA@ 10119ef0     LIBCMTD:undname.obj
 0003:0000cefc       ??_C@_07OFLPPHGP@__int32?$AA@ 10119efc     LIBCMTD:undname.obj
 0003:0000cf08       ??_C@_07ICFHOGAF@__int16?$AA@ 10119f08     LIBCMTD:undname.obj
 0003:0000cf14       ??_C@_06EBGKOKIG@__int8?$AA@ 10119f14     LIBCMTD:undname.obj
 0003:0000cf1c       ??_C@_04DDKJGDCM@bool?$AA@ 10119f1c     LIBCMTD:undname.obj
 0003:0000cf24       ??_C@_06BNJCAIGJ@double?$AA@ 10119f24     LIBCMTD:undname.obj
 0003:0000cf2c       ??_C@_05CJIMAING@long?5?$AA@ 10119f2c     LIBCMTD:undname.obj
 0003:0000cf34       ??_C@_05KNFBNCOH@float?$AA@ 10119f34     LIBCMTD:undname.obj
 0003:0000cf3c       ??_C@_04GOKPGOLB@long?$AA@ 10119f3c     LIBCMTD:undname.obj
 0003:0000cf44       ??_C@_03JBIPMCLC@int?$AA@  10119f44     LIBCMTD:undname.obj
 0003:0000cf48       ??_C@_05BFKKPKCG@short?$AA@ 10119f48     LIBCMTD:undname.obj
 0003:0000cf50       ??_C@_04ENMBGAPA@char?$AA@ 10119f50     LIBCMTD:undname.obj
 0003:0000cf58       ??_C@_05LJGMCFOG@enum?5?$AA@ 10119f58     LIBCMTD:undname.obj
 0003:0000cf60       ??_C@_0N@DLIEFKNA@cointerface?5?$AA@ 10119f60     LIBCMTD:undname.obj
 0003:0000cf70       ??_C@_08KOFANOFK@coclass?5?$AA@ 10119f70     LIBCMTD:undname.obj
 0003:0000cf7c       ??_C@_06LJBABKPM@class?5?$AA@ 10119f7c     LIBCMTD:undname.obj
 0003:0000cf84       ??_C@_07DIBCDNGL@struct?5?$AA@ 10119f84     LIBCMTD:undname.obj
 0003:0000cf90       ??_C@_06MOJHIBMG@union?5?$AA@ 10119f90     LIBCMTD:undname.obj
 0003:0000cf98       ??_C@_0P@GCIFDJCJ@?$GAunknown?5ecsu?8?$AA@ 10119f98     LIBCMTD:undname.obj
 0003:0000cfac       ??_C@_04LAHKHJMA@int?5?$AA@ 10119fac     LIBCMTD:undname.obj
 0003:0000cfb4       ??_C@_06EHJMALKF@short?5?$AA@ 10119fb4     LIBCMTD:undname.obj
 0003:0000cfbc       ??_C@_05CIHEBHNO@char?5?$AA@ 10119fbc     LIBCMTD:undname.obj
 0003:0000cfc4       ??_C@_06LIJLOJAG@const?5?$AA@ 10119fc4     LIBCMTD:undname.obj
 0003:0000cfcc       ??_C@_09GAIEOBLP@volatile?5?$AA@ 10119fcc     LIBCMTD:undname.obj
 0003:0000cfd8       ??_C@_0O@GKABPPIF@cli?3?3pin_ptr?$DM?$AA@ 10119fd8     LIBCMTD:undname.obj
 0003:0000cfe8       ??_C@_0M@EALIELKG@cli?3?3array?$DM?$AA@ 10119fe8     LIBCMTD:undname.obj
 0003:0000cff8       ??_C@_02GOGNNPBN@?$CJ?$FL?$AA@ 10119ff8     LIBCMTD:undname.obj
 0003:0000cffc       ??_C@_06EEGAIFAK@?$HLflat?$HN?$AA@ 10119ffc     LIBCMTD:undname.obj
 0003:0000d004       ??_C@_02MDINNEEG@s?5?$AA@  1011a004     LIBCMTD:undname.obj
 0003:0000d008       ??_C@_05JIBOFOHK@?$HLfor?5?$AA@ 1011a008     LIBCMTD:undname.obj
 0003:0000d014       ??_7DNameNode@@6B@         1011a014     LIBCMTD:undname.obj
 0003:0000d028       ??_7charNode@@6B@          1011a028     LIBCMTD:undname.obj
 0003:0000d03c       ??_7pcharNode@@6B@         1011a03c     LIBCMTD:undname.obj
 0003:0000d050       ??_7pDNameNode@@6B@        1011a050     LIBCMTD:undname.obj
 0003:0000d064       ??_7DNameStatusNode@@6B@   1011a064     LIBCMTD:undname.obj
 0003:0000d074       ??_C@_04OKOHEJBO@?5?$DP?$DP?5?$AA@ 1011a074     LIBCMTD:undname.obj
 0003:0000d07c       ??_C@_0BK@CIDNPOGP@GetUserObjectInformationA?$AA@ 1011a07c     LIBCMTD:crtmbox.obj
 0003:0000d09c       ??_C@_1CC@MEIOIKJI@?$AA_?$AA_?$AAc?$AAr?$AAt?$AAM?$AAe?$AAs?$AAs?$AAa?$AAg?$AAe?$AAB?$AAo?$AAx?$AAA?$AA?$AA@ 1011a09c     LIBCMTD:crtmbox.obj
 0003:0000d0c4       ??_C@_1BE@DEODNGG@?$AAc?$AAr?$AAt?$AAm?$AAb?$AAo?$AAx?$AA?4?$AAc?$AA?$AA@ 1011a0c4     LIBCMTD:crtmbox.obj
 0003:0000d0dc       ??_C@_0M@CHKKJDAI@MessageBoxA?$AA@ 1011a0dc     LIBCMTD:crtmbox.obj
 0003:0000d0ec       ??_C@_0L@NDEGIDAG@USER32?4DLL?$AA@ 1011a0ec     LIBCMTD:crtmbox.obj
 0003:0000d0fc       ??_C@_1BE@NDMJHJJG@?$AAs?$AAt?$AAr?$AAn?$AAc?$AAp?$AAy?$AA_?$AAs?$AA?$AA@ 1011a0fc     LIBCMTD:strncpy_s.obj
 0003:0000d114       ??_C@_0CG@PKBDLMEO@InitializeCriticalSectionAndSpin@ 1011a114     LIBCMTD:initcrit.obj
 0003:0000d144       ??_C@_0N@MDJJJHMB@kernel32?4dll?$AA@ 1011a144     LIBCMTD:initcrit.obj
 0003:0000d154       ??_C@_1DK@EGKDBLND@?$AA_?$AA_?$AAc?$AAr?$AAt?$AAI?$AAn?$AAi?$AAt?$AAC?$AAr?$AAi?$AAt?$AAS?$AAe?$AAc?$AAA?$AAn?$AAd?$AAS?$AAp?$AAi?$AAn?$AAC?$AAo?$AAu?$AAn?$AAt?$AA?$AA@ 1011a154     LIBCMTD:initcrit.obj
 0003:0000d19c       ??_C@_1BG@LABPBAGA@?$AAi?$AAn?$AAi?$AAt?$AAc?$AAr?$AAi?$AAt?$AA?4?$AAc?$AA?$AA@ 1011a19c     LIBCMTD:initcrit.obj
 0003:0000d1b8       ??_C@_1BA@DGECELNE@?$AAa?$AA_?$AAc?$AAm?$AAp?$AA?4?$AAc?$AA?$AA@ 1011a1b8     LIBCMTD:a_cmp.obj
 0003:0000d1d0       ??_C@_1HK@ELDMAMK@?$AAc?$AAc?$AAh?$AAC?$AAo?$AAu?$AAn?$AAt?$AA1?$AA?$DN?$AA?$DN?$AA0?$AA?5?$AA?$CG?$AA?$CG?$AA?5?$AAc?$AAc?$AAh?$AAC?$AAo?$AAu?$AAn?$AAt?$AA2?$AA?$DN?$AA?$DN?$AA1?$AA?5?$AA?$HM?$AA?$HM?$AA?5@ 1011a1d0     LIBCMTD:a_cmp.obj
 0003:0000d264       ??_C@_1CC@JLPHKJPH@?$AAc?$AAo?$AAu?$AAn?$AAt?$AA?5?$AA?$DM?$AA?$DN?$AA?5?$AAI?$AAN?$AAT?$AA_?$AAM?$AAA?$AAX?$AA?$AA@ 1011a264     LIBCMTD:strnicol.obj
 0003:0000d28c       ??_C@_1CC@CNADELFK@?$AA_?$AAs?$AAt?$AAr?$AAi?$AAn?$AAg?$AA2?$AA?5?$AA?$CB?$AA?$DN?$AA?5?$AAN?$AAU?$AAL?$AAL?$AA?$AA@ 1011a28c     LIBCMTD:strnicol.obj
 0003:0000d2b4       ??_C@_1BK@IOJEBPLP@?$AA_?$AAs?$AAt?$AAr?$AAn?$AAi?$AAc?$AAo?$AAl?$AAl?$AA_?$AAl?$AA?$AA@ 1011a2b4     LIBCMTD:strnicol.obj
 0003:0000d2d4       ??_C@_1BG@BPACDEKP@?$AAs?$AAt?$AAr?$AAn?$AAi?$AAc?$AAo?$AAl?$AA?4?$AAc?$AA?$AA@ 1011a2d4     LIBCMTD:strnicol.obj
 0003:0000d2f0       ??_C@_1CC@ICKKAGJA@?$AA_?$AAs?$AAt?$AAr?$AAi?$AAn?$AAg?$AA1?$AA?5?$AA?$CB?$AA?$DN?$AA?5?$AAN?$AAU?$AAL?$AAL?$AA?$AA@ 1011a2f0     LIBCMTD:strnicol.obj
 0003:0000d318       ??_C@_1FG@OKIAKKPK@?$AAs?$AAt?$AAr?$AAc?$AAp?$AAy?$AA_?$AAs?$AA?$CI?$AAn?$AAa?$AAm?$AAe?$AA?0?$AA?5?$AAs?$AAt?$AAr?$AAl?$AAe?$AAn?$AA?$CI?$AAo?$AAp?$AAt?$AAi?$AAo?$AAn?$AA?$CJ?$AA?5?$AA?$CL?$AA?5@ 1011a318     LIBCMTD:setenv.obj
 0003:0000d380       ??_C@_1EI@GHDNAPMG@?$AA?$CI?$AA?$CC?$AAC?$AAR?$AAT?$AA?5?$AAL?$AAo?$AAg?$AAi?$AAc?$AA?5?$AAe?$AAr?$AAr?$AAo?$AAr?$AA?5?$AAd?$AAu?$AAr?$AAi?$AAn?$AAg?$AA?5?$AAs?$AAe?$AAt?$AAe?$AAn?$AAv?$AA?$CC@ 1011a380     LIBCMTD:setenv.obj
 0003:0000d3d8       ??_C@_08BMJILFKN@setenv?4c?$AA@ 1011a3d8     LIBCMTD:setenv.obj
 0003:0000d3e8       ??_C@_1FC@EEJIEIDF@?$AA_?$AAt?$AAc?$AAs?$AAn?$AAl?$AAe?$AAn?$AA?$CI?$AAe?$AAq?$AAu?$AAa?$AAl?$AA?5?$AA?$CL?$AA?5?$AA1?$AA?0?$AA?5?$AA_?$AAM?$AAA?$AAX?$AA_?$AAE?$AAN?$AAV?$AA?$CJ?$AA?5?$AA?$DM?$AA?5@ 1011a3e8     LIBCMTD:setenv.obj
 0003:0000d44c       ??_C@_1DE@EEHFNNGH@?$AAe?$AAq?$AAu?$AAa?$AAl?$AA?5?$AA?9?$AA?5?$AAo?$AAp?$AAt?$AAi?$AAo?$AAn?$AA?5?$AA?$DM?$AA?5?$AA_?$AAM?$AAA?$AAX?$AA_?$AAE?$AAN?$AAV?$AA?$AA@ 1011a44c     LIBCMTD:setenv.obj
 0003:0000d48c       ??_C@_1BI@CDAFOAAL@?$AA_?$AA_?$AAc?$AAr?$AAt?$AAs?$AAe?$AAt?$AAe?$AAn?$AAv?$AA?$AA@ 1011a48c     LIBCMTD:setenv.obj
 0003:0000d4a8       ??_C@_1BC@KAEJODA@?$AAs?$AAe?$AAt?$AAe?$AAn?$AAv?$AA?4?$AAc?$AA?$AA@ 1011a4a8     LIBCMTD:setenv.obj
 0003:0000d4c0       ??_C@_1CA@LMBEKBDN@?$AAp?$AAo?$AAp?$AAt?$AAi?$AAo?$AAn?$AA?5?$AA?$CB?$AA?$DN?$AA?5?$AAN?$AAU?$AAL?$AAL?$AA?$AA@ 1011a4c0     LIBCMTD:setenv.obj
 0003:0000d4e8       ??_C@_1FK@DNFLNPD@?$AAs?$AAt?$AAr?$AAc?$AAp?$AAy?$AA_?$AAs?$AA?$CI?$AA?$CK?$AAn?$AAe?$AAw?$AAe?$AAn?$AAv?$AAp?$AAt?$AAr?$AA?0?$AA?5?$AAe?$AAn?$AAv?$AAp?$AAt?$AAr?$AAS?$AAi?$AAz?$AAe?$AA?0@ 1011a4e8     LIBCMTD:setenv.obj
 0003:0000d554       ??_C@_1BK@ECKIJLPM@?$AAc?$AAo?$AAp?$AAy?$AA_?$AAe?$AAn?$AAv?$AAi?$AAr?$AAo?$AAn?$AA?$AA@ 1011a554     LIBCMTD:setenv.obj
 0003:0000d574       ??_C@_0BC@JEAENNKH@SystemFunction036?$AA@ 1011a574     LIBCMTD:rand_s.obj
 0003:0000d590       ??_C@_1GA@EBEDGGGB@?$AA?$CI?$AA?$CC?$AAr?$AAa?$AAn?$AAd?$AA_?$AAs?$AA?5?$AAi?$AAs?$AA?5?$AAn?$AAo?$AAt?$AA?5?$AAa?$AAv?$AAa?$AAi?$AAl?$AAa?$AAb?$AAl?$AAe?$AA?5?$AAo?$AAn?$AA?5?$AAt?$AAh?$AAi@ 1011a590     LIBCMTD:rand_s.obj
 0003:0000d604       ??_C@_1O@IJGPPOGF@?$AAr?$AAa?$AAn?$AAd?$AA_?$AAs?$AA?$AA@ 1011a604     LIBCMTD:rand_s.obj
 0003:0000d614       ??_C@_1BC@NBJGCJKM@?$AAr?$AAa?$AAn?$AAd?$AA_?$AAs?$AA?4?$AAc?$AA?$AA@ 1011a614     LIBCMTD:rand_s.obj
 0003:0000d62c       ??_C@_1CK@GFDNDKK@?$AA_?$AAR?$AAa?$AAn?$AAd?$AAo?$AAm?$AAV?$AAa?$AAl?$AAu?$AAe?$AA?5?$AA?$CB?$AA?$DN?$AA?5?$AAN?$AAU?$AAL?$AAL?$AA?$AA@ 1011a62c     LIBCMTD:rand_s.obj
 0003:0000d660       ??_C@_1BI@OINOOFEA@?$AAh?$AAa?$AAn?$AAd?$AAl?$AAe?$AAr?$AA?4?$AAc?$AAp?$AAp?$AA?$AA@ 1011a660     LIBCMTD:handler.obj
 0003:0000d67c       ??_C@_1BC@JLLICHIC@?$AAp?$AAn?$AAh?$AA?5?$AA?$DN?$AA?$DN?$AA?5?$AA0?$AA?$AA@ 1011a67c     LIBCMTD:handler.obj
 0003:0000d694       ??_C@_09MGNHMPHC@osfinfo?4c?$AA@ 1011a694     LIBCMTD:osfinfo.obj
 0003:0000d6a0       ??_C@_1BO@EMBOBGKE@?$AA_?$AAg?$AAe?$AAt?$AA_?$AAo?$AAs?$AAf?$AAh?$AAa?$AAn?$AAd?$AAl?$AAe?$AA?$AA@ 1011a6a0     LIBCMTD:osfinfo.obj
 0003:0000d6c4       ??_C@_1BE@MIGAHMPD@?$AAo?$AAs?$AAf?$AAi?$AAn?$AAf?$AAo?$AA?4?$AAc?$AA?$AA@ 1011a6c4     LIBCMTD:osfinfo.obj
 0003:0000d6dc       ??_C@_1DG@LNNHNFHJ@?$AA?$CI?$AA_?$AAo?$AAs?$AAf?$AAi?$AAl?$AAe?$AA?$CI?$AAf?$AAi?$AAl?$AAe?$AAd?$AAe?$AAs?$AA?$CJ?$AA?5?$AA?$CG?$AA?5?$AAF?$AAO?$AAP?$AAE?$AAN?$AA?$CJ?$AA?$AA@ 1011a6dc     LIBCMTD:commit.obj
 0003:0000d71c       ??_C@_1BA@FLNMBBIM@?$AA_?$AAc?$AAo?$AAm?$AAm?$AAi?$AAt?$AA?$AA@ 1011a71c     LIBCMTD:commit.obj
 0003:0000d730       ??_C@_1BC@LOAFNBNC@?$AAc?$AAo?$AAm?$AAm?$AAi?$AAt?$AA?4?$AAc?$AA?$AA@ 1011a730     LIBCMTD:commit.obj
 0003:0000d748       ??_C@_1HC@KFLBHHBC@?$AA?$CI?$AAf?$AAi?$AAl?$AAe?$AAd?$AAe?$AAs?$AA?5?$AA?$DO?$AA?$DN?$AA?5?$AA0?$AA?5?$AA?$CG?$AA?$CG?$AA?5?$AA?$CI?$AAu?$AAn?$AAs?$AAi?$AAg?$AAn?$AAe?$AAd?$AA?$CJ?$AAf?$AAi?$AAl?$AAe?$AAd@ 1011a748     LIBCMTD:commit.obj
 0003:0000d7d0       ??_C@_1O@KOFKDHPL@?$AA_?$AAw?$AAr?$AAi?$AAt?$AAe?$AA?$AA@ 1011a7d0     LIBCMTD:write.obj
 0003:0000d7e0       ??_C@_1BA@PMLNGJCB@?$AAw?$AAr?$AAi?$AAt?$AAe?$AA?4?$AAc?$AA?$AA@ 1011a7e0     LIBCMTD:write.obj
 0003:0000d7f4       ??_C@_1BM@NCANHCIP@?$AA_?$AAw?$AAr?$AAi?$AAt?$AAe?$AA_?$AAn?$AAo?$AAl?$AAo?$AAc?$AAk?$AA?$AA@ 1011a7f4     LIBCMTD:write.obj
 0003:0000d818       ??_C@_09PKAEMGHJ@_getbuf?4c?$AA@ 1011a818     LIBCMTD:_getbuf.obj
 0003:0000d824       ??_C@_1BE@DJANJIEH@?$AA_?$AAg?$AAe?$AAt?$AAb?$AAu?$AAf?$AA?4?$AAc?$AA?$AA@ 1011a824     LIBCMTD:_getbuf.obj
 0003:0000d83c       ??_C@_1BE@KHFBJMNM@?$AA_?$AAl?$AAs?$AAe?$AAe?$AAk?$AAi?$AA6?$AA4?$AA?$AA@ 1011a83c     LIBCMTD:lseeki64.obj
 0003:0000d854       ??_C@_1BG@NGOGNEMB@?$AAl?$AAs?$AAe?$AAe?$AAk?$AAi?$AA6?$AA4?$AA?4?$AAc?$AA?$AA@ 1011a854     LIBCMTD:lseeki64.obj
 0003:0000d870       ??_C@_1M@MFLJCMFJ@?$AA_?$AAo?$AAp?$AAe?$AAn?$AA?$AA@ 1011a870     LIBCMTD:open.obj
 0003:0000d880       ??_C@_1O@DGNNHNAF@?$AAo?$AAp?$AAe?$AAn?$AA?4?$AAc?$AA?$AA@ 1011a880     LIBCMTD:open.obj
 0003:0000d890       ??_C@_1FG@NFINBJCM@?$AA?$CI?$AA?$CI?$AAp?$AAm?$AAo?$AAd?$AAe?$AA?5?$AA?$CG?$AA?5?$AA?$CI?$AA?$HO?$AA?$CI?$AA_?$AAS?$AA_?$AAI?$AAR?$AAE?$AAA?$AAD?$AA?5?$AA?$HM?$AA?5?$AA_?$AAS?$AA_?$AAI?$AAW?$AAR?$AAI?$AAT@ 1011a890     LIBCMTD:open.obj
 0003:0000d8f8       ??_C@_1BM@IOBAMMHO@?$AA_?$AAs?$AAo?$AAp?$AAe?$AAn?$AA_?$AAh?$AAe?$AAl?$AAp?$AAe?$AAr?$AA?$AA@ 1011a8f8     LIBCMTD:open.obj
 0003:0000d91c       ??_C@_1BM@PGEEHLHE@?$AA?$CI?$AAp?$AAf?$AAh?$AA?5?$AA?$CB?$AA?$DN?$AA?5?$AAN?$AAU?$AAL?$AAL?$AA?$CJ?$AA?$AA@ 1011a91c     LIBCMTD:open.obj
 0003:0000d940       ??_C@_1IA@IENOJNJF@?$AA0?$AA?5?$AA?$CG?$AA?$CG?$AA?5?$AA?$CC?$AAO?$AAn?$AAl?$AAy?$AA?5?$AAU?$AAT?$AAF?$AA?9?$AA1?$AA6?$AA?5?$AAl?$AAi?$AAt?$AAt?$AAl?$AAe?$AA?5?$AAe?$AAn?$AAd?$AAi?$AAa?$AAn?$AA?5@ 1011a940     LIBCMTD:open.obj
 0003:0000d9dc       ??_C@_1CM@IDLMKMPG@?$AA0?$AA?5?$AA?$CG?$AA?$CG?$AA?5?$AA?$CC?$AAI?$AAn?$AAt?$AAe?$AAr?$AAn?$AAa?$AAl?$AA?5?$AAE?$AAr?$AAr?$AAo?$AAr?$AA?$CC?$AA?$AA@ 1011a9dc     LIBCMTD:open.obj
 0003:0000da10       ??_C@_1GE@GKLINCPN@?$AA?$CI?$AAo?$AAf?$AAl?$AAa?$AAg?$AA?5?$AA?$CG?$AA?5?$AA?$CI?$AA_?$AAO?$AA_?$AAB?$AAI?$AAN?$AAA?$AAR?$AAY?$AA?$CJ?$AA?5?$AA?$CJ?$AA?5?$AA?$DN?$AA?$DN?$AA?5?$AA0?$AA?5?$AA?$CG?$AA?$CG?$AA?5?$AAf@ 1011aa10     LIBCMTD:open.obj
 0003:0000da88       ??_C@_1DO@PJLMOANO@?$AA?$CI?$AA?5?$AA?$CC?$AAI?$AAn?$AAv?$AAa?$AAl?$AAi?$AAd?$AA?5?$AAs?$AAh?$AAa?$AAr?$AAi?$AAn?$AAg?$AA?5?$AAf?$AAl?$AAa?$AAg?$AA?$CC?$AA?5?$AA?0?$AA?5?$AA0?$AA?5?$AA?$CJ?$AA?$AA@ 1011aa88     LIBCMTD:open.obj
 0003:0000dad4       ??_C@_1DI@DGKIFCCE@?$AA?$CI?$AA?5?$AA?$CC?$AAI?$AAn?$AAv?$AAa?$AAl?$AAi?$AAd?$AA?5?$AAo?$AAp?$AAe?$AAn?$AA?5?$AAf?$AAl?$AAa?$AAg?$AA?$CC?$AA?5?$AA?0?$AA?5?$AA0?$AA?5?$AA?$CJ?$AA?$AA@ 1011aad4     LIBCMTD:open.obj
 0003:0000db18       ??_C@_1CG@ICBEBDJJ@?$AA_?$AAg?$AAe?$AAt?$AA_?$AAf?$AAm?$AAo?$AAd?$AAe?$AA?$CI?$AA?$CG?$AAf?$AAm?$AAo?$AAd?$AAe?$AA?$CJ?$AA?$AA@ 1011ab18     LIBCMTD:open.obj
 0003:0000db48       ??_C@_1BO@JOPFMPGH@?$AA_?$AAt?$AAs?$AAo?$AAp?$AAe?$AAn?$AA_?$AAn?$AAo?$AAl?$AAo?$AAc?$AAk?$AA?$AA@ 1011ab48     LIBCMTD:open.obj
 0003:0000db6c       ??_C@_1BG@BMDHEPAJ@?$AA_?$AAm?$AAb?$AAs?$AAi?$AAc?$AAm?$AAp?$AA_?$AAl?$AA?$AA@ 1011ab6c     LIBCMTD:mbsicmp.obj
 0003:0000db88       ??_C@_1BE@JMPFNKJA@?$AAm?$AAb?$AAs?$AAi?$AAc?$AAm?$AAp?$AA?4?$AAc?$AA?$AA@ 1011ab88     LIBCMTD:mbsicmp.obj
 0003:0000dba0       ??_C@_1BI@LPHOHGHI@?$AA_?$AAm?$AAb?$AAs?$AAn?$AAb?$AAc?$AAm?$AAp?$AA_?$AAl?$AA?$AA@ 1011aba0     LIBCMTD:mbsnbcmp.obj
 0003:0000dbbc       ??_C@_1BG@JGCJENML@?$AAm?$AAb?$AAs?$AAn?$AAb?$AAc?$AAm?$AAp?$AA?4?$AAc?$AA?$AA@ 1011abbc     LIBCMTD:mbsnbcmp.obj
 0003:0000dbd8       ??_C@_1BG@JBLBIELB@?$AA_?$AAm?$AAb?$AAs?$AAr?$AAc?$AAh?$AAr?$AA_?$AAl?$AA?$AA@ 1011abd8     LIBCMTD:mbsrchr.obj
 0003:0000dbf4       ??_C@_1BE@BBHDBBCI@?$AAm?$AAb?$AAs?$AAr?$AAc?$AAh?$AAr?$AA?4?$AAc?$AA?$AA@ 1011abf4     LIBCMTD:mbsrchr.obj
 0003:0000dc0c       ??_C@_1CA@DCOBNMOJ@?$AA_?$AA_?$AAl?$AAo?$AAc?$AAt?$AAo?$AAt?$AAi?$AAm?$AAe?$AA3?$AA2?$AA_?$AAt?$AA?$AA@ 1011ac0c     LIBCMTD:dtoxtime.obj
 0003:0000dc34       ??_C@_1BG@JLFHOLGH@?$AAd?$AAt?$AAo?$AAx?$AAt?$AAi?$AAm?$AAe?$AA?4?$AAc?$AA?$AA@ 1011ac34     LIBCMTD:dtoxtime.obj
 0003:0000dc50       ??_C@_1IM@MJJNIFPM@?$AA?$CI?$AA?5?$AA?$CI?$AA?5?$AA?$CI?$AA?5?$AAy?$AAr?$AA?5?$AA?9?$AA?5?$AA1?$AA9?$AA0?$AA0?$AA?5?$AA?$CJ?$AA?5?$AA?$DO?$AA?$DN?$AA?5?$AA_?$AAB?$AAA?$AAS?$AAE?$AA_?$AAY?$AAE?$AAA?$AAR?$AA?5@ 1011ac50     LIBCMTD:dtoxtime.obj
 0003:0000dcf8       ??_C@_1EA@GEPBEDLJ@?$AAs?$AAt?$AAr?$AAn?$AAc?$AAp?$AAy?$AA_?$AAs?$AA?$CI?$AAt?$AAz?$AAn?$AAa?$AAm?$AAe?$AA?$FL?$AA1?$AA?$FN?$AA?0?$AA?5?$AA6?$AA4?$AA?0?$AA?5?$AAT?$AAZ?$AA?0?$AA?5?$AA3?$AA?$CJ?$AA?$AA@ 1011acf8     LIBCMTD:tzset.obj
 0003:0000dd48       ??_C@_1EA@FIJBKALB@?$AAs?$AAt?$AAr?$AAn?$AAc?$AAp?$AAy?$AA_?$AAs?$AA?$CI?$AAt?$AAz?$AAn?$AAa?$AAm?$AAe?$AA?$FL?$AA0?$AA?$FN?$AA?0?$AA?5?$AA6?$AA4?$AA?0?$AA?5?$AAT?$AAZ?$AA?0?$AA?5?$AA3?$AA?$CJ?$AA?$AA@ 1011ad48     LIBCMTD:tzset.obj
 0003:0000dd98       ??_C@_1EK@MCAIMDPB@?$AAs?$AAt?$AAr?$AAc?$AAp?$AAy?$AA_?$AAs?$AA?$CI?$AAl?$AAa?$AAs?$AAt?$AAT?$AAZ?$AA?0?$AA?5?$AAs?$AAt?$AAr?$AAl?$AAe?$AAn?$AA?$CI?$AAT?$AAZ?$AA?$CJ?$AA?5?$AA?$CL?$AA?5?$AA1?$AA?0@ 1011ad98     LIBCMTD:tzset.obj
 0003:0000ddf0       ??_C@_07LOOFNDIO@tzset?4c?$AA@ 1011adf0     LIBCMTD:tzset.obj
 0003:0000ddfc       ??_C@_02CLFPBFFP@TZ?$AA@   1011adfc     LIBCMTD:tzset.obj
 0003:0000de00       ??_C@_1BM@IIODHMJC@?$AA_?$AAt?$AAz?$AAs?$AAe?$AAt?$AA_?$AAn?$AAo?$AAl?$AAo?$AAc?$AAk?$AA?$AA@ 1011ae00     LIBCMTD:tzset.obj
 0003:0000de24       ??_C@_1BA@HIHOBNBL@?$AAt?$AAz?$AAs?$AAe?$AAt?$AA?4?$AAc?$AA?$AA@ 1011ae24     LIBCMTD:tzset.obj
 0003:0000de38       ??_C@_1CA@GOLIIEDM@?$AA_?$AAi?$AAs?$AAi?$AAn?$AAd?$AAs?$AAt?$AA_?$AAn?$AAo?$AAl?$AAo?$AAc?$AAk?$AA?$AA@ 1011ae38     LIBCMTD:tzset.obj
 0003:0000de60       ??_C@_1BA@GOCKIDGO@?$AAc?$AAv?$AAt?$AAd?$AAa?$AAt?$AAe?$AA?$AA@ 1011ae60     LIBCMTD:tzset.obj
 0003:0000de74       ___dnames                  1011ae74     LIBCMTD:timeset.obj
 0003:0000de8c       ___mnames                  1011ae8c     LIBCMTD:timeset.obj
 0003:0000dec0       ??_C@_1BM@FIMHBHEB@?$AA_?$AAg?$AAe?$AAt?$AA_?$AAd?$AAa?$AAy?$AAl?$AAi?$AAg?$AAh?$AAt?$AA?$AA@ 1011aec0     LIBCMTD:timeset.obj
 0003:0000dee4       ??_C@_1BE@OINBFMF@?$AAt?$AAi?$AAm?$AAe?$AAs?$AAe?$AAt?$AA?4?$AAc?$AA?$AA@ 1011aee4     LIBCMTD:timeset.obj
 0003:0000defc       ??_C@_1CI@MKJEHFPG@?$AA?$CI?$AA_?$AAD?$AAa?$AAy?$AAl?$AAi?$AAg?$AAh?$AAt?$AA?5?$AA?$CB?$AA?$DN?$AA?5?$AAN?$AAU?$AAL?$AAL?$AA?$CJ?$AA?$AA@ 1011aefc     LIBCMTD:timeset.obj
 0003:0000df2c       ??_C@_1BK@EMODDHEE@?$AA_?$AAg?$AAe?$AAt?$AA_?$AAd?$AAs?$AAt?$AAb?$AAi?$AAa?$AAs?$AA?$AA@ 1011af2c     LIBCMTD:timeset.obj
 0003:0000df50       ??_C@_1EC@PKDJPAAB@?$AA?$CI?$AA_?$AAD?$AAa?$AAy?$AAl?$AAi?$AAg?$AAh?$AAt?$AA_?$AAs?$AAa?$AAv?$AAi?$AAn?$AAg?$AAs?$AA_?$AAb?$AAi?$AAa?$AAs?$AA?5?$AA?$CB?$AA?$DN?$AA?5?$AAN?$AAU?$AAL?$AAL?$AA?$CJ@ 1011af50     LIBCMTD:timeset.obj
 0003:0000dfa0       ??_C@_1BM@MGEAKPEJ@?$AA_?$AAg?$AAe?$AAt?$AA_?$AAt?$AAi?$AAm?$AAe?$AAz?$AAo?$AAn?$AAe?$AA?$AA@ 1011afa0     LIBCMTD:timeset.obj
 0003:0000dfc4       ??_C@_1CI@PODJJGAL@?$AA?$CI?$AA_?$AAT?$AAi?$AAm?$AAe?$AAz?$AAo?$AAn?$AAe?$AA?5?$AA?$CB?$AA?$DN?$AA?5?$AAN?$AAU?$AAL?$AAL?$AA?$CJ?$AA?$AA@ 1011afc4     LIBCMTD:timeset.obj
 0003:0000dff4       ??_C@_1DG@HLGKANIP@?$AA_?$AAI?$AAn?$AAd?$AAe?$AAx?$AA?5?$AA?$DN?$AA?$DN?$AA?5?$AA0?$AA?5?$AA?$HM?$AA?$HM?$AA?5?$AA_?$AAI?$AAn?$AAd?$AAe?$AAx?$AA?5?$AA?$DN?$AA?$DN?$AA?5?$AA1?$AA?$AA@ 1011aff4     LIBCMTD:timeset.obj
 0003:0000e034       ??_C@_1CK@GBKHKEI@?$AA_?$AAR?$AAe?$AAt?$AAu?$AAr?$AAn?$AAV?$AAa?$AAl?$AAu?$AAe?$AA?5?$AA?$CB?$AA?$DN?$AA?5?$AAN?$AAU?$AAL?$AAL?$AA?$AA@ 1011b034     LIBCMTD:timeset.obj
 0003:0000e068       ??_C@_1BI@BHCKCCFA@?$AA_?$AAg?$AAe?$AAt?$AA_?$AAt?$AAz?$AAn?$AAa?$AAm?$AAe?$AA?$AA@ 1011b068     LIBCMTD:timeset.obj
 0003:0000e088       ??_C@_1KA@POFLNEC@?$AA?$CI?$AA_?$AAB?$AAu?$AAf?$AAf?$AAe?$AAr?$AA?5?$AA?$CB?$AA?$DN?$AA?5?$AAN?$AAU?$AAL?$AAL?$AA?5?$AA?$CG?$AA?$CG?$AA?5?$AA_?$AAS?$AAi?$AAz?$AAe?$AAI?$AAn?$AAB?$AAy?$AAt?$AAe?$AAs@ 1011b088     LIBCMTD:timeset.obj
 0003:0000e154       ??_C@_1BA@LEBDGIHM@?$AA_?$AAi?$AAs?$AAa?$AAt?$AAt?$AAy?$AA?$AA@ 1011b154     LIBCMTD:isatty.obj
 0003:0000e168       ??_C@_1BC@BPJEKAMC@?$AAi?$AAs?$AAa?$AAt?$AAt?$AAy?$AA?4?$AAc?$AA?$AA@ 1011b168     LIBCMTD:isatty.obj
 0003:0000e180       ??_C@_1O@GKDHFACN@?$AAp?$AAr?$AAi?$AAn?$AAt?$AAf?$AA?$AA@ 1011b180     LIBCMTD:printf.obj
 0003:0000e190       ??_C@_1BC@BHLBENIK@?$AAp?$AAr?$AAi?$AAn?$AAt?$AAf?$AA?4?$AAc?$AA?$AA@ 1011b190     LIBCMTD:printf.obj
 0003:0000e1a8       ??_C@_1BI@IEADNOHF@?$AA_?$AAw?$AAc?$AAt?$AAo?$AAm?$AAb?$AA_?$AAs?$AA_?$AAl?$AA?$AA@ 1011b1a8     LIBCMTD:wctomb.obj
 0003:0000e1c4       ??_C@_1BC@KLMMEMGB@?$AAw?$AAc?$AAt?$AAo?$AAm?$AAb?$AA?4?$AAc?$AA?$AA@ 1011b1c4     LIBCMTD:wctomb.obj
 0003:0000e1dc       ??_C@_1CO@HFMIILNF@?$AAs?$AAi?$AAz?$AAe?$AAI?$AAn?$AAB?$AAy?$AAt?$AAe?$AAs?$AA?5?$AA?$DM?$AA?$DN?$AA?5?$AAI?$AAN?$AAT?$AA_?$AAM?$AAA?$AAX?$AA?$AA@ 1011b1dc     LIBCMTD:wctomb.obj
 0003:0000e218       ___lookuptable_s           1011b218     LIBCMTD:outputs.obj
 0003:0000e284       ??_C@_1BI@COFBLHCG@?$AA_?$AAo?$AAu?$AAt?$AAp?$AAu?$AAt?$AA_?$AAs?$AA_?$AAl?$AA?$AA@ 1011b284     LIBCMTD:outputs.obj
 0003:0000e2a0       ??_C@_1IK@MHEDJAMK@?$AA_?$AAt?$AAv?$AAa?$AAl?$AAi?$AAd?$AAa?$AAt?$AAe?$AA_?$AAp?$AAa?$AAr?$AAa?$AAm?$AA_?$AAr?$AAe?$AAu?$AAs?$AAe?$AA?$CI?$AA?$CG?$AAp?$AAo?$AAs?$AA_?$AAv?$AAa?$AAl?$AAu@ 1011b2a0     LIBCMTD:outputp.obj
 0003:0000e348       ??_C@_1BI@KANOLAMF@?$AA_?$AAo?$AAu?$AAt?$AAp?$AAu?$AAt?$AA_?$AAp?$AA_?$AAl?$AA?$AA@ 1011b348     LIBCMTD:outputp.obj
 0003:0000e364       ??_C@_1BK@CDOALEA@?$AA_?$AAc?$AAo?$AAn?$AAt?$AAr?$AAo?$AAl?$AAf?$AAp?$AA_?$AAs?$AA?$AA@ 1011b364     LIBCMTD:contrlfp.obj
 0003:0000e384       ??_C@_1BG@MIJAHIEN@?$AAc?$AAo?$AAn?$AAt?$AAr?$AAl?$AAf?$AAp?$AA?4?$AAc?$AA?$AA@ 1011b384     LIBCMTD:contrlfp.obj
 0003:0000e3a0       ??_C@_1DG@JNDMIEJL@?$AA?$CI?$AA?$CC?$AAI?$AAn?$AAv?$AAa?$AAl?$AAi?$AAd?$AA?5?$AAi?$AAn?$AAp?$AAu?$AAt?$AA?5?$AAv?$AAa?$AAl?$AAu?$AAe?$AA?$CC?$AA?0?$AA?5?$AA0?$AA?$CJ?$AA?$AA@ 1011b3a0     LIBCMTD:contrlfp.obj
 0003:0000e3e0       ??_C@_1BK@CLIEHFDF@?$AAp?$AAf?$AAl?$AAt?$AA?5?$AA?$CB?$AA?$DN?$AA?5?$AAN?$AAU?$AAL?$AAL?$AA?$AA@ 1011b3e0     LIBCMTD:_fptostr.obj
 0003:0000e400       ??_C@_1GM@CEDLGDDI@?$AAs?$AAi?$AAz?$AAe?$AAI?$AAn?$AAB?$AAy?$AAt?$AAe?$AAs?$AA?5?$AA?$DO?$AA?5?$AA?$CI?$AAs?$AAi?$AAz?$AAe?$AA_?$AAt?$AA?$CJ?$AA?$CI?$AA?$CI?$AAd?$AAi?$AAg?$AAi?$AAt?$AAs?$AA?5?$AA?$DO@ 1011b400     LIBCMTD:_fptostr.obj
 0003:0000e484       ??_C@_1BC@OPALLEB@?$AA_?$AAf?$AAp?$AAt?$AAo?$AAs?$AAt?$AAr?$AA?$AA@ 1011b484     LIBCMTD:_fptostr.obj
 0003:0000e49c       ??_C@_1BG@NJCNOLI@?$AA_?$AAf?$AAp?$AAt?$AAo?$AAs?$AAt?$AAr?$AA?4?$AAc?$AA?$AA@ 1011b49c     LIBCMTD:_fptostr.obj
 0003:0000e4b8       ??_C@_1FK@KODCOBKF@?$AAs?$AAt?$AAr?$AAc?$AAp?$AAy?$AA_?$AAs?$AA?$CI?$AAr?$AAe?$AAs?$AAu?$AAl?$AAt?$AAs?$AAt?$AAr?$AA?0?$AA?5?$AAr?$AAe?$AAs?$AAu?$AAl?$AAt?$AAs?$AAi?$AAz?$AAe?$AA?0?$AA?5@ 1011b4b8     LIBCMTD:cfout.obj
 0003:0000e524       ??_C@_1BC@BPMMEHLK@?$AA_?$AAf?$AAl?$AAt?$AAo?$AAu?$AAt?$AA2?$AA?$AA@ 1011b524     LIBCMTD:cfout.obj
 0003:0000e53c       ??_C@_1BA@BFLFHCE@?$AAc?$AAf?$AAo?$AAu?$AAt?$AA?4?$AAc?$AA?$AA@ 1011b53c     LIBCMTD:cfout.obj
 0003:0000e550       ??_C@_1CG@EBJECAJM@?$AA_?$AAs?$AAe?$AAt?$AA_?$AAo?$AAu?$AAt?$AAp?$AAu?$AAt?$AA_?$AAf?$AAo?$AAr?$AAm?$AAa?$AAt?$AA?$AA@ 1011b550     LIBCMTD:outputformat.obj
 0003:0000e580       ??_C@_1BO@GAIJFBKM@?$AAo?$AAu?$AAt?$AAp?$AAu?$AAt?$AAf?$AAo?$AAr?$AAm?$AAa?$AAt?$AA?4?$AAc?$AA?$AA@ 1011b580     LIBCMTD:outputformat.obj
 0003:0000e5a8       ??_C@_1EM@EGEEBJLG@?$AA?$CI?$AAo?$AAp?$AAt?$AAi?$AAo?$AAn?$AAs?$AA?5?$AA?$CG?$AA?5?$AA?$HO?$AA_?$AAT?$AAW?$AAO?$AA_?$AAD?$AAI?$AAG?$AAI?$AAT?$AA_?$AAE?$AAX?$AAP?$AAO?$AAN?$AAE?$AAN?$AAT?$AA?$CJ@ 1011b5a8     LIBCMTD:outputformat.obj
 0003:0000e604       ??_C@_1CC@MONNFDCM@?$AAv?$AAf?$AAw?$AAp?$AAr?$AAi?$AAn?$AAt?$AAf?$AA_?$AAh?$AAe?$AAl?$AAp?$AAe?$AAr?$AA?$AA@ 1011b604     LIBCMTD:vfwprint.obj
 0003:0000e62c       ??_C@_1BG@NPPNBJFE@?$AAv?$AAf?$AAw?$AAp?$AAr?$AAi?$AAn?$AAt?$AA?4?$AAc?$AA?$AA@ 1011b62c     LIBCMTD:vfwprint.obj
 0003:0000e648       ??_C@_1O@GIMBNLEI@?$AAx?$AAt?$AAo?$AAa?$AA_?$AAs?$AA?$AA@ 1011b648     LIBCMTD:xtoas.obj
 0003:0000e658       ??_C@_1BC@MJJNBNFN@?$AAx?$AA6?$AA4?$AAt?$AAo?$AAa?$AA_?$AAs?$AA?$AA@ 1011b658     LIBCMTD:xtoas.obj
 0003:0000e670       ??_C@_1BK@ONMFGLDB@?$AA_?$AAw?$AAo?$AAu?$AAt?$AAp?$AAu?$AAt?$AA_?$AAs?$AA_?$AAl?$AA?$AA@ 1011b670     LIBCMTD:woutputs.obj
 0003:0000e690       ___newctype                1011b690     LIBCMTD:ctype.obj
 0003:0000e990       __wctype                   1011b990     LIBCMTD:ctype.obj
 0003:0000eb98       ___newclmap                1011bb98     LIBCMTD:ctype.obj
 0003:0000ed18       ___newcumap                1011bd18     LIBCMTD:ctype.obj
 0003:0000f034       ??_C@_1BG@HHBAFOPB@?$AAi?$AAn?$AAi?$AAt?$AAt?$AAi?$AAm?$AAe?$AA?4?$AAc?$AA?$AA@ 1011c034     LIBCMTD:inittime.obj
 0003:0000f050       ??_C@_1EE@FDHCFDHN@?$AAp?$AAl?$AAo?$AAc?$AAi?$AA?9?$AA?$DO?$AAl?$AAc?$AA_?$AAt?$AAi?$AAm?$AAe?$AA_?$AAc?$AAu?$AAr?$AAr?$AA?9?$AA?$DO?$AAr?$AAe?$AAf?$AAc?$AAo?$AAu?$AAn?$AAt?$AA?5?$AA?$DO?$AA?5@ 1011c050     LIBCMTD:inittime.obj
 0003:0000f0a4       ??_C@_0L@IOJADHBB@inittime?4c?$AA@ 1011c0a4     LIBCMTD:inittime.obj
 0003:0000f0b4       ??_C@_1BE@EAFFGEEO@?$AAi?$AAn?$AAi?$AAt?$AAn?$AAu?$AAm?$AA?4?$AAc?$AA?$AA@ 1011c0b4     LIBCMTD:initnum.obj
 0003:0000f0cc       ??_C@_1DM@IFKAINNE@?$AAp?$AAl?$AAo?$AAc?$AAi?$AA?9?$AA?$DO?$AAl?$AAc?$AAo?$AAn?$AAv?$AA_?$AAn?$AAu?$AAm?$AA_?$AAr?$AAe?$AAf?$AAc?$AAo?$AAu?$AAn?$AAt?$AA?5?$AA?$DO?$AA?5?$AA0?$AA?$AA@ 1011c0cc     LIBCMTD:initnum.obj
 0003:0000f114       ??_C@_09MECGNAGI@initnum?4c?$AA@ 1011c114     LIBCMTD:initnum.obj
 0003:0000f120       ??_C@_1BE@IJMIKAHM@?$AAi?$AAn?$AAi?$AAt?$AAm?$AAo?$AAn?$AA?4?$AAc?$AA?$AA@ 1011c120     LIBCMTD:initmon.obj
 0003:0000f138       ??_C@_1DM@GKAPAMDO@?$AAp?$AAl?$AAo?$AAc?$AAi?$AA?9?$AA?$DO?$AAl?$AAc?$AAo?$AAn?$AAv?$AA_?$AAm?$AAo?$AAn?$AA_?$AAr?$AAe?$AAf?$AAc?$AAo?$AAu?$AAn?$AAt?$AA?5?$AA?$DO?$AA?5?$AA0?$AA?$AA@ 1011c138     LIBCMTD:initmon.obj
 0003:0000f180       ??_C@_09HKFHICAL@initmon?4c?$AA@ 1011c180     LIBCMTD:initmon.obj
 0003:0000f18c       ??_C@_1DG@NMBGBDM@?$AAp?$AAl?$AAo?$AAc?$AAi?$AA?9?$AA?$DO?$AAc?$AAt?$AAy?$AAp?$AAe?$AA1?$AA_?$AAr?$AAe?$AAf?$AAc?$AAo?$AAu?$AAn?$AAt?$AA?5?$AA?$DO?$AA?5?$AA0?$AA?$AA@ 1011c18c     LIBCMTD:initctyp.obj
 0003:0000f1cc       ??_C@_1BG@PMMGDKJC@?$AAi?$AAn?$AAi?$AAt?$AAc?$AAt?$AAy?$AAp?$AA?4?$AAc?$AA?$AA@ 1011c1cc     LIBCMTD:initctyp.obj
 0003:0000f1e8       ??_C@_0L@GBAGBCPL@initctyp?4c?$AA@ 1011c1e8     LIBCMTD:initctyp.obj
 0003:0000f1f8       ??_C@_08JCCMCCIL@HH?3mm?3ss?$AA@ 1011c1f8     LIBCMTD:strftime.obj
 0003:0000f204       ??_C@_0BE@CKGJFCPC@dddd?0?5MMMM?5dd?0?5yyyy?$AA@ 1011c204     LIBCMTD:strftime.obj
 0003:0000f21c       ??_C@_08BPBNCDIB@MM?1dd?1yy?$AA@ 1011c21c     LIBCMTD:strftime.obj
 0003:0000f228       ??_C@_02CJNFDJBF@PM?$AA@   1011c228     LIBCMTD:strftime.obj
 0003:0000f22c       ??_C@_02DEDBPAFC@AM?$AA@   1011c22c     LIBCMTD:strftime.obj
 0003:0000f230       ??_C@_08EDHMEBNP@December?$AA@ 1011c230     LIBCMTD:strftime.obj
 0003:0000f23c       ??_C@_08HCHEGEOA@November?$AA@ 1011c23c     LIBCMTD:strftime.obj
 0003:0000f248       ??_C@_07JJNFCEND@October?$AA@ 1011c248     LIBCMTD:strftime.obj
 0003:0000f254       ??_C@_09BHHEALKD@September?$AA@ 1011c254     LIBCMTD:strftime.obj
 0003:0000f260       ??_C@_06LBBHFDDG@August?$AA@ 1011c260     LIBCMTD:strftime.obj
 0003:0000f268       ??_C@_04MIEPOIFP@July?$AA@ 1011c268     LIBCMTD:strftime.obj
 0003:0000f270       ??_C@_04CNLMGBGM@June?$AA@ 1011c270     LIBCMTD:strftime.obj
 0003:0000f278       ??_C@_05DMJDNLEJ@April?$AA@ 1011c278     LIBCMTD:strftime.obj
 0003:0000f280       ??_C@_05HPCKOFNC@March?$AA@ 1011c280     LIBCMTD:strftime.obj
 0003:0000f288       ??_C@_08GNJGEPFN@February?$AA@ 1011c288     LIBCMTD:strftime.obj
 0003:0000f294       ??_C@_07CGJPFGJA@January?$AA@ 1011c294     LIBCMTD:strftime.obj
 0003:0000f2a0       ??_C@_03MKABNOCG@Dec?$AA@  1011c2a0     LIBCMTD:strftime.obj
 0003:0000f2a4       ??_C@_03JPJOFNIA@Nov?$AA@  1011c2a4     LIBCMTD:strftime.obj
 0003:0000f2a8       ??_C@_03BMAOKBAD@Oct?$AA@  1011c2a8     LIBCMTD:strftime.obj
 0003:0000f2ac       ??_C@_03GGCAPAJC@Sep?$AA@  1011c2ac     LIBCMTD:strftime.obj
 0003:0000f2b0       ??_C@_03IFJFEIGA@Aug?$AA@  1011c2b0     LIBCMTD:strftime.obj
 0003:0000f2b4       ??_C@_03LBGABGKK@Jul?$AA@  1011c2b4     LIBCMTD:strftime.obj
 0003:0000f2b8       ??_C@_03IDFGHECI@Jun?$AA@  1011c2b8     LIBCMTD:strftime.obj
 0003:0000f2bc       ??_C@_03CNMDKL@May?$AA@    1011c2bc     LIBCMTD:strftime.obj
 0003:0000f2c0       ??_C@_03LEOLGMJP@Apr?$AA@  1011c2c0     LIBCMTD:strftime.obj
 0003:0000f2c4       ??_C@_03ODNJBKGA@Mar?$AA@  1011c2c4     LIBCMTD:strftime.obj
 0003:0000f2c8       ??_C@_03HJBDCHOM@Feb?$AA@  1011c2c8     LIBCMTD:strftime.obj
 0003:0000f2cc       ??_C@_03JIHJHPIE@Jan?$AA@  1011c2cc     LIBCMTD:strftime.obj
 0003:0000f2d0       ??_C@_08INBOOONO@Saturday?$AA@ 1011c2d0     LIBCMTD:strftime.obj
 0003:0000f2dc       ??_C@_06JECMNKMI@Friday?$AA@ 1011c2dc     LIBCMTD:strftime.obj
 0003:0000f2e4       ??_C@_08HACCIKIA@Thursday?$AA@ 1011c2e4     LIBCMTD:strftime.obj
 0003:0000f2f0       ??_C@_09DLIGFAKA@Wednesday?$AA@ 1011c2f0     LIBCMTD:strftime.obj
 0003:0000f2fc       ??_C@_07BAAGCFCM@Tuesday?$AA@ 1011c2fc     LIBCMTD:strftime.obj
 0003:0000f308       ??_C@_06JLEDEDGH@Monday?$AA@ 1011c308     LIBCMTD:strftime.obj
 0003:0000f310       ??_C@_06OOPIFAJ@Sunday?$AA@ 1011c310     LIBCMTD:strftime.obj
 0003:0000f318       ??_C@_03FEFJNEK@Sat?$AA@   1011c318     LIBCMTD:strftime.obj
 0003:0000f31c       ??_C@_03IDIOELNC@Fri?$AA@  1011c31c     LIBCMTD:strftime.obj
 0003:0000f320       ??_C@_03IOFIKPDN@Thu?$AA@  1011c320     LIBCMTD:strftime.obj
 0003:0000f324       ??_C@_03MHOMLAJA@Wed?$AA@  1011c324     LIBCMTD:strftime.obj
 0003:0000f328       ??_C@_03NAGEINEP@Tue?$AA@  1011c328     LIBCMTD:strftime.obj
 0003:0000f32c       ??_C@_03PDAGKDH@Mon?$AA@   1011c32c     LIBCMTD:strftime.obj
 0003:0000f330       ??_C@_03KOEHGMDN@Sun?$AA@  1011c330     LIBCMTD:strftime.obj
 0003:0000f338       ??_C@_1FM@LPEPDBJF@?$AAs?$AAt?$AAr?$AAc?$AAp?$AAy?$AA_?$AAs?$AA?$CI?$AAs?$AA?0?$AA?5?$AA?$CI?$AAl?$AAe?$AAn?$AA?5?$AA?$CL?$AA?5?$AA1?$AA?$CJ?$AA?5?$AA?9?$AA?5?$AA?$CI?$AAs?$AA?5?$AA?9?$AA?5?$AAp?$AA?$CJ?$AA?0@ 1011c338     LIBCMTD:strftime.obj
 0003:0000f3a8       ??_C@_1GG@NAGHPCAA@?$AAs?$AAt?$AAr?$AAc?$AAp?$AAy?$AA_?$AAs?$AA?$CI?$AAs?$AA?0?$AA?5?$AA?$CI?$AAl?$AAe?$AAn?$AA?5?$AA?$CL?$AA?5?$AA1?$AA?$CJ?$AA?5?$AA?9?$AA?5?$AA?$CI?$AAs?$AA?5?$AA?9?$AA?5?$AAp?$AA?$CJ?$AA?0@ 1011c3a8     LIBCMTD:strftime.obj
 0003:0000f424       ??_C@_1BG@LGACIFJI@?$AA_?$AAG?$AAe?$AAt?$AAd?$AAa?$AAy?$AAs?$AA_?$AAl?$AA?$AA@ 1011c424     LIBCMTD:strftime.obj
 0003:0000f440       ??_C@_1BG@EMNEMEKA@?$AAs?$AAt?$AAr?$AAf?$AAt?$AAi?$AAm?$AAe?$AA?4?$AAc?$AA?$AA@ 1011c440     LIBCMTD:strftime.obj
 0003:0000f45c       ??_C@_0L@OCEOFAIF@strftime?4c?$AA@ 1011c45c     LIBCMTD:strftime.obj
 0003:0000f470       ??_C@_1FO@IFFKPIEL@?$AAs?$AAt?$AAr?$AAc?$AAp?$AAy?$AA_?$AAs?$AA?$CI?$AAs?$AA?0?$AA?5?$AA?$CI?$AAl?$AAe?$AAn?$AA?5?$AA?$CL?$AA?5?$AA1?$AA?$CJ?$AA?5?$AA?9?$AA?5?$AA?$CI?$AAs?$AA?5?$AA?9?$AA?5?$AAp?$AA?$CJ?$AA?0@ 1011c470     LIBCMTD:strftime.obj
 0003:0000f4e0       ??_C@_1GI@LNJDDNLK@?$AAs?$AAt?$AAr?$AAc?$AAp?$AAy?$AA_?$AAs?$AA?$CI?$AAs?$AA?0?$AA?5?$AA?$CI?$AAl?$AAe?$AAn?$AA?5?$AA?$CL?$AA?5?$AA1?$AA?$CJ?$AA?5?$AA?9?$AA?5?$AA?$CI?$AAs?$AA?5?$AA?9?$AA?5?$AAp?$AA?$CJ?$AA?0@ 1011c4e0     LIBCMTD:strftime.obj
 0003:0000f55c       ??_C@_1BK@IDMELNCB@?$AA_?$AAG?$AAe?$AAt?$AAm?$AAo?$AAn?$AAt?$AAh?$AAs?$AA_?$AAl?$AA?$AA@ 1011c55c     LIBCMTD:strftime.obj
 0003:0000f580       ??_C@_1FG@CJBIADLJ@?$AAs?$AAt?$AAr?$AAc?$AAp?$AAy?$AA_?$AAs?$AA?$CI?$AAs?$AA?0?$AA?5?$AAl?$AAe?$AAn?$AA?5?$AA?9?$AA?5?$AA?$CI?$AAs?$AA?5?$AA?9?$AA?5?$AAp?$AA?$CJ?$AA?0?$AA?5?$AAp?$AAt?$AA?9?$AA?$DO?$AAw@ 1011c580     LIBCMTD:strftime.obj
 0003:0000f5e8       ??_C@_1FI@PPIHCJGH@?$AAs?$AAt?$AAr?$AAc?$AAp?$AAy?$AA_?$AAs?$AA?$CI?$AAs?$AA?0?$AA?5?$AAl?$AAe?$AAn?$AA?5?$AA?9?$AA?5?$AA?$CI?$AAs?$AA?5?$AA?9?$AA?5?$AAp?$AA?$CJ?$AA?0?$AA?5?$AAp?$AAt?$AA?9?$AA?$DO?$AAw@ 1011c5e8     LIBCMTD:strftime.obj
 0003:0000f658       ??_C@_1FI@GDNOPCGD@?$AAs?$AAt?$AAr?$AAc?$AAp?$AAy?$AA_?$AAs?$AA?$CI?$AAs?$AA?0?$AA?5?$AAl?$AAe?$AAn?$AA?5?$AA?9?$AA?5?$AA?$CI?$AAs?$AA?5?$AA?9?$AA?5?$AAp?$AA?$CJ?$AA?0?$AA?5?$AAp?$AAt?$AA?9?$AA?$DO?$AAw@ 1011c658     LIBCMTD:strftime.obj
 0003:0000f6c8       ??_C@_1FA@MEHIJEIL@?$AAs?$AAt?$AAr?$AAc?$AAp?$AAy?$AA_?$AAs?$AA?$CI?$AAs?$AA?0?$AA?5?$AAl?$AAe?$AAn?$AA?5?$AA?9?$AA?5?$AA?$CI?$AAs?$AA?5?$AA?9?$AA?5?$AAp?$AA?$CJ?$AA?0?$AA?5?$AAp?$AAt?$AA?9?$AA?$DO?$AAa@ 1011c6c8     LIBCMTD:strftime.obj
 0003:0000f728       ??_C@_1FA@INCJEBF@?$AAs?$AAt?$AAr?$AAc?$AAp?$AAy?$AA_?$AAs?$AA?$CI?$AAs?$AA?0?$AA?5?$AAl?$AAe?$AAn?$AA?5?$AA?9?$AA?5?$AA?$CI?$AAs?$AA?5?$AA?9?$AA?5?$AAp?$AA?$CJ?$AA?0?$AA?5?$AAp?$AAt?$AA?9?$AA?$DO?$AAa@ 1011c728     LIBCMTD:strftime.obj
 0003:0000f788       ??_C@_1FC@BEAPAEGE@?$AAs?$AAt?$AAr?$AAc?$AAp?$AAy?$AA_?$AAs?$AA?$CI?$AAs?$AA?0?$AA?5?$AAl?$AAe?$AAn?$AA?5?$AA?9?$AA?5?$AA?$CI?$AAs?$AA?5?$AA?9?$AA?5?$AAp?$AA?$CJ?$AA?0?$AA?5?$AAp?$AAt?$AA?9?$AA?$DO?$AAm@ 1011c788     LIBCMTD:strftime.obj
 0003:0000f7f0       ??_C@_1FM@CHHONFED@?$AAs?$AAt?$AAr?$AAc?$AAp?$AAy?$AA_?$AAs?$AA?$CI?$AAs?$AA?0?$AA?5?$AAl?$AAe?$AAn?$AA?5?$AA?9?$AA?5?$AA?$CI?$AAs?$AA?5?$AA?9?$AA?5?$AAp?$AA?$CJ?$AA?0?$AA?5?$AAp?$AAt?$AA?9?$AA?$DO?$AAm@ 1011c7f0     LIBCMTD:strftime.obj
 0003:0000f860       ??_C@_1FA@EBHJJADL@?$AAs?$AAt?$AAr?$AAc?$AAp?$AAy?$AA_?$AAs?$AA?$CI?$AAs?$AA?0?$AA?5?$AAl?$AAe?$AAn?$AA?5?$AA?9?$AA?5?$AA?$CI?$AAs?$AA?5?$AA?9?$AA?5?$AAp?$AA?$CJ?$AA?0?$AA?5?$AAp?$AAt?$AA?9?$AA?$DO?$AAw@ 1011c860     LIBCMTD:strftime.obj
 0003:0000f8c0       ??_C@_1FK@ODMKEFLD@?$AAs?$AAt?$AAr?$AAc?$AAp?$AAy?$AA_?$AAs?$AA?$CI?$AAs?$AA?0?$AA?5?$AAl?$AAe?$AAn?$AA?5?$AA?9?$AA?5?$AA?$CI?$AAs?$AA?5?$AA?9?$AA?5?$AAp?$AA?$CJ?$AA?0?$AA?5?$AAp?$AAt?$AA?9?$AA?$DO?$AAw@ 1011c8c0     LIBCMTD:strftime.obj
 0003:0000f92c       ??_C@_1BK@MJNHIAGO@?$AA_?$AAG?$AAe?$AAt?$AAt?$AAn?$AAa?$AAm?$AAe?$AAs?$AA_?$AAl?$AA?$AA@ 1011c92c     LIBCMTD:strftime.obj
 0003:0000f94c       ??_C@_1M@HCOOECOK@?$AAF?$AAA?$AAL?$AAS?$AAE?$AA?$AA@ 1011c94c     LIBCMTD:strftime.obj
 0003:0000f960       ??_C@_1HC@JGDOBCNK@?$AA?$CI?$AA?$CC?$AAI?$AAn?$AAv?$AAa?$AAl?$AAi?$AAd?$AA?5?$AAM?$AAB?$AAC?$AAS?$AA?5?$AAc?$AAh?$AAa?$AAr?$AAa?$AAc?$AAt?$AAe?$AAr?$AA?5?$AAs?$AAe?$AAq?$AAu?$AAe?$AAn?$AAc@ 1011c960     LIBCMTD:strftime.obj
 0003:0000f9e8       ??_C@_1BG@CCBNLOOI@?$AAt?$AAi?$AAm?$AAe?$AAp?$AAt?$AAr?$AA?$CB?$AA?$DN?$AA0?$AA?$AA@ 1011c9e8     LIBCMTD:strftime.obj
 0003:0000fa04       ??_C@_1CG@MHIOFJLE@?$AA?$CI?$AA?5?$AAf?$AAo?$AAr?$AAm?$AAa?$AAt?$AA?5?$AA?$CB?$AA?$DN?$AA?5?$AAN?$AAU?$AAL?$AAL?$AA?5?$AA?$CJ?$AA?$AA@ 1011ca04     LIBCMTD:strftime.obj
 0003:0000fa34       ??_C@_1CC@IHEJKGMG@?$AA?$CI?$AA?5?$AAm?$AAa?$AAx?$AAs?$AAi?$AAz?$AAe?$AA?5?$AA?$CB?$AA?$DN?$AA?5?$AA0?$AA?5?$AA?$CJ?$AA?$AA@ 1011ca34     LIBCMTD:strftime.obj
 0003:0000fa5c       ??_C@_1BI@ONBMGNNA@?$AA_?$AAS?$AAt?$AAr?$AAf?$AAt?$AAi?$AAm?$AAe?$AA_?$AAl?$AA?$AA@ 1011ca5c     LIBCMTD:strftime.obj
 0003:0000fa78       ??_C@_1CG@MPKJHDAA@?$AA?$CI?$AA?5?$AAs?$AAt?$AAr?$AAi?$AAn?$AAg?$AA?5?$AA?$CB?$AA?$DN?$AA?5?$AAN?$AAU?$AAL?$AAL?$AA?5?$AA?$CJ?$AA?$AA@ 1011ca78     LIBCMTD:strftime.obj
 0003:0000faa8       ??_C@_1EG@JNJKHKFI@?$AA?$CI?$AA?5?$AA?$CC?$AAI?$AAn?$AAv?$AAa?$AAl?$AAi?$AAd?$AA?5?$AAf?$AAo?$AAr?$AAm?$AAa?$AAt?$AA?5?$AAd?$AAi?$AAr?$AAe?$AAc?$AAt?$AAi?$AAv?$AAe?$AA?$CC?$AA?5?$AA?0?$AA?5?$AA0@ 1011caa8     LIBCMTD:strftime.obj
 0003:0000fafc       ??_C@_1DC@NMCFBMJP@?$AA?$CI?$AA?5?$AAt?$AAi?$AAm?$AAe?$AAp?$AAt?$AAr?$AA?9?$AA?$DO?$AAt?$AAm?$AA_?$AAy?$AAe?$AAa?$AAr?$AA?5?$AA?$DO?$AA?$DN?$AA0?$AA?5?$AA?$CJ?$AA?$AA@ 1011cafc     LIBCMTD:strftime.obj
 0003:0000fb38       ??_C@_1HC@HLKHIKOB@?$AA?$CI?$AA?5?$AA?$CI?$AA?5?$AAt?$AAi?$AAm?$AAe?$AAp?$AAt?$AAr?$AA?9?$AA?$DO?$AAt?$AAm?$AA_?$AAs?$AAe?$AAc?$AA?5?$AA?$DO?$AA?$DN?$AA0?$AA?5?$AA?$CJ?$AA?5?$AA?$CG?$AA?$CG?$AA?5?$AA?$CI?$AA?5?$AAt@ 1011cb38     LIBCMTD:strftime.obj
 0003:0000fbc0       ??_C@_1HC@IGKDPPHL@?$AA?$CI?$AA?5?$AA?$CI?$AA?5?$AAt?$AAi?$AAm?$AAe?$AAp?$AAt?$AAr?$AA?9?$AA?$DO?$AAt?$AAm?$AA_?$AAm?$AAi?$AAn?$AA?5?$AA?$DO?$AA?$DN?$AA0?$AA?5?$AA?$CJ?$AA?5?$AA?$CG?$AA?$CG?$AA?5?$AA?$CI?$AA?5?$AAt@ 1011cbc0     LIBCMTD:strftime.obj
 0003:0000fc48       ??_C@_1HI@HHCJCPE@?$AA?$CI?$AA?5?$AA?$CI?$AA?5?$AAt?$AAi?$AAm?$AAe?$AAp?$AAt?$AAr?$AA?9?$AA?$DO?$AAt?$AAm?$AA_?$AAy?$AAd?$AAa?$AAy?$AA?5?$AA?$DO?$AA?$DN?$AA0?$AA?5?$AA?$CJ?$AA?5?$AA?$CG?$AA?$CG?$AA?5?$AA?$CI?$AA?5@ 1011cc48     LIBCMTD:strftime.obj
 0003:0000fcd8       ??_C@_1HG@KCGGFLNI@?$AA?$CI?$AA?5?$AA?$CI?$AA?5?$AAt?$AAi?$AAm?$AAe?$AAp?$AAt?$AAr?$AA?9?$AA?$DO?$AAt?$AAm?$AA_?$AAh?$AAo?$AAu?$AAr?$AA?5?$AA?$DO?$AA?$DN?$AA0?$AA?5?$AA?$CJ?$AA?5?$AA?$CG?$AA?$CG?$AA?5?$AA?$CI?$AA?5@ 1011ccd8     LIBCMTD:strftime.obj
 0003:0000fd68       ??_C@_1HG@NFHHOAD@?$AA?$CI?$AA?5?$AA?$CI?$AA?5?$AAt?$AAi?$AAm?$AAe?$AAp?$AAt?$AAr?$AA?9?$AA?$DO?$AAt?$AAm?$AA_?$AAm?$AAd?$AAa?$AAy?$AA?5?$AA?$DO?$AA?$DN?$AA1?$AA?5?$AA?$CJ?$AA?5?$AA?$CG?$AA?$CG?$AA?5?$AA?$CI?$AA?5@ 1011cd68     LIBCMTD:strftime.obj
 0003:0000fdf8       ??_C@_1HC@OOAMILFB@?$AA?$CI?$AA?5?$AA?$CI?$AA?5?$AAt?$AAi?$AAm?$AAe?$AAp?$AAt?$AAr?$AA?9?$AA?$DO?$AAt?$AAm?$AA_?$AAm?$AAo?$AAn?$AA?5?$AA?$DO?$AA?$DN?$AA0?$AA?5?$AA?$CJ?$AA?5?$AA?$CG?$AA?$CG?$AA?5?$AA?$CI?$AA?5?$AAt@ 1011cdf8     LIBCMTD:strftime.obj
 0003:0000fe80       ??_C@_1BI@HBKPAJH@?$AA_?$AAe?$AAx?$AAp?$AAa?$AAn?$AAd?$AAt?$AAi?$AAm?$AAe?$AA?$AA@ 1011ce80     LIBCMTD:strftime.obj
 0003:0000fea0       ??_C@_1HE@BFLEOKFO@?$AA?$CI?$AA?5?$AA?$CI?$AA?5?$AAt?$AAi?$AAm?$AAe?$AAp?$AAt?$AAr?$AA?9?$AA?$DO?$AAt?$AAm?$AA_?$AAw?$AAd?$AAa?$AAy?$AA?5?$AA?$DO?$AA?$DN?$AA0?$AA?5?$AA?$CJ?$AA?5?$AA?$CG?$AA?$CG?$AA?5?$AA?$CI?$AA?5@ 1011cea0     LIBCMTD:strftime.obj
 0003:0000ff30       ??_C@_1HG@PAEENAPO@?$AA?$CI?$AA?$CC?$AAI?$AAn?$AAv?$AAa?$AAl?$AAi?$AAd?$AA?5?$AAM?$AAB?$AAC?$AAS?$AA?5?$AAc?$AAh?$AAa?$AAr?$AAa?$AAc?$AAt?$AAe?$AAr?$AA?5?$AAs?$AAe?$AAq?$AAu?$AAe?$AAn?$AAc@ 1011cf30     LIBCMTD:strftime.obj
 0003:0000ffc0       ??_C@_1IE@EIDABBDG@?$AA?$CI?$AA?$CC?$AAI?$AAn?$AAv?$AAa?$AAl?$AAi?$AAd?$AA?5?$AAM?$AAB?$AAC?$AAS?$AA?5?$AAc?$AAh?$AAa?$AAr?$AAa?$AAc?$AAt?$AAe?$AAr?$AA?5?$AAs?$AAe?$AAq?$AAu?$AAe?$AAn?$AAc@ 1011cfc0     LIBCMTD:strftime.obj
 0003:00010060       ??_C@_03EBAPMIKO@a?1p?$AA@ 1011d060     LIBCMTD:strftime.obj
 0003:00010064       ??_C@_05JAMEPDIN@am?1pm?$AA@ 1011d064     LIBCMTD:strftime.obj
 0003:00010070       ??_C@_1BKC@GNMHAJKJ@?$AA?$CI?$AA?5?$AA?$CI?$AA?5?$AAt?$AAm?$AAp?$AAt?$AAr?$AA?9?$AA?$DO?$AAt?$AAm?$AA_?$AAm?$AAd?$AAa?$AAy?$AA?5?$AA?$DO?$AA?$DN?$AA?5?$AA1?$AA?5?$AA?$CJ?$AA?5?$AA?$CG?$AA?$CG?$AA?5?$AA?$CI?$AA?5?$AA?$CI@ 1011d070     LIBCMTD:strftime.obj
 0003:00010268       ??_C@_1GM@ODJADGLF@?$AA?$CI?$AA?5?$AA?$CI?$AA?5?$AAt?$AAm?$AAp?$AAt?$AAr?$AA?9?$AA?$DO?$AAt?$AAm?$AA_?$AAs?$AAe?$AAc?$AA?5?$AA?$DO?$AA?$DN?$AA?5?$AA0?$AA?5?$AA?$CJ?$AA?5?$AA?$CG?$AA?$CG?$AA?5?$AA?$CI?$AA?5?$AAt?$AAm@ 1011d268     LIBCMTD:strftime.obj
 0003:000102f0       ??_C@_1GM@LGPAHFOJ@?$AA?$CI?$AA?5?$AA?$CI?$AA?5?$AAt?$AAm?$AAp?$AAt?$AAr?$AA?9?$AA?$DO?$AAt?$AAm?$AA_?$AAm?$AAi?$AAn?$AA?5?$AA?$DO?$AA?$DN?$AA?5?$AA0?$AA?5?$AA?$CJ?$AA?5?$AA?$CG?$AA?$CG?$AA?5?$AA?$CI?$AA?5?$AAt?$AAm@ 1011d2f0     LIBCMTD:strftime.obj
 0003:00010378       ??_C@_1HA@HFAMHJOB@?$AA?$CI?$AA?5?$AA?$CI?$AA?5?$AAt?$AAm?$AAp?$AAt?$AAr?$AA?9?$AA?$DO?$AAt?$AAm?$AA_?$AAh?$AAo?$AAu?$AAr?$AA?5?$AA?$DO?$AA?$DN?$AA?5?$AA0?$AA?5?$AA?$CJ?$AA?5?$AA?$CG?$AA?$CG?$AA?5?$AA?$CI?$AA?5?$AAt@ 1011d378     LIBCMTD:strftime.obj
 0003:00010400       ??_C@_1GM@PGNHCPKA@?$AA?$CI?$AA?5?$AA?$CI?$AA?5?$AAt?$AAm?$AAp?$AAt?$AAr?$AA?9?$AA?$DO?$AAt?$AAm?$AA_?$AAm?$AAo?$AAn?$AA?5?$AA?$DO?$AA?$DN?$AA?5?$AA0?$AA?5?$AA?$CJ?$AA?5?$AA?$CG?$AA?$CG?$AA?5?$AA?$CI?$AA?5?$AAt?$AAm@ 1011d400     LIBCMTD:strftime.obj
 0003:00010484       ??_C@_1BO@CFDLGFLB@?$AA_?$AAs?$AAt?$AAo?$AAr?$AAe?$AA_?$AAw?$AAi?$AAn?$AAw?$AAo?$AAr?$AAd?$AA?$AA@ 1011d484     LIBCMTD:strftime.obj
 0003:000104a8       ??_C@_1DA@DFCEAJHI@?$AA?$CI?$AA?5?$AAt?$AAm?$AAp?$AAt?$AAr?$AA?9?$AA?$DO?$AAt?$AAm?$AA_?$AAy?$AAe?$AAa?$AAr?$AA?5?$AA?$DO?$AA?$DN?$AA?5?$AA0?$AA?5?$AA?$CJ?$AA?$AA@ 1011d4a8     LIBCMTD:strftime.obj
 0003:000104e4       ??_C@_0O@FMJNFNKE@united?9states?$AA@ 1011d4e4     LIBCMTD:getqloc.obj
 0003:000104f4       ??_C@_0P@NDHFFKCA@united?9kingdom?$AA@ 1011d4f4     LIBCMTD:getqloc.obj
 0003:00010508       ??_C@_0BC@HHDADLGF@trinidad?5?$CG?5tobago?$AA@ 1011d508     LIBCMTD:getqloc.obj
 0003:00010520       ??_C@_0M@IOAEBDAC@south?9korea?$AA@ 1011d520     LIBCMTD:getqloc.obj
 0003:00010530       ??_C@_0N@FIELFKIJ@south?9africa?$AA@ 1011d530     LIBCMTD:getqloc.obj
 0003:00010540       ??_C@_0M@OPNDHCMC@south?5korea?$AA@ 1011d540     LIBCMTD:getqloc.obj
 0003:00010550       ??_C@_0N@MDEOEPFI@south?5africa?$AA@ 1011d550     LIBCMTD:getqloc.obj
 0003:00010560       ??_C@_06FKAPCJLB@slovak?$AA@ 1011d560     LIBCMTD:getqloc.obj
 0003:00010568       ??_C@_0M@EFJANOAL@puerto?9rico?$AA@ 1011d568     LIBCMTD:getqloc.obj
 0003:00010578       ??_C@_08PGOJKDAI@pr?9china?$AA@ 1011d578     LIBCMTD:getqloc.obj
 0003:00010584       ??_C@_08JHDOMCMI@pr?5china?$AA@ 1011d584     LIBCMTD:getqloc.obj
 0003:00010590       ??_C@_02JHCHFBLL@nz?$AA@   1011d590     LIBCMTD:getqloc.obj
 0003:00010594       ??_C@_0M@LINHDHKP@new?9zealand?$AA@ 1011d594     LIBCMTD:getqloc.obj
 0003:000105a4       ??_C@_09IIIPPBDB@hong?9kong?$AA@ 1011d5a4     LIBCMTD:getqloc.obj
 0003:000105b0       ??_C@_07HJLCKBG@holland?$AA@ 1011d5b0     LIBCMTD:getqloc.obj
 0003:000105bc       ??_C@_0O@LEHGMHAG@great?5britain?$AA@ 1011d5bc     LIBCMTD:getqloc.obj
 0003:000105cc       ??_C@_07FACOMELA@england?$AA@ 1011d5cc     LIBCMTD:getqloc.obj
 0003:000105d8       ??_C@_05JIHCEICB@czech?$AA@ 1011d5d8     LIBCMTD:getqloc.obj
 0003:000105e0       ??_C@_05BBJOBLGB@china?$AA@ 1011d5e0     LIBCMTD:getqloc.obj
 0003:000105e8       ??_C@_07GPKPHICP@britain?$AA@ 1011d5e8     LIBCMTD:getqloc.obj
 0003:000105f4       ??_C@_07MHIPBHMG@america?$AA@ 1011d5f4     LIBCMTD:getqloc.obj
 0003:00010600       ??_C@_03KIALPMKC@usa?$AA@  1011d600     LIBCMTD:getqloc.obj
 0003:00010604       ??_C@_02FGJGKGGD@us?$AA@   1011d604     LIBCMTD:getqloc.obj
 0003:00010608       ??_C@_02NEINDODK@uk?$AA@   1011d608     LIBCMTD:getqloc.obj
 0003:0001060c       ??_C@_05JMPCFJFJ@swiss?$AA@ 1011d60c     LIBCMTD:getqloc.obj
 0003:00010614       ??_C@_0BA@HLOCPIOD@swedish?9finland?$AA@ 1011d614     LIBCMTD:getqloc.obj
 0003:00010628       ??_C@_0BC@PKCNIABK@spanish?9venezuela?$AA@ 1011d628     LIBCMTD:getqloc.obj
 0003:00010640       ??_C@_0BA@GBHHMIJI@spanish?9uruguay?$AA@ 1011d640     LIBCMTD:getqloc.obj
 0003:00010654       ??_C@_0BE@BHDOHPMC@spanish?9puerto?5rico?$AA@ 1011d654     LIBCMTD:getqloc.obj
 0003:0001066c       ??_C@_0N@KMOIDGGN@spanish?9peru?$AA@ 1011d66c     LIBCMTD:getqloc.obj
 0003:0001067c       ??_C@_0BB@HMHLPGPH@spanish?9paraguay?$AA@ 1011d67c     LIBCMTD:getqloc.obj
 0003:00010690       ??_C@_0P@MCPKNGFD@spanish?9panama?$AA@ 1011d690     LIBCMTD:getqloc.obj
 0003:000106a4       ??_C@_0BC@IHOHGAIL@spanish?9nicaragua?$AA@ 1011d6a4     LIBCMTD:getqloc.obj
 0003:000106bc       ??_C@_0P@KLMJDNFJ@spanish?9modern?$AA@ 1011d6bc     LIBCMTD:getqloc.obj
 0003:000106d0       ??_C@_0BA@BPAPGBCM@spanish?9mexican?$AA@ 1011d6d0     LIBCMTD:getqloc.obj
 0003:000106e4       ??_C@_0BB@PDECHHHE@spanish?9honduras?$AA@ 1011d6e4     LIBCMTD:getqloc.obj
 0003:000106f8       ??_C@_0BC@KLHKFGDB@spanish?9guatemala?$AA@ 1011d6f8     LIBCMTD:getqloc.obj
 0003:00010710       ??_C@_0BE@MFOOKJAI@spanish?9el?5salvador?$AA@ 1011d710     LIBCMTD:getqloc.obj
 0003:00010728       ??_C@_0BA@FCOKFPFC@spanish?9ecuador?$AA@ 1011d728     LIBCMTD:getqloc.obj
 0003:0001073c       ??_C@_0BL@PLMGIMOO@spanish?9dominican?5republic?$AA@ 1011d73c     LIBCMTD:getqloc.obj
 0003:0001075c       ??_C@_0BD@HLGDNMHB@spanish?9costa?5rica?$AA@ 1011d75c     LIBCMTD:getqloc.obj
 0003:00010774       ??_C@_0BB@PKCBKCPE@spanish?9colombia?$AA@ 1011d774     LIBCMTD:getqloc.obj
 0003:00010788       ??_C@_0O@MCBIJGNE@spanish?9chile?$AA@ 1011d788     LIBCMTD:getqloc.obj
 0003:00010798       ??_C@_0BA@BEFEIGJJ@spanish?9bolivia?$AA@ 1011d798     LIBCMTD:getqloc.obj
 0003:000107ac       ??_C@_0BC@EMECMPD@spanish?9argentina?$AA@ 1011d7ac     LIBCMTD:getqloc.obj
 0003:000107c4       ??_C@_0BF@EALFLENP@portuguese?9brazilian?$AA@ 1011d7c4     LIBCMTD:getqloc.obj
 0003:000107e0       ??_C@_0BC@HBLEBLNN@norwegian?9nynorsk?$AA@ 1011d7e0     LIBCMTD:getqloc.obj
 0003:000107f8       ??_C@_0BB@HMACDDCK@norwegian?9bokmal?$AA@ 1011d7f8     LIBCMTD:getqloc.obj
 0003:0001080c       ??_C@_09BAFFPPHE@norwegian?$AA@ 1011d80c     LIBCMTD:getqloc.obj
 0003:00010818       ??_C@_0O@EAJFJDFG@italian?9swiss?$AA@ 1011d818     LIBCMTD:getqloc.obj
 0003:00010828       ??_C@_0O@CNOMPGD@irish?9english?$AA@ 1011d828     LIBCMTD:getqloc.obj
 0003:00010838       ??_C@_0N@EDHBGCKG@german?9swiss?$AA@ 1011d838     LIBCMTD:getqloc.obj
 0003:00010848       ??_C@_0BC@JACMHNBP@german?9luxembourg?$AA@ 1011d848     LIBCMTD:getqloc.obj
 0003:00010860       ??_C@_0BE@HBGMGFEG@german?9lichtenstein?$AA@ 1011d860     LIBCMTD:getqloc.obj
 0003:00010878       ??_C@_0BA@HKKBIBKL@german?9austrian?$AA@ 1011d878     LIBCMTD:getqloc.obj
 0003:0001088c       ??_C@_0N@GCAEPEBK@french?9swiss?$AA@ 1011d88c     LIBCMTD:getqloc.obj
 0003:0001089c       ??_C@_0BC@DJFJJCK@french?9luxembourg?$AA@ 1011d89c     LIBCMTD:getqloc.obj
 0003:000108b4       ??_C@_0BA@NNCEDFIC@french?9canadian?$AA@ 1011d8b4     LIBCMTD:getqloc.obj
 0003:000108c8       ??_C@_0P@CMPOCLM@french?9belgian?$AA@ 1011d8c8     LIBCMTD:getqloc.obj
 0003:000108dc       ??_C@_0M@GHHDJOK@english?9usa?$AA@ 1011d8dc     LIBCMTD:getqloc.obj
 0003:000108ec       ??_C@_0L@PLDJKEIL@english?9us?$AA@ 1011d8ec     LIBCMTD:getqloc.obj
 0003:000108fc       ??_C@_0L@HJCCDMNC@english?9uk?$AA@ 1011d8fc     LIBCMTD:getqloc.obj
 0003:0001090c       ??_C@_0BK@CKLIAGJB@english?9trinidad?5y?5tobago?$AA@ 1011d90c     LIBCMTD:getqloc.obj
 0003:0001092c       ??_C@_0BF@JMJMGNNF@english?9south?5africa?$AA@ 1011d92c     LIBCMTD:getqloc.obj
 0003:00010948       ??_C@_0L@DKIIFDFD@english?9nz?$AA@ 1011d948     LIBCMTD:getqloc.obj
 0003:00010958       ??_C@_0BA@ONHGJCLH@english?9jamaica?$AA@ 1011d958     LIBCMTD:getqloc.obj
 0003:0001096c       ??_C@_0M@HJBGHOPO@english?9ire?$AA@ 1011d96c     LIBCMTD:getqloc.obj
 0003:0001097c       ??_C@_0BC@LFEKMIFB@english?9caribbean?$AA@ 1011d97c     LIBCMTD:getqloc.obj
 0003:00010994       ??_C@_0M@OLDPFKHI@english?9can?$AA@ 1011d994     LIBCMTD:getqloc.obj
 0003:000109a4       ??_C@_0P@OMDEHBMP@english?9belize?$AA@ 1011d9a4     LIBCMTD:getqloc.obj
 0003:000109b8       ??_C@_0M@KFHFPFED@english?9aus?$AA@ 1011d9b8     LIBCMTD:getqloc.obj
 0003:000109c8       ??_C@_0BB@MNMBKDFE@english?9american?$AA@ 1011d9c8     LIBCMTD:getqloc.obj
 0003:000109dc       ??_C@_0O@KIDLNNBA@dutch?9belgian?$AA@ 1011d9dc     LIBCMTD:getqloc.obj
 0003:000109ec       ??_C@_0BE@JBKABBMH@chinese?9traditional?$AA@ 1011d9ec     LIBCMTD:getqloc.obj
 0003:00010a04       ??_C@_0BC@MJJMPKCG@chinese?9singapore?$AA@ 1011da04     LIBCMTD:getqloc.obj
 0003:00010a1c       ??_C@_0BD@FDKADDCP@chinese?9simplified?$AA@ 1011da1c     LIBCMTD:getqloc.obj
 0003:00010a34       ??_C@_0BB@DBEFDDME@chinese?9hongkong?$AA@ 1011da34     LIBCMTD:getqloc.obj
 0003:00010a48       ??_C@_07DHNMFMCI@chinese?$AA@ 1011da48     LIBCMTD:getqloc.obj
 0003:00010a54       ??_C@_03FNDDCHI@chi?$AA@   1011da54     LIBCMTD:getqloc.obj
 0003:00010a58       ??_C@_03BMMIADDJ@chh?$AA@  1011da58     LIBCMTD:getqloc.obj
 0003:00010a5c       ??_C@_08OAIPJDGI@canadian?$AA@ 1011da5c     LIBCMTD:getqloc.obj
 0003:00010a68       ??_C@_07HBPMNPNJ@belgian?$AA@ 1011da68     LIBCMTD:getqloc.obj
 0003:00010a74       ??_C@_0L@OEKOPBEL@australian?$AA@ 1011da74     LIBCMTD:getqloc.obj
 0003:00010a84       ??_C@_0BB@MEIMBEDG@american?9english?$AA@ 1011da84     LIBCMTD:getqloc.obj
 0003:00010a98       ??_C@_0BB@DFMDPDGB@american?5english?$AA@ 1011da98     LIBCMTD:getqloc.obj
 0003:00010aac       ??_C@_08IJLOKOLL@american?$AA@ 1011daac     LIBCMTD:getqloc.obj
 0003:00010ab8       ___rg_language             1011dab8     LIBCMTD:getqloc.obj
 0003:00010d28       ___rg_country              1011dd28     LIBCMTD:getqloc.obj
 0003:00010e04       ___rglangidNotDefault      1011de04     LIBCMTD:getqloc.obj
 0003:00010e1c       ??_C@_0BC@NFIEMBLL@Norwegian?9Nynorsk?$AA@ 1011de1c     LIBCMTD:getqloc.obj
 0003:00010e38       ??_C@_1OM@OECHDGCF@?$AAs?$AAt?$AAr?$AAc?$AAp?$AAy?$AA_?$AAs?$AA?$CI?$AAl?$AAp?$AAO?$AAu?$AAt?$AAS?$AAt?$AAr?$AA?9?$AA?$DO?$AAs?$AAz?$AAL?$AAa?$AAn?$AAg?$AAu?$AAa?$AAg?$AAe?$AA?0?$AA?5?$AA?$CI@ 1011de38     LIBCMTD:getqloc.obj
 0003:00010f54       ??_C@_1CO@NJACLALJ@?$AA_?$AA_?$AAg?$AAe?$AAt?$AA_?$AAq?$AAu?$AAa?$AAl?$AAi?$AAf?$AAi?$AAe?$AAd?$AA_?$AAl?$AAo?$AAc?$AAa?$AAl?$AAe?$AA?$AA@ 1011df54     LIBCMTD:getqloc.obj
 0003:00010f8c       ??_C@_1BE@GIJNDGB@?$AAg?$AAe?$AAt?$AAq?$AAl?$AAo?$AAc?$AA?4?$AAc?$AA?$AA@ 1011df8c     LIBCMTD:getqloc.obj
 0003:00010fa4       ??_C@_03NFKLAGEF@OCP?$AA@  1011dfa4     LIBCMTD:getqloc.obj
 0003:00010fa8       ??_C@_03DFHEHBHG@ACP?$AA@  1011dfa8     LIBCMTD:getqloc.obj
 0003:00010fac       ??_C@_1BC@MFKEFFNI@?$AAm?$AAb?$AAt?$AAo?$AAw?$AAc?$AA?4?$AAc?$AA?$AA@ 1011dfac     LIBCMTD:mbtowc.obj
 0003:00010fc8       ??_C@_1NC@EINCOKCO@?$AA_?$AAl?$AAo?$AAc?$AA_?$AAu?$AAp?$AAd?$AAa?$AAt?$AAe?$AA?4?$AAG?$AAe?$AAt?$AAL?$AAo?$AAc?$AAa?$AAl?$AAe?$AAT?$AA?$CI?$AA?$CJ?$AA?9?$AA?$DO?$AAl?$AAo?$AAc?$AAi?$AAn?$AAf@ 1011dfc8     LIBCMTD:mbtowc.obj
 0003:000110c4       ??_C@_1O@HJNPHHHB@?$AAf?$AAp?$AAu?$AAt?$AAw?$AAc?$AA?$AA@ 1011e0c4     LIBCMTD:fputwc.obj
 0003:000110d4       ??_C@_1BC@LJHBJFMP@?$AAf?$AAp?$AAu?$AAt?$AAw?$AAc?$AA?4?$AAc?$AA?$AA@ 1011e0d4     LIBCMTD:fputwc.obj
 0003:000110ec       ??_C@_1O@JDPLECOK@?$AAu?$AAn?$AAg?$AAe?$AAt?$AAc?$AA?$AA@ 1011e0ec     LIBCMTD:ungetc.obj
 0003:000110fc       ??_C@_1BC@EAKHDONB@?$AAu?$AAn?$AAg?$AAe?$AAt?$AAc?$AA?4?$AAc?$AA?$AA@ 1011e0fc     LIBCMTD:ungetc.obj
 0003:00011114       ??_C@_1BO@OLMLKKEA@?$AA_?$AAu?$AAn?$AAg?$AAe?$AAt?$AAc?$AA_?$AAn?$AAo?$AAl?$AAo?$AAc?$AAk?$AA?$AA@ 1011e114     LIBCMTD:ungetc.obj
 0003:00011138       ??_C@_1HE@KGDEDLLB@?$AAF?$AA?3?$AA?2?$AAR?$AAT?$AAM?$AA?2?$AAv?$AAc?$AAt?$AAo?$AAo?$AAl?$AAs?$AA?2?$AAc?$AAr?$AAt?$AA_?$AAb?$AAl?$AAd?$AA?2?$AAS?$AAE?$AAL?$AAF?$AA_?$AAX?$AA8?$AA6?$AA?2@ 1011e138     LIBCMTD:ungetc.obj
 0003:000111c4       __pDestructExceptionObject 1011e1c4     LIBCMTD:frame.obj
 0003:000111c8       ??_C@_0O@DPKOEFFH@bad?5exception?$AA@ 1011e1c8     LIBCMTD:frame.obj
 0003:000111dc       ??_7bad_exception@std@@6B@ 1011e1dc     LIBCMTD:frame.obj
 0003:000111e8       ??_C@_0L@KBNGFDKM@convrtcp?4c?$AA@ 1011e1e8     LIBCMTD:convrtcp.obj
 0003:000111f8       ??_C@_1BI@BJLEPLEF@?$AA_?$AAs?$AAt?$AAr?$AAn?$AAi?$AAc?$AAm?$AAp?$AA_?$AAl?$AA?$AA@ 1011e1f8     LIBCMTD:strnicmp.obj
 0003:00011214       ??_C@_1BG@DAODMAPG@?$AAs?$AAt?$AAr?$AAn?$AAi?$AAc?$AAm?$AAp?$AA?4?$AAc?$AA?$AA@ 1011e214     LIBCMTD:strnicmp.obj
 0003:00011230       ??_C@_1BE@BHJDFFNA@?$AA_?$AAs?$AAt?$AAr?$AAn?$AAi?$AAc?$AAm?$AAp?$AA?$AA@ 1011e230     LIBCMTD:strnicmp.obj
 0003:00011248       ??_C@_1BE@JKKFLIKJ@?$AA_?$AAm?$AAb?$AAs?$AAc?$AAh?$AAr?$AA_?$AAl?$AA?$AA@ 1011e248     LIBCMTD:mbschr.obj
 0003:00011260       ??_C@_1BC@MDNHFJEJ@?$AAm?$AAb?$AAs?$AAc?$AAh?$AAr?$AA?4?$AAc?$AA?$AA@ 1011e260     LIBCMTD:mbschr.obj
 0003:00011278       ??_C@_1BA@NGNGNDEP@?$AA_?$AAc?$AAp?$AAu?$AAt?$AAw?$AAs?$AA?$AA@ 1011e278     LIBCMTD:putwch.obj
 0003:0001128c       ??_C@_1BC@HKEJKGAG@?$AAp?$AAu?$AAt?$AAw?$AAc?$AAh?$AA?4?$AAc?$AA?$AA@ 1011e28c     LIBCMTD:putwch.obj
 0003:000112a4       ??_C@_1BI@GALBKMKE@?$AA?$CI?$AAs?$AAi?$AAz?$AAe?$AA?5?$AA?$DO?$AA?$DN?$AA?5?$AA0?$AA?$CJ?$AA?$AA@ 1011e2a4     LIBCMTD:chsize.obj
 0003:000112c0       ??_C@_1BE@MAFDNGED@?$AA_?$AAc?$AAh?$AAs?$AAi?$AAz?$AAe?$AA_?$AAs?$AA?$AA@ 1011e2c0     LIBCMTD:chsize.obj
 0003:000112d8       ??_C@_1BC@JBFLHAGK@?$AAc?$AAh?$AAs?$AAi?$AAz?$AAe?$AA?4?$AAc?$AA?$AA@ 1011e2d8     LIBCMTD:chsize.obj
 0003:000112f0       ??_C@_1O@EDOIKGHF@?$AA_?$AAl?$AAs?$AAe?$AAe?$AAk?$AA?$AA@ 1011e2f0     LIBCMTD:lseek.obj
 0003:00011300       ??_C@_1BA@FKCCIBB@?$AAl?$AAs?$AAe?$AAe?$AAk?$AA?4?$AAc?$AA?$AA@ 1011e300     LIBCMTD:lseek.obj
 0003:00011314       ??_C@_1DM@LMLOLGJ@?$AA?$CI?$AA?$CC?$AAI?$AAn?$AAv?$AAa?$AAl?$AAi?$AAd?$AA?5?$AAf?$AAi?$AAl?$AAe?$AA?5?$AAd?$AAe?$AAs?$AAc?$AAr?$AAi?$AAp?$AAt?$AAo?$AAr?$AA?$CC?$AA?0?$AA0?$AA?$CJ?$AA?$AA@ 1011e314     LIBCMTD:lseek.obj
 0003:0001135c       ??_C@_1BC@JBGGJDCM@?$AA_?$AAs?$AAe?$AAt?$AAm?$AAo?$AAd?$AAe?$AA?$AA@ 1011e35c     LIBCMTD:setmode.obj
 0003:00011374       ??_C@_1BE@KNPEBONM@?$AAs?$AAe?$AAt?$AAm?$AAo?$AAd?$AAe?$AA?4?$AAc?$AA?$AA@ 1011e374     LIBCMTD:setmode.obj
 0003:00011390       ??_C@_1OA@HGPJIFPM@?$AA?$CI?$AA?$CI?$AAm?$AAo?$AAd?$AAe?$AA?5?$AA?$DN?$AA?$DN?$AA?5?$AA_?$AAO?$AA_?$AAT?$AAE?$AAX?$AAT?$AA?$CJ?$AA?5?$AA?$HM?$AA?$HM?$AA?5?$AA?$CI?$AAm?$AAo?$AAd?$AAe?$AA?5?$AA?$DN?$AA?$DN?$AA?5?$AA_@ 1011e390     LIBCMTD:setmode.obj
 0003:0001149c       ??_C@_1BG@IEEHLOCL@?$AA_?$AAs?$AAe?$AAt?$AA_?$AAf?$AAm?$AAo?$AAd?$AAe?$AA?$AA@ 1011e49c     LIBCMTD:setmode.obj
 0003:000114b8       ??_C@_1IC@NDCJMLB@?$AA?$CI?$AA?$CI?$AAm?$AAo?$AAd?$AAe?$AA?5?$AA?$DN?$AA?$DN?$AA?5?$AA_?$AAO?$AA_?$AAT?$AAE?$AAX?$AAT?$AA?$CJ?$AA?5?$AA?$HM?$AA?$HM?$AA?5?$AA?$CI?$AAm?$AAo?$AAd?$AAe?$AA?5?$AA?$DN?$AA?$DN?$AA?5?$AA_@ 1011e4b8     LIBCMTD:setmode.obj
 0003:00011554       ??_C@_1BG@CKGMPOFH@?$AA_?$AAg?$AAe?$AAt?$AA_?$AAf?$AAm?$AAo?$AAd?$AAe?$AA?$AA@ 1011e554     LIBCMTD:setmode.obj
 0003:00011570       ??_C@_1CA@GPIGPPFN@?$AA?$CI?$AAp?$AAM?$AAo?$AAd?$AAe?$AA?5?$AA?$CB?$AA?$DN?$AA?5?$AAN?$AAU?$AAL?$AAL?$AA?$CJ?$AA?$AA@ 1011e570     LIBCMTD:setmode.obj
 0003:00011598       ??_C@_1BG@GLLONOEH@?$AA_?$AAs?$AAt?$AAr?$AAi?$AAc?$AAm?$AAp?$AA_?$AAl?$AA?$AA@ 1011e598     LIBCMTD:stricmp.obj
 0003:000115b4       ??_C@_1BE@OLHMELNO@?$AAs?$AAt?$AAr?$AAi?$AAc?$AAm?$AAp?$AA?4?$AAc?$AA?$AA@ 1011e5b4     LIBCMTD:stricmp.obj
 0003:000115cc       ??_C@_1BC@JLGKKIIG@?$AA_?$AAs?$AAt?$AAr?$AAi?$AAc?$AAm?$AAp?$AA?$AA@ 1011e5cc     LIBCMTD:stricmp.obj
 0003:000115e4       ??_C@_1BO@JGFPDJCP@?$AAv?$AAp?$AAr?$AAi?$AAn?$AAt?$AAf?$AA_?$AAh?$AAe?$AAl?$AAp?$AAe?$AAr?$AA?$AA@ 1011e5e4     LIBCMTD:vprintf.obj
 0003:00011608       ??_C@_1BE@DEJONPKH@?$AAv?$AAp?$AAr?$AAi?$AAn?$AAt?$AAf?$AA?4?$AAc?$AA?$AA@ 1011e608     LIBCMTD:vprintf.obj
 0003:00011620       ?commonFlags@?1??_control87@@9@9 1011e620     LIBCMTD:ieee87.obj
 0003:00011628       ??_C@_1GO@OKJGOMCB@?$AA_?$AAc?$AAo?$AAn?$AAt?$AAr?$AAo?$AAl?$AAf?$AAp?$AA_?$AAs?$AA?$CI?$AA?$CI?$AA?$CI?$AAv?$AAo?$AAi?$AAd?$AA?5?$AA?$CK?$AA?$CJ?$AA0?$AA?$CJ?$AA?0?$AA?5?$AAn?$AAe?$AAw?$AAc?$AAt?$AAr@ 1011e628     LIBCMTD:ieee87.obj
 0003:000116ac       ??_C@_1BO@OFDNCLL@?$AA_?$AAs?$AAe?$AAt?$AA_?$AAc?$AAo?$AAn?$AAt?$AAr?$AAo?$AAl?$AAf?$AAp?$AA?$AA@ 1011e6ac     LIBCMTD:ieee87.obj
 0003:000116d0       ??_C@_1BM@PNOCKIGC@?$AAi?$AA3?$AA8?$AA6?$AA?2?$AAi?$AAe?$AAe?$AAe?$AA8?$AA7?$AA?4?$AAc?$AA?$AA@ 1011e6d0     LIBCMTD:ieee87.obj
 0003:000116f4       ??_C@_06IMKFLFPG@1?$CDQNAN?$AA@ 1011e6f4     LIBCMTD:x10fout.obj
 0003:00011700       ??_C@_1EG@MCFPJJEM@?$AAs?$AAt?$AAr?$AAc?$AAp?$AAy?$AA_?$AAs?$AA?$CI?$AAf?$AAo?$AAs?$AA?9?$AA?$DO?$AAm?$AAa?$AAn?$AA?0?$AA?5?$AA2?$AA1?$AA?$CL?$AA1?$AA?0?$AA?5?$AA?$CC?$AA1?$AA?$CD?$AAQ?$AAN?$AAA?$AAN@ 1011e700     LIBCMTD:x10fout.obj
 0003:00011754       ??_C@_05DNEBIAHO@1?$CDINF?$AA@ 1011e754     LIBCMTD:x10fout.obj
 0003:00011760       ??_C@_1EE@ICBBBPAI@?$AAs?$AAt?$AAr?$AAc?$AAp?$AAy?$AA_?$AAs?$AA?$CI?$AAf?$AAo?$AAs?$AA?9?$AA?$DO?$AAm?$AAa?$AAn?$AA?0?$AA?5?$AA2?$AA1?$AA?$CL?$AA1?$AA?0?$AA?5?$AA?$CC?$AA1?$AA?$CD?$AAI?$AAN?$AAF?$AA?$CC@ 1011e760     LIBCMTD:x10fout.obj
 0003:000117b4       ??_C@_05PHHOCPM@1?$CDIND?$AA@ 1011e7b4     LIBCMTD:x10fout.obj
 0003:000117c0       ??_C@_1EE@MADEBIHF@?$AAs?$AAt?$AAr?$AAc?$AAp?$AAy?$AA_?$AAs?$AA?$CI?$AAf?$AAo?$AAs?$AA?9?$AA?$DO?$AAm?$AAa?$AAn?$AA?0?$AA?5?$AA2?$AA1?$AA?$CL?$AA1?$AA?0?$AA?5?$AA?$CC?$AA1?$AA?$CD?$AAI?$AAN?$AAD?$AA?$CC@ 1011e7c0     LIBCMTD:x10fout.obj
 0003:00011814       ??_C@_06PGGFOGJG@1?$CDSNAN?$AA@ 1011e814     LIBCMTD:x10fout.obj
 0003:00011820       ??_C@_1EG@CDDBFNOB@?$AAs?$AAt?$AAr?$AAc?$AAp?$AAy?$AA_?$AAs?$AA?$CI?$AAf?$AAo?$AAs?$AA?9?$AA?$DO?$AAm?$AAa?$AAn?$AA?0?$AA?5?$AA2?$AA1?$AA?$CL?$AA1?$AA?0?$AA?5?$AA?$CC?$AA1?$AA?$CD?$AAS?$AAN?$AAA?$AAN@ 1011e820     LIBCMTD:x10fout.obj
 0003:00011874       ??_C@_1BI@ELMAAFLN@?$AA$?$AAI?$AA1?$AA0?$AA_?$AAO?$AAU?$AAT?$AAP?$AAU?$AAT?$AA?$AA@ 1011e874     LIBCMTD:x10fout.obj
 0003:00011890       ??_C@_1BE@MNAKCECJ@?$AAx?$AA1?$AA0?$AAf?$AAo?$AAu?$AAt?$AA?4?$AAc?$AA?$AA@ 1011e890     LIBCMTD:x10fout.obj
 0003:000118a8       ??_C@_1BM@BENFBNLI@?$AA_?$AAm?$AAb?$AAs?$AAn?$AAb?$AAc?$AAa?$AAt?$AA_?$AAs?$AA_?$AAl?$AA?$AA@ 1011e8a8     LIBCMTD:mbsnbcat_s_l.obj
 0003:000118d0       ??_C@_1GM@POEFFBHC@?$AAF?$AA?3?$AA?2?$AAR?$AAT?$AAM?$AA?2?$AAv?$AAc?$AAt?$AAo?$AAo?$AAl?$AAs?$AA?2?$AAc?$AAr?$AAt?$AA_?$AAb?$AAl?$AAd?$AA?2?$AAS?$AAE?$AAL?$AAF?$AA_?$AAX?$AA8?$AA6?$AA?2@ 1011e8d0     LIBCMTD:mbsnbcat_s_l.obj
 0003:00011954       ??_C@_1BM@HBMHMBEM@?$AA_?$AAm?$AAb?$AAs?$AAn?$AAb?$AAc?$AAp?$AAy?$AA_?$AAs?$AA_?$AAl?$AA?$AA@ 1011e954     LIBCMTD:mbsnbcpy_s_l.obj
 0003:00011978       ??_C@_1GM@DGPOPJNC@?$AAF?$AA?3?$AA?2?$AAR?$AAT?$AAM?$AA?2?$AAv?$AAc?$AAt?$AAo?$AAo?$AAl?$AAs?$AA?2?$AAc?$AAr?$AAt?$AA_?$AAb?$AAl?$AAd?$AA?2?$AAS?$AAE?$AAL?$AAF?$AA_?$AAX?$AA8?$AA6?$AA?2@ 1011e978     LIBCMTD:mbsnbcpy_s_l.obj
 0003:00011a00       ??_C@_1GE@DJLAMNDK@?$AAf?$AA?3?$AA?2?$AAr?$AAt?$AAm?$AA?2?$AAv?$AAc?$AAt?$AAo?$AAo?$AAl?$AAs?$AA?2?$AAc?$AAr?$AAt?$AA_?$AAb?$AAl?$AAd?$AA?2?$AAs?$AAe?$AAl?$AAf?$AA_?$AAx?$AA8?$AA6?$AA?2@ 1011ea00     LIBCMTD:_flswbuf.obj
 0003:00011a78       ??_C@_06GDENEHCP@CONIN$?$AA@ 1011ea78     LIBCMTD:initcon.obj
 0003:00011a80       ??_C@_07GPDNMNG@CONOUT$?$AA@ 1011ea80     LIBCMTD:initcon.obj
 0003:00011a8c       ??_C@_1BE@IAKAIGJB@?$AAs?$AAt?$AAr?$AAn?$AAc?$AAa?$AAt?$AA_?$AAs?$AA?$AA@ 1011ea8c     LIBCMTD:strncat_s.obj
 0003:00011aa4       ??_C@_1BA@EGFMICNO@?$AA_?$AAs?$AAt?$AAr?$AAl?$AAw?$AAr?$AA?$AA@ 1011eaa4     LIBCMTD:strlwr.obj
 0003:00011ab8       ??_C@_1BC@HINBOEMA@?$AAs?$AAt?$AAr?$AAl?$AAw?$AAr?$AA?4?$AAc?$AA?$AA@ 1011eab8     LIBCMTD:strlwr.obj
 0003:00011ad0       ??_C@_1CC@PMAIDLKG@?$AA_?$AAs?$AAt?$AAr?$AAl?$AAw?$AAr?$AA_?$AAs?$AA_?$AAl?$AA_?$AAs?$AAt?$AAa?$AAt?$AA?$AA@ 1011ead0     LIBCMTD:strlwr.obj
 0003:00011af8       ??_C@_1BA@DIKNJIGG@?$AA_?$AAs?$AAt?$AAr?$AAu?$AAp?$AAr?$AA?$AA@ 1011eaf8     LIBCMTD:strupr.obj
 0003:00011b0c       ??_C@_1BC@LLMCINE@?$AAs?$AAt?$AAr?$AAu?$AAp?$AAr?$AA?4?$AAc?$AA?$AA@ 1011eb0c     LIBCMTD:strupr.obj
 0003:00011b24       ??_C@_1CC@NFHGNMIC@?$AA_?$AAs?$AAt?$AAr?$AAu?$AAp?$AAr?$AA_?$AAs?$AA_?$AAl?$AA_?$AAs?$AAt?$AAa?$AAt?$AA?$AA@ 1011eb24     LIBCMTD:strupr.obj
 0003:00012220       ??_R4CBugReporter@@6B@     1011f220     bugreporter.obj
 0003:00012238       ??_R3CBugReporter@@8       1011f238     bugreporter.obj
 0003:0001224c       ??_R2CBugReporter@@8       1011f24c     bugreporter.obj
 0003:0001225c       ??_R1A@?0A@EA@CBugReporter@@8 1011f25c     bugreporter.obj
 0003:00012280       ??_R1A@?0A@EA@IBugReporter@@8 1011f280     bugreporter.obj
 0003:000122a4       ??_R3IBugReporter@@8       1011f2a4     bugreporter.obj
 0003:000122b8       ??_R2IBugReporter@@8       1011f2b8     bugreporter.obj
 0003:000122c4       ??_R1A@?0A@EA@IBaseInterface@@8 1011f2c4     bugreporter.obj
 0003:000122e8       ??_R3IBaseInterface@@8     1011f2e8     bugreporter.obj
 0003:000122fc       ??_R2IBaseInterface@@8     1011f2fc     bugreporter.obj
 0003:00012304       ??_R4IBugReporter@@6B@     1011f304     bugreporter.obj
 0003:0001231c       ??_R4IBaseInterface@@6B@   1011f31c     bugreporter.obj
 0003:00012334       ??_R4CUtlCStringConversion@@6B@ 1011f334     tier1:utlbuffer.obj
 0003:0001234c       ??_R3CUtlCStringConversion@@8 1011f34c     tier1:utlbuffer.obj
 0003:00012360       ??_R2CUtlCStringConversion@@8 1011f360     tier1:utlbuffer.obj
 0003:0001236c       ??_R1A@?0A@EA@CUtlCStringConversion@@8 1011f36c     tier1:utlbuffer.obj
 0003:00012390       ??_R1A@?0A@EA@CUtlCharConversion@@8 1011f390     tier1:utlbuffer.obj
 0003:000123b4       ??_R3CUtlCharConversion@@8 1011f3b4     tier1:utlbuffer.obj
 0003:000123c8       ??_R2CUtlCharConversion@@8 1011f3c8     tier1:utlbuffer.obj
 0003:000123d0       ??_R4CUtlCharConversion@@6B@ 1011f3d0     tier1:utlbuffer.obj
 0003:000123e8       ??_R4CUtlNoEscConversion@@6B@ 1011f3e8     tier1:utlbuffer.obj
 0003:00012400       ??_R3CUtlNoEscConversion@@8 1011f400     tier1:utlbuffer.obj
 0003:00012414       ??_R2CUtlNoEscConversion@@8 1011f414     tier1:utlbuffer.obj
 0003:00012420       ??_R1A@?0A@EA@CUtlNoEscConversion@@8 1011f420     tier1:utlbuffer.obj
 0003:00012444       ??_R4CDllDemandLoader@@6B@ 1011f444     tier1:interface.obj
 0003:0001245c       ??_R3CDllDemandLoader@@8   1011f45c     tier1:interface.obj
 0003:00012470       ??_R2CDllDemandLoader@@8   1011f470     tier1:interface.obj
 0003:00012478       ??_R1A@?0A@EA@CDllDemandLoader@@8 1011f478     tier1:interface.obj
 0003:0001249c       ??_R4CCountedStringPool@@6B@ 1011f49c     tier1:stringpool.obj
 0003:000124b4       ??_R3CCountedStringPool@@8 1011f4b4     tier1:stringpool.obj
 0003:000124c8       ??_R2CCountedStringPool@@8 1011f4c8     tier1:stringpool.obj
 0003:000124d0       ??_R1A@?0A@EA@CCountedStringPool@@8 1011f4d0     tier1:stringpool.obj
 0003:000124f4       ??_R4ConCommandBase@@6B@   1011f4f4     tier1:convar.obj
 0003:0001250c       ??_R3ConCommandBase@@8     1011f50c     tier1:convar.obj
 0003:00012520       ??_R2ConCommandBase@@8     1011f520     tier1:convar.obj
 0003:00012528       ??_R1A@?0A@EA@ConCommandBase@@8 1011f528     tier1:convar.obj
 0003:0001254c       ??_R4ConCommand@@6B@       1011f54c     tier1:convar.obj
 0003:00012564       ??_R3ConCommand@@8         1011f564     tier1:convar.obj
 0003:00012578       ??_R2ConCommand@@8         1011f578     tier1:convar.obj
 0003:00012584       ??_R1A@?0A@EA@ConCommand@@8 1011f584     tier1:convar.obj
 0003:000125a8       ??_R4ConVar@@6BConCommandBase@@@ 1011f5a8     tier1:convar.obj
 0003:000125c0       ??_R3ConVar@@8             1011f5c0     tier1:convar.obj
 0003:000125d4       ??_R2ConVar@@8             1011f5d4     tier1:convar.obj
 0003:000125e4       ??_R1A@?0A@EA@ConVar@@8    1011f5e4     tier1:convar.obj
 0003:00012608       ??_R1BI@?0A@EA@IConVar@@8  1011f608     tier1:convar.obj
 0003:0001262c       ??_R3IConVar@@8            1011f62c     tier1:convar.obj
 0003:00012640       ??_R2IConVar@@8            1011f640     tier1:convar.obj
 0003:00012648       ??_R1A@?0A@EA@IConVar@@8   1011f648     tier1:convar.obj
 0003:0001266c       ??_R4ConVar@@6BIConVar@@@  1011f66c     tier1:convar.obj
 0003:00012684       ??_R4IConVar@@6B@          1011f684     tier1:convar.obj
 0003:0001269c       ??_R4CDefaultAccessor@@6B@ 1011f69c     tier1:convar.obj
 0003:000126b4       ??_R3CDefaultAccessor@@8   1011f6b4     tier1:convar.obj
 0003:000126c8       ??_R2CDefaultAccessor@@8   1011f6c8     tier1:convar.obj
 0003:000126d4       ??_R1A@?0A@EA@CDefaultAccessor@@8 1011f6d4     tier1:convar.obj
 0003:000126f8       ??_R1A@?0A@EA@IConCommandBaseAccessor@@8 1011f6f8     tier1:convar.obj
 0003:0001271c       ??_R3IConCommandBaseAccessor@@8 1011f71c     tier1:convar.obj
 0003:00012730       ??_R2IConCommandBaseAccessor@@8 1011f730     tier1:convar.obj
 0003:00012738       ??_R4IConCommandBaseAccessor@@6B@ 1011f738     tier1:convar.obj
 0003:00012750       ??_R4CEmptyConVar@@6BConCommandBase@@@ 1011f750     tier1:convar.obj
 0003:00012768       ??_R3CEmptyConVar@@8       1011f768     tier1:convar.obj
 0003:0001277c       ??_R2CEmptyConVar@@8       1011f77c     tier1:convar.obj
 0003:00012790       ??_R1A@?0A@EA@CEmptyConVar@@8 1011f790     tier1:convar.obj
 0003:000127b4       ??_R4CEmptyConVar@@6BIConVar@@@ 1011f7b4     tier1:convar.obj
 0003:000127cc       ??_R4type_info@@6B@        1011f7cc     LIBCMTD:typinfo.obj
 0003:000127e4       ??_R3type_info@@8          1011f7e4     LIBCMTD:typinfo.obj
 0003:000127f8       ??_R2type_info@@8          1011f7f8     LIBCMTD:typinfo.obj
 0003:00012800       ??_R1A@?0A@EA@type_info@@8 1011f800     LIBCMTD:typinfo.obj
 0003:00012824       ??_R4exception@std@@6B@    1011f824     LIBCMTD:stdexcpt.obj
 0003:0001283c       ??_R3exception@std@@8      1011f83c     LIBCMTD:stdexcpt.obj
 0003:00012850       ??_R2exception@std@@8      1011f850     LIBCMTD:stdexcpt.obj
 0003:00012858       ??_R1A@?0A@EA@exception@std@@8 1011f858     LIBCMTD:stdexcpt.obj
 0003:0001287c       ??_R4bad_cast@std@@6B@     1011f87c     LIBCMTD:stdexcpt.obj
 0003:00012894       ??_R3bad_cast@std@@8       1011f894     LIBCMTD:stdexcpt.obj
 0003:000128a8       ??_R2bad_cast@std@@8       1011f8a8     LIBCMTD:stdexcpt.obj
 0003:000128b4       ??_R1A@?0A@EA@bad_cast@std@@8 1011f8b4     LIBCMTD:stdexcpt.obj
 0003:000128d8       ??_R4bad_typeid@std@@6B@   1011f8d8     LIBCMTD:stdexcpt.obj
 0003:000128f0       ??_R3bad_typeid@std@@8     1011f8f0     LIBCMTD:stdexcpt.obj
 0003:00012904       ??_R2bad_typeid@std@@8     1011f904     LIBCMTD:stdexcpt.obj
 0003:00012910       ??_R1A@?0A@EA@bad_typeid@std@@8 1011f910     LIBCMTD:stdexcpt.obj
 0003:00012934       ??_R4__non_rtti_object@std@@6B@ 1011f934     LIBCMTD:stdexcpt.obj
 0003:0001294c       ??_R3__non_rtti_object@std@@8 1011f94c     LIBCMTD:stdexcpt.obj
 0003:00012960       ??_R2__non_rtti_object@std@@8 1011f960     LIBCMTD:stdexcpt.obj
 0003:00012970       ??_R1A@?0A@EA@__non_rtti_object@std@@8 1011f970     LIBCMTD:stdexcpt.obj
 0003:00012994       ??_R4DNameNode@@6B@        1011f994     LIBCMTD:undname.obj
 0003:000129ac       ??_R3DNameNode@@8          1011f9ac     LIBCMTD:undname.obj
 0003:000129c0       ??_R2DNameNode@@8          1011f9c0     LIBCMTD:undname.obj
 0003:000129c8       ??_R1A@?0A@EA@DNameNode@@8 1011f9c8     LIBCMTD:undname.obj
 0003:000129ec       ??_R4charNode@@6B@         1011f9ec     LIBCMTD:undname.obj
 0003:00012a04       ??_R3charNode@@8           1011fa04     LIBCMTD:undname.obj
 0003:00012a18       ??_R2charNode@@8           1011fa18     LIBCMTD:undname.obj
 0003:00012a24       ??_R1A@?0A@EA@charNode@@8  1011fa24     LIBCMTD:undname.obj
 0003:00012a48       ??_R4pcharNode@@6B@        1011fa48     LIBCMTD:undname.obj
 0003:00012a60       ??_R3pcharNode@@8          1011fa60     LIBCMTD:undname.obj
 0003:00012a74       ??_R2pcharNode@@8          1011fa74     LIBCMTD:undname.obj
 0003:00012a80       ??_R1A@?0A@EA@pcharNode@@8 1011fa80     LIBCMTD:undname.obj
 0003:00012aa4       ??_R4pDNameNode@@6B@       1011faa4     LIBCMTD:undname.obj
 0003:00012abc       ??_R3pDNameNode@@8         1011fabc     LIBCMTD:undname.obj
 0003:00012ad0       ??_R2pDNameNode@@8         1011fad0     LIBCMTD:undname.obj
 0003:00012adc       ??_R1A@?0A@EA@pDNameNode@@8 1011fadc     LIBCMTD:undname.obj
 0003:00012b00       ??_R4DNameStatusNode@@6B@  1011fb00     LIBCMTD:undname.obj
 0003:00012b18       ??_R3DNameStatusNode@@8    1011fb18     LIBCMTD:undname.obj
 0003:00012b2c       ??_R2DNameStatusNode@@8    1011fb2c     LIBCMTD:undname.obj
 0003:00012b38       ??_R1A@?0A@EA@DNameStatusNode@@8 1011fb38     LIBCMTD:undname.obj
 0003:00012b5c       ??_R4bad_exception@std@@6B@ 1011fb5c     LIBCMTD:frame.obj
 0003:00012b74       ??_R3bad_exception@std@@8  1011fb74     LIBCMTD:frame.obj
 0003:00012b88       ??_R2bad_exception@std@@8  1011fb88     LIBCMTD:frame.obj
 0003:00012b94       ??_R1A@?0A@EA@bad_exception@std@@8 1011fb94     LIBCMTD:frame.obj
 0003:00012cf4       ___rtc_iaa                 1011fcf4     LIBCMTD:initsect.obj
 0003:00012f14       ___rtc_izz                 1011ff14     LIBCMTD:initsect.obj
 0003:00013018       ___rtc_taa                 10120018     LIBCMTD:initsect.obj
 0003:00013238       ___rtc_tzz                 10120238     LIBCMTD:initsect.obj
 0003:00013510       __TI3?AV__non_rtti_object@std@@ 10120510     LIBCMTD:rtti.obj
 0003:00013548       __CTA3?AV__non_rtti_object@std@@ 10120548     LIBCMTD:rtti.obj
 0003:0001355c       __CT??_R0?AV__non_rtti_object@std@@@8??0__non_rtti_object@std@@QAE@ABV01@@Z12 1012055c     LIBCMTD:rtti.obj
 0003:0001357c       __CT??_R0?AVbad_typeid@std@@@8??0bad_typeid@std@@QAE@ABV01@@Z12 1012057c     LIBCMTD:rtti.obj
 0003:0001359c       __CT??_R0?AVexception@std@@@8??0exception@std@@QAE@ABV01@@Z12 1012059c     LIBCMTD:rtti.obj
 0003:000135bc       __TI2?AVbad_typeid@std@@   101205bc     LIBCMTD:rtti.obj
 0003:000135f0       __CTA2?AVbad_typeid@std@@  101205f0     LIBCMTD:rtti.obj
 0003:00013600       __TI2?AVbad_cast@std@@     10120600     LIBCMTD:rtti.obj
 0003:00013638       __CTA2?AVbad_cast@std@@    10120638     LIBCMTD:rtti.obj
 0003:00013648       __CT??_R0?AVbad_cast@std@@@8??0bad_cast@std@@QAE@ABV01@@Z12 10120648     LIBCMTD:rtti.obj
 0003:00013e88       __TI2?AVbad_exception@std@@ 10120e88     LIBCMTD:frame.obj
 0003:00013e9c       __CTA2?AVbad_exception@std@@ 10120e9c     LIBCMTD:frame.obj
 0003:00013eac       __CT??_R0?AVbad_exception@std@@@8??0bad_exception@std@@QAE@ABV01@@Z12 10120eac     LIBCMTD:frame.obj
 0004:00000004       ??_R0?AVCBugReporter@@@8   10122004     bugreporter.obj
 0004:00000024       ??_R0?AVIBugReporter@@@8   10122024     bugreporter.obj
 0004:00000044       ??_R0?AVIBaseInterface@@@8 10122044     bugreporter.obj
 0004:00000068       ?__LINE__Var@?1??Init@CBugReporter@@UAE_NP6APAXPBDPAH@Z@Z@4JA 10122068     bugreporter.obj
 0004:0000006c       ?__LINE__Var@?1??SetTitle@CBugReporter@@UAEXPBD@Z@4JA 1012206c     bugreporter.obj
 0004:00000070       ?__LINE__Var@?1??SetDescription@CBugReporter@@UAEXPBD@Z@4JA 10122070     bugreporter.obj
 0004:00000074       ?__LINE__Var@?1??SetSubmitter@CBugReporter@@UAEXPBD@Z@4JA 10122074     bugreporter.obj
 0004:00000078       ?__LINE__Var@?1??SetOwner@CBugReporter@@UAEXPBD@Z@4JA 10122078     bugreporter.obj
 0004:0000007c       ?__LINE__Var@?1??SetSeverity@CBugReporter@@UAEXPBD@Z@4JA 1012207c     bugreporter.obj
 0004:00000080       ?__LINE__Var@?1??SetPriority@CBugReporter@@UAEXPBD@Z@4JA 10122080     bugreporter.obj
 0004:00000084       ?__LINE__Var@?1??SetArea@CBugReporter@@UAEXPBD@Z@4JA 10122084     bugreporter.obj
 0004:00000088       ?__LINE__Var@?1??SetMapNumber@CBugReporter@@UAEXPBD@Z@4JA 10122088     bugreporter.obj
 0004:0000008c       ?__LINE__Var@?1??SetReportType@CBugReporter@@UAEXPBD@Z@4JA 1012208c     bugreporter.obj
 0004:00000090       ?__LINE__Var@?1??SetLevel@CBugReporter@@UAEXPBD@Z@4JA 10122090     bugreporter.obj
 0004:00000094       ?__LINE__Var@?1??SetDriverInfo@CBugReporter@@UAEXPBD@Z@4JA 10122094     bugreporter.obj
 0004:00000098       ?__LINE__Var@?1??SetMiscInfo@CBugReporter@@UAEXPBD@Z@4JA 10122098     bugreporter.obj
 0004:0000009c       ?__LINE__Var@?1??SetPosition@CBugReporter@@UAEXPBD@Z@4JA 1012209c     bugreporter.obj
 0004:000000a0       ?__LINE__Var@?1??SetOrientation@CBugReporter@@UAEXPBD@Z@4JA 101220a0     bugreporter.obj
 0004:000000a4       ?__LINE__Var@?1??SetBuildNumber@CBugReporter@@UAEXPBD@Z@4JA 101220a4     bugreporter.obj
 0004:000000a8       ?__LINE__Var@?1??SetScreenShot@CBugReporter@@UAEXPBD@Z@4JA 101220a8     bugreporter.obj
 0004:000000ac       ?__LINE__Var@?1??SetSaveGame@CBugReporter@@UAEXPBD@Z@4JA 101220ac     bugreporter.obj
 0004:000000b0       ?__LINE__Var@?1??SetBSPName@CBugReporter@@UAEXPBD@Z@4JA 101220b0     bugreporter.obj
 0004:000000b4       ?__LINE__Var@?1??SetVMFName@CBugReporter@@UAEXPBD@Z@4JA 101220b4     bugreporter.obj
 0004:000000b8       ?__LINE__Var@?1??SymbolLessThan@CBugReporter@@QAE_NABVCUtlSymbol@@0@Z@4JA 101220b8     bugreporter.obj
 0004:000000bc       ?__LINE__Var@?1??PopulateLists@CBugReporter@@AAE_NXZ@4JA 101220bc     bugreporter.obj
 0004:000000c0       ??_R0?AV?$CUtlMemory@Uincfile@CBug@@H@@@8 101220c0     bugreporter.obj
 0004:000000f4       ??_R0?AV?$CUtlMemory@VCUtlSymbol@@H@@@8 101220f4     bugreporter.obj
 0004:00000128       ??_R0?AV?$CUtlMemory@U?$UtlRBTreeNode_t@UNode_t@?$CUtlMap@VCUtlSymbol@@PAV?$CUtlVector@VCUtlSymbol@@V?$CUtlMemory@VCUtlSymbol@@H@@@@G@@G@@G@@@8 10122128     bugreporter.obj
 0004:000001d8       ??_R0?AV?$CUtlVector@Uincfile@CBug@@V?$CUtlMemory@Uincfile@CBug@@H@@@@@8 101221d8     bugreporter.obj
 0004:00000238       ??_R0?AV?$CUtlVector@VCUtlSymbol@@V?$CUtlMemory@VCUtlSymbol@@H@@@@@8 10122238     bugreporter.obj
 0004:00000290       ??_R0?AV?$CUtlRBTree@UNode_t@?$CUtlMap@VCUtlSymbol@@PAV?$CUtlVector@VCUtlSymbol@@V?$CUtlMemory@VCUtlSymbol@@H@@@@G@@GVCKeyLess@2@V?$CUtlMemory@U?$UtlRBTreeNode_t@UNode_t@?$CUtlMap@VCUtlSymbol@@PAV?$CUtlVector@VCUtlSymbol@@V?$CUtlMemory@VCUtlSymbol@@H@@@@G@@G@@G@@@@@8 10122290     bugreporter.obj
 0004:000003d4       ?__LINE__Var@?1???0Vector2D@@QAE@MM@Z@4JA 101223d4     bugreporter.obj
 0004:000003dc       __amblksiz                 101223dc     memoverride.obj
 0004:000003e0       __crtheap                  101223e0     memoverride.obj
 0004:000003e4       ___active_heap             101223e4     memoverride.obj
 0004:000003e8       __crtDbgFlag               101223e8     memoverride.obj
 0004:000003ec       __crtAssertBusy            101223ec     memoverride.obj
 0004:000003f4       ?__LINE__Var@?1??_expand_base@@9@4JA 101223f4     memoverride.obj
 0004:000003f8       ?__LINE__Var@?1??_expand@@9@4JA 101223f8     memoverride.obj
 0004:000003fc       ?__LINE__Var@?1??_expand_dbg@@9@4JA 101223fc     memoverride.obj
 0004:00000400       ?__LINE__Var@?1??_aligned_offset_malloc_base@@9@4JA 10122400     memoverride.obj
 0004:00000404       ?__LINE__Var@?1??_aligned_offset_realloc_base@@9@4JA 10122404     memoverride.obj
 0004:00000408       ?__LINE__Var@?1??_aligned_offset_recalloc_base@@9@4JA 10122408     memoverride.obj
 0004:0000040c       ?__LINE__Var@?1??_invalid_parameter_noinfo@@9@4JA 1012240c     memoverride.obj
 0004:00000410       ?__LINE__Var@?1??__crtMessageWindowW@@9@4JA 10122410     memoverride.obj
 0004:00000414       ?__LINE__Var@?1??_CrtDbgReportV@@9@4JA 10122414     memoverride.obj
 0004:00000418       ?__LINE__Var@?1??_CrtDbgReportW@@9@4JA 10122418     memoverride.obj
 0004:0000041c       ?__LINE__Var@?1??_VCrtDbgReportA@@9@4JA 1012241c     memoverride.obj
 0004:00000420       ?__LINE__Var@?1??_aligned_offset_recalloc_dbg@@9@4JA 10122420     memoverride.obj
 0004:00000424       ?__LINE__Var@?1??_heap_alloc_base@@9@4JA 10122424     memoverride.obj
 0004:00000428       ?__LINE__Var@?1??_CrtGetAllocHook@@9@4JA 10122428     memoverride.obj
 0004:0000042c       ?__LINE__Var@?1??_CrtGetDumpClient@@9@4JA 1012242c     memoverride.obj
 0004:00000430       ?__LINE__Var@?1??_CrtSetDebugFillThreshold@@9@4JA 10122430     memoverride.obj
 0004:00000434       ?__LINE__Var@?1??_wcsdup_dbg@@9@4JA 10122434     memoverride.obj
 0004:00000438       ?__LINE__Var@?1??_wcsdup@@9@4JA 10122438     memoverride.obj
 0004:00000440       ?s_bAllowStaticSymbolTable@CUtlSymbol@@1_NA 10122440     tier1:utlsymbol.obj
 0004:00000444       ?__LINE__Var@?1??Initialize@CUtlSymbol@@KAXXZ@4JA@12d12e81 10122444     tier1:utlsymbol.obj
 0004:00000448       ?__LINE__Var@?1??StringFromIndex@CUtlSymbolTable@@ABEPBDABVCStringPoolIndex@2@@Z@4JA 10122448     tier1:utlsymbol.obj
 0004:0000044c       ?__LINE__Var@?1??AddString@CUtlSymbolTable@@QAE?AVCUtlSymbol@@PBD@Z@4JA 1012244c     tier1:utlsymbol.obj
 0004:00000450       ?__LINE__Var@?1??String@CUtlSymbolTable@@QBEPBDVCUtlSymbol@@@Z@4JA 10122450     tier1:utlsymbol.obj
 0004:00000454       ?__LINE__Var@?1??FindOrAddFileName@CUtlFilenameSymbolTable@@QAEPAXPBD@Z@4JA 10122454     tier1:utlsymbol.obj
 0004:00000458       ?__LINE__Var@?1??FindFileName@CUtlFilenameSymbolTable@@QAEPAXPBD@Z@4JA 10122458     tier1:utlsymbol.obj
 0004:00000460       ??_R0?AV?$CUtlMemory@U?$UtlRBTreeNode_t@VCStringPoolIndex@CUtlSymbolTable@@G@@G@@@8 10122460     tier1:utlsymbol.obj
 0004:000004c8       ??_R0?AV?$CUtlMemory@PAUStringPool_t@CUtlSymbolTable@@H@@@8 101224c8     tier1:utlsymbol.obj
 0004:00000518       ??_R0?AV?$CUtlRBTree@VCStringPoolIndex@CUtlSymbolTable@@GVCLess@2@V?$CUtlMemory@U?$UtlRBTreeNode_t@VCStringPoolIndex@CUtlSymbolTable@@G@@G@@@@@8 10122518     tier1:utlsymbol.obj
 0004:000005c8       ??_R0?AV?$CUtlVector@PAUStringPool_t@CUtlSymbolTable@@V?$CUtlMemory@PAUStringPool_t@CUtlSymbolTable@@H@@@@@8 101225c8     tier1:utlsymbol.obj
 0004:0000065c       ?__LINE__Var@?1??LoadFromFile@KeyValues@@QAE_NPAVIBaseFileSystem@@PBD1@Z@4JA 1012265c     tier1:KeyValues.obj
 0004:00000660       ?__LINE__Var@?1??WriteConvertedString@KeyValues@@AAEXPAVIBaseFileSystem@@PAXPAVCUtlBuffer@@PBD@Z@4JA 10122660     tier1:KeyValues.obj
 0004:00000664       ?__LINE__Var@?1??RecursiveSaveToFile@KeyValues@@AAEXPAVIBaseFileSystem@@PAXPAVCUtlBuffer@@H@Z@4JA 10122664     tier1:KeyValues.obj
 0004:00000668       ?__LINE__Var@?1??FindKey@KeyValues@@QAEPAV2@PBD_N@Z@4JA 10122668     tier1:KeyValues.obj
 0004:0000066c       ?__LINE__Var@?1??AddSubKey@KeyValues@@QAEXPAV2@@Z@4JA 1012266c     tier1:KeyValues.obj
 0004:00000670       ?__LINE__Var@?1??GetInt@KeyValues@@QAEHPBDH@Z@4JA 10122670     tier1:KeyValues.obj
 0004:00000674       ?__LINE__Var@?1??SetStringValue@KeyValues@@QAEXPBD@Z@4JA 10122674     tier1:KeyValues.obj
 0004:00000678       ?__LINE__Var@?1??SetString@KeyValues@@QAEXPBD0@Z@4JA 10122678     tier1:KeyValues.obj
 0004:0000067c       ?__LINE__Var@?1??SetWString@KeyValues@@QAEXPBDPB_W@Z@4JA 1012267c     tier1:KeyValues.obj
 0004:00000680       ?__LINE__Var@?1??RecursiveCopyKeyValues@KeyValues@@AAEXAAV2@@Z@4JA 10122680     tier1:KeyValues.obj
 0004:00000684       ?__LINE__Var@?1??MakeCopy@KeyValues@@QBEPAV2@XZ@4JA 10122684     tier1:KeyValues.obj
 0004:00000688       ?__LINE__Var@?1??AppendIncludedKeys@KeyValues@@AAEXAAV?$CUtlVector@PAVKeyValues@@V?$CUtlMemory@PAVKeyValues@@H@@@@@Z@4JA 10122688     tier1:KeyValues.obj
 0004:0000068c       ?__LINE__Var@?1??ParseIncludedKeys@KeyValues@@AAEXPBD0PAVIBaseFileSystem@@0AAV?$CUtlVector@PAVKeyValues@@V?$CUtlMemory@PAVKeyValues@@H@@@@@Z@4JA 1012268c     tier1:KeyValues.obj
 0004:00000690       ?__LINE__Var@?1??MergeBaseKeys@KeyValues@@AAEXAAV?$CUtlVector@PAVKeyValues@@V?$CUtlMemory@PAVKeyValues@@H@@@@@Z@4JA 10122690     tier1:KeyValues.obj
 0004:00000694       ?__LINE__Var@?1??RecursiveMergeKeyValues@KeyValues@@AAEXPAV2@@Z@4JA 10122694     tier1:KeyValues.obj
 0004:00000698       ?__LINE__Var@?1??EvaluateConditional@@YA_NPBD@Z@4JA 10122698     tier1:KeyValues.obj
 0004:0000069c       ?__LINE__Var@?1??LoadFromBuffer@KeyValues@@QAE_NPBDAAVCUtlBuffer@@PAVIBaseFileSystem@@0@Z@4JA 1012269c     tier1:KeyValues.obj
 0004:000006a0       ?__LINE__Var@?1??LoadFromBuffer@KeyValues@@QAE_NPBD0PAVIBaseFileSystem@@0@Z@4JA 101226a0     tier1:KeyValues.obj
 0004:000006a4       ?__LINE__Var@?1??RecursiveLoadFromBuffer@KeyValues@@AAEXPBDAAVCUtlBuffer@@@Z@4JA 101226a4     tier1:KeyValues.obj
 0004:000006a8       ?__LINE__Var@?1??WriteAsBinary@KeyValues@@QAE_NAAVCUtlBuffer@@@Z@4JA 101226a8     tier1:KeyValues.obj
 0004:000006ac       ?__LINE__Var@?1??ReadAsBinary@KeyValues@@QAE_NAAVCUtlBuffer@@@Z@4JA 101226ac     tier1:KeyValues.obj
 0004:000006b0       ?__LINE__Var@?1???2KeyValues@@SAPAXI@Z@4JA@c8e5e737 101226b0     tier1:KeyValues.obj
 0004:000006b4       ?__LINE__Var@?1??ProcessResolutionKeys@KeyValues@@QAE_NPBD@Z@4JA 101226b4     tier1:KeyValues.obj
 0004:000006b8       ??_R0?AV?$CUtlMemory@PAVKeyValues@@H@@@8 101226b8     tier1:KeyValues.obj
 0004:000006f0       ??_R0?AV?$CUtlVector@PAVKeyValues@@V?$CUtlMemory@PAVKeyValues@@H@@@@@8 101226f0     tier1:KeyValues.obj
 0004:0000075c       ?__LINE__Var@?1??_V_memset@@YAXPBDHPAXHH@Z@4JA 1012275c     tier1:strtools.obj
 0004:00000760       ?__LINE__Var@?1??_V_memcpy@@YAXPBDHPAXPBXH@Z@4JA 10122760     tier1:strtools.obj
 0004:00000764       ?__LINE__Var@?1??_V_memmove@@YAXPBDHPAXPBXH@Z@4JA 10122764     tier1:strtools.obj
 0004:00000768       ?__LINE__Var@?1??_V_memcmp@@YAHPBDHPBX1H@Z@4JA 10122768     tier1:strtools.obj
 0004:0000076c       ?__LINE__Var@?1??_V_strrchr@@YAPADPBDH0D@Z@4JA 1012276c     tier1:strtools.obj
 0004:00000770       ?__LINE__Var@?1??V_strncmp@@YAHPBD0H@Z@4JA 10122770     tier1:strtools.obj
 0004:00000774       ?__LINE__Var@?1??V_strnlwr@@YAPADPADI@Z@4JA 10122774     tier1:strtools.obj
 0004:00000778       ?__LINE__Var@?1??V_strncasecmp@@YAHPBD0H@Z@4JA 10122778     tier1:strtools.obj
 0004:0000077c       ?__LINE__Var@?1??V_strnicmp@@YAHPBD0H@Z@4JA 1012277c     tier1:strtools.obj
 0004:00000780       ?__LINE__Var@?1??V_atoi@@YAHPBD@Z@4JA 10122780     tier1:strtools.obj
 0004:00000784       ?__LINE__Var@?1??V_normalizeFloatString@@YAXPAD@Z@4JA 10122784     tier1:strtools.obj
 0004:00000788       ?__LINE__Var@?1??V_strncpy@@YAXPADPBDH@Z@4JA 10122788     tier1:strtools.obj
 0004:0000078c       ?__LINE__Var@?1??V_wcsncpy@@YAXPA_WPB_WH@Z@4JA 1012278c     tier1:strtools.obj
 0004:00000790       ?__LINE__Var@?1??V_snprintf@@YAHPADHPBDZZ@4JA 10122790     tier1:strtools.obj
 0004:00000794       ?__LINE__Var@?1??V_vsnprintf@@YAHPADHPBD0@Z@4JA 10122794     tier1:strtools.obj
 0004:00000798       ?__LINE__Var@?1??V_strncat@@YAPADPADPBDIH@Z@4JA 10122798     tier1:strtools.obj
 0004:0000079c       ?__LINE__Var@?1??V_pretifynum@@YAPAD_J@Z@4JA 1012279c     tier1:strtools.obj
 0004:000007a0       ?__LINE__Var@?1??V_hextobinary@@YAXPBDHPAEH@Z@4JA 101227a0     tier1:strtools.obj
 0004:000007a4       ?__LINE__Var@?1??V_binarytohex@@YAXPBEHPADH@Z@4JA 101227a4     tier1:strtools.obj
 0004:000007a8       ?__LINE__Var@?1??V_FileBase@@YAXPBDPADH@Z@4JA 101227a8     tier1:strtools.obj
 0004:000007ac       ?__LINE__Var@?1??V_StripTrailingSlash@@YAXPAD@Z@4JA 101227ac     tier1:strtools.obj
 0004:000007b0       ?__LINE__Var@?1??V_StripExtension@@YAXPBDPADH@Z@4JA 101227b0     tier1:strtools.obj
 0004:000007b4       ?__LINE__Var@?1??V_DefaultExtension@@YAXPADPBDH@Z@4JA 101227b4     tier1:strtools.obj
 0004:000007b8       ?__LINE__Var@?1??V_StripFilename@@YAXPAD@Z@4JA 101227b8     tier1:strtools.obj
 0004:000007bc       ?__LINE__Var@?1??V_FixDoubleSlashes@@YAXPAD@Z@4JA 101227bc     tier1:strtools.obj
 0004:000007c0       ?__LINE__Var@?1??V_StripLastDir@@YA_NPADH@Z@4JA 101227c0     tier1:strtools.obj
 0004:000007c4       ?__LINE__Var@?1??V_ExtractFilePath@@YA_NPBDPADH@Z@4JA 101227c4     tier1:strtools.obj
 0004:000007c8       ?__LINE__Var@?1??V_AppendSlash@@YAXPADH@Z@4JA 101227c8     tier1:strtools.obj
 0004:000007cc       ??_R0?AV?$CUtlVector@PADV?$CUtlMemory@PADH@@@@@8 101227cc     tier1:strtools.obj
 0004:0000080c       ??_R0?AV?$CUtlMemory@PADH@@@8 1012280c     tier1:strtools.obj
 0004:000008b4       ??_R0?AVCUtlCStringConversion@@@8 101228b4     tier1:utlbuffer.obj
 0004:000008e0       ??_R0?AVCUtlCharConversion@@@8 101228e0     tier1:utlbuffer.obj
 0004:00000908       ?__LINE__Var@?1???0CUtlCharConversion@@QAE@DPBDHPAUConversionArray_t@1@@Z@4JA 10122908     tier1:utlbuffer.obj
 0004:0000090c       ?__LINE__Var@?1??FindConversion@CUtlCharConversion@@UAEDPBDPAH@Z@4JA 1012290c     tier1:utlbuffer.obj
 0004:00000910       ?__LINE__Var@?1???0CUtlBuffer@@QAE@PBXHH@Z@4JA 10122910     tier1:utlbuffer.obj
 0004:00000914       ?__LINE__Var@?1??SetBufferType@CUtlBuffer@@QAEX_N0@Z@4JA 10122914     tier1:utlbuffer.obj
 0004:00000918       ?__LINE__Var@?1??GetString@CUtlBuffer@@QAEXPADH@Z@4JA 10122918     tier1:utlbuffer.obj
 0004:0000091c       ?__LINE__Var@?1??GetLine@CUtlBuffer@@QAEXPADH@Z@4JA 1012291c     tier1:utlbuffer.obj
 0004:00000920       ?__LINE__Var@?1??VaScanf@CUtlBuffer@@QAEHPBDPAD@Z@4JA 10122920     tier1:utlbuffer.obj
 0004:00000924       ?__LINE__Var@?1??GetToken@CUtlBuffer@@QAE_NPBD@Z@4JA 10122924     tier1:utlbuffer.obj
 0004:00000928       ?__LINE__Var@?1??ParseToken@CUtlBuffer@@QAE_NPBD0PADH@Z@4JA 10122928     tier1:utlbuffer.obj
 0004:0000092c       ?__LINE__Var@?1??ParseToken@CUtlBuffer@@QAEHPAUcharacterset_t@@PADH_N@Z@4JA 1012292c     tier1:utlbuffer.obj
 0004:00000930       ?__LINE__Var@?1??PutString@CUtlBuffer@@QAEXPBD@Z@4JA 10122930     tier1:utlbuffer.obj
 0004:00000934       ?__LINE__Var@?1??PutDelimitedString@CUtlBuffer@@QAEXPAVCUtlCharConversion@@PBD@Z@4JA 10122934     tier1:utlbuffer.obj
 0004:00000938       ?__LINE__Var@?1??VaPrintf@CUtlBuffer@@QAEXPBDPAD@Z@4JA 10122938     tier1:utlbuffer.obj
 0004:0000093c       ?__LINE__Var@?1??ConvertCRLF@CUtlBuffer@@QAE_NAAV2@@Z@4JA 1012293c     tier1:utlbuffer.obj
 0004:00000940       ?__LINE__Var@?1??InplaceGetLinePtr@CUtlInplaceBuffer@@QAE_NPAPADPAH@Z@4JA 10122940     tier1:utlbuffer.obj
 0004:00000944       ?__LINE__Var@?1??InplaceGetLinePtr@CUtlInplaceBuffer@@QAEPADXZ@4JA 10122944     tier1:utlbuffer.obj
 0004:00000948       ??_R0?AV?$CUtlMemory@EH@@@8 10122948     tier1:utlbuffer.obj
 0004:0000096c       ??_R0?AVCUtlNoEscConversion@@@8 1012296c     tier1:utlbuffer.obj
 0004:00000998       ??_R0?AVCDllDemandLoader@@@8 10122998     tier1:interface.obj
 0004:000009c4       ?__LINE__Var@?1??StrLess@@YA_NABQBD0@Z@4JA 101229c4     tier1:stringpool.obj
 0004:000009c8       ?__LINE__Var@?1??Allocate@CStringPool@@QAEPBDPBD@Z@4JA 101229c8     tier1:stringpool.obj
 0004:000009cc       ?__LINE__Var@?1???0CCountedStringPool@@QAE@XZ@4JA 101229cc     tier1:stringpool.obj
 0004:000009d0       ??_R0?AVCCountedStringPool@@@8 101229d0     tier1:stringpool.obj
 0004:000009f8       ?__LINE__Var@?1??FindStringHandle@CCountedStringPool@@QAEGPBD@Z@4JA 101229f8     tier1:stringpool.obj
 0004:000009fc       ?__LINE__Var@?1??ReferenceStringHandle@CCountedStringPool@@QAEGPBD@Z@4JA 101229fc     tier1:stringpool.obj
 0004:00000a00       ?__LINE__Var@?1??DereferenceString@CCountedStringPool@@QAEXPBD@Z@4JA 10122a00     tier1:stringpool.obj
 0004:00000a04       ??_R0?AV?$CUtlMemory@U?$UtlRBTreeNode_t@PBDG@@G@@@8 10122a04     tier1:stringpool.obj
 0004:00000a44       ??_R0?AV?$CUtlMemory@GH@@@8 10122a44     tier1:stringpool.obj
 0004:00000a68       ??_R0?AV?$CUtlMemory@Uhash_item_t@CCountedStringPool@@H@@@8 10122a68     tier1:stringpool.obj
 0004:00000ab8       ??_R0?AV?$CUtlRBTree@PBDGP6A_NABQBD0@ZV?$CUtlMemory@U?$UtlRBTreeNode_t@PBDG@@G@@@@@8 10122ab8     tier1:stringpool.obj
 0004:00000b20       ??_R0?AV?$CUtlVector@Uhash_item_t@CCountedStringPool@@V?$CUtlMemory@Uhash_item_t@CCountedStringPool@@H@@@@@8 10122b20     tier1:stringpool.obj
 0004:00000ba8       ??_R0?AV?$CUtlVector@GV?$CUtlMemory@GH@@@@@8 10122ba8     tier1:stringpool.obj
 0004:00000be0       ?__LINE__Var@?1??test_stringpool@@YAXABVCCommand@@@Z@4JA@266138a8 10122be0     tier1:stringpool.obj
 0004:000010c8       ?__LINE__Var@?1??ConVar_Register@@YAXHPAVIConCommandBaseAccessor@@@Z@4JA 101230c8     tier1:convar.obj
 0004:000010cc       ?__LINE__Var@?1??ConVar_Unregister@@YAXXZ@4JA 101230cc     tier1:convar.obj
 0004:000010d0       ??_R0?AVConCommandBase@@@8 101230d0     tier1:convar.obj
 0004:000010f4       ?__LINE__Var@?1??Create@ConCommandBase@@MAEXPBD0H@Z@4JA 101230f4     tier1:convar.obj
 0004:000010f8       ?__LINE__Var@?1???0CCommand@@QAE@HPAPBD@Z@4JA 101230f8     tier1:convar.obj
 0004:000010fc       ?__LINE__Var@?1??Tokenize@CCommand@@QAE_NPBDPAUcharacterset_t@@@Z@4JA 101230fc     tier1:convar.obj
 0004:00001100       ?__LINE__Var@?1??FindArg@CCommand@@QBEPBDPBD@Z@4JA 10123100     tier1:convar.obj
 0004:00001104       ??_R0?AVConCommand@@@8     10123104     tier1:convar.obj
 0004:00001124       ?__LINE__Var@?1??Dispatch@ConCommand@@UAEXABVCCommand@@@Z@4JA 10123124     tier1:convar.obj
 0004:00001128       ?__LINE__Var@?1??AutoCompleteSuggest@ConCommand@@UAEHPBDAAV?$CUtlVector@VCUtlString@@V?$CUtlMemory@VCUtlString@@H@@@@@Z@4JA 10123128     tier1:convar.obj
 0004:0000112c       ??_R0?AVConVar@@@8         1012312c     tier1:convar.obj
 0004:00001148       ??_R0?AVIConVar@@@8        10123148     tier1:convar.obj
 0004:00001164       ?__LINE__Var@?1??InstallChangeCallback@ConVar@@QAEXP6AXPAVIConVar@@PBDM@Z@Z@4JA 10123164     tier1:convar.obj
 0004:00001168       ?__LINE__Var@?1??InternalSetValue@ConVar@@EAEXPBD@Z@4JA 10123168     tier1:convar.obj
 0004:0000116c       ?__LINE__Var@?1??ChangeStringValue@ConVar@@EAEXPBDM@Z@4JA 1012316c     tier1:convar.obj
 0004:00001170       ?__LINE__Var@?1??InternalSetFloatValue@ConVar@@EAEXM@Z@4JA 10123170     tier1:convar.obj
 0004:00001174       ?__LINE__Var@?1??InternalSetIntValue@ConVar@@EAEXH@Z@4JA 10123174     tier1:convar.obj
 0004:00001178       ?__LINE__Var@?1??Create@ConVar@@EAEXPBD0H0_NM1MP6AXPAVIConVar@@0M@Z@Z@4JA 10123178     tier1:convar.obj
 0004:0000117c       ??_R0?AVConVar_ServerBounded@@@8 1012317c     tier1:convar.obj
 0004:000011a8       ?__LINE__Var@?1??ConVar_PrintDescription@@YAXPBVConCommandBase@@@Z@4JA 101231a8     tier1:convar.obj
 0004:000011b0       ??_R0?AV?$CUtlVector@VCUtlString@@V?$CUtlMemory@VCUtlString@@H@@@@@8 101231b0     tier1:convar.obj
 0004:00001208       ??_R0?AV?$CUtlMemory@VCUtlString@@H@@@8 10123208     tier1:convar.obj
 0004:0000123c       ??_R0?AVCDefaultAccessor@@@8 1012323c     tier1:convar.obj
 0004:00001264       ??_R0?AVIConCommandBaseAccessor@@@8 10123264     tier1:convar.obj
 0004:00001294       ??_R0?AVCEmptyConVar@@@8   10123294     tier1:convar.obj
 0004:000012c0       ?__LINE__Var@?1??Get@CUtlBinaryBlock@@QBEXPAXH@Z@4JA 101232c0     tier1:utlstring.obj
 0004:000012c4       ?__LINE__Var@?1??SetLength@CUtlBinaryBlock@@QAEXH@Z@4JA 101232c4     tier1:utlstring.obj
 0004:000012c8       ?__LINE__Var@?1??Set@CUtlBinaryBlock@@QAEXPBXH@Z@4JA 101232c8     tier1:utlstring.obj
 0004:000012cc       ?__LINE__Var@?1???4CUtlBinaryBlock@@QAEAAV1@ABV1@@Z@4JA 101232cc     tier1:utlstring.obj
 0004:000012d0       ?__LINE__Var@?1??Set@CUtlString@@QAEXPBD@Z@4JA 101232d0     tier1:utlstring.obj
 0004:000012d4       ?__LINE__Var@?1??SetLength@CUtlString@@QAEXH@Z@4JA 101232d4     tier1:utlstring.obj
 0004:000012d8       ?__LINE__Var@?1??Get@CUtlString@@QAEPADXZ@4JA 101232d8     tier1:utlstring.obj
 0004:000012dc       ?__LINE__Var@?1???4CUtlString@@QAEAAV1@ABV1@@Z@4JA 101232dc     tier1:utlstring.obj
 0004:000012e0       ?__LINE__Var@?1???4CUtlString@@QAEAAV1@PBD@Z@4JA 101232e0     tier1:utlstring.obj
 0004:000012e4       ?__LINE__Var@?1???YCUtlString@@QAEAAV1@ABV1@@Z@4JA 101232e4     tier1:utlstring.obj
 0004:000012e8       ?__LINE__Var@?1???YCUtlString@@QAEAAV1@PBD@Z@4JA 101232e8     tier1:utlstring.obj
 0004:000012ec       ?__LINE__Var@?1???YCUtlString@@QAEAAV1@D@Z@4JA 101232ec     tier1:utlstring.obj
 0004:000012f0       ?__LINE__Var@?1???YCUtlString@@QAEAAV1@H@Z@4JA 101232f0     tier1:utlstring.obj
 0004:000012f4       ?__LINE__Var@?1???YCUtlString@@QAEAAV1@N@Z@4JA 101232f4     tier1:utlstring.obj
 0004:000012f8       ?__LINE__Var@?1??Format@CUtlString@@QAAHPBDZZ@4JA 101232f8     tier1:utlstring.obj
 0004:00001300       ??_R0?AVtype_info@@@8      10123300     LIBCMTD:typinfo.obj
 0004:00001320       __fltused                  10123320     LIBCMTD:fpinit.obj
 0004:00001324       __ldused                   10123324     LIBCMTD:fpinit.obj
 0004:000013a4       ??_R0?AV__non_rtti_object@std@@@8 101233a4     LIBCMTD:rtti.obj
 0004:000013d0       ??_R0?AVbad_typeid@std@@@8 101233d0     LIBCMTD:rtti.obj
 0004:000013f4       ??_R0?AVexception@std@@@8  101233f4     LIBCMTD:rtti.obj
 0004:00001418       ??_R0?AVbad_cast@std@@@8   10123418     LIBCMTD:rtti.obj
 0004:00001438       ?_RTC_ErrorLevels@@3PAHA   10123438     LIBCMTD:error.obj
 0004:00001488       ___abort_behavior          10123488     LIBCMTD:abort.obj
 0004:0000156c       ___flsindex                1012356c     LIBCMTD:tidtable.obj
 0004:00001570       ___getvalueindex           10123570     LIBCMTD:tidtable.obj
 0004:00001894       ___security_cookie         10123894     LIBCMTD:gs_cookie.obj
 0004:00001898       ___security_cookie_complement 10123898     LIBCMTD:gs_cookie.obj
 0004:0000189c       __aexit_rtn                1012389c     LIBCMTD:crt0dat.obj
 0004:000018a0       __iob                      101238a0     LIBCMTD:_file.obj
 0004:00001ba0       __lookuptrailbytes         10123ba0     LIBCMTD:read.obj
 0004:00001cd4       ___nullstring              10123cd4     LIBCMTD:output.obj
 0004:00001cd8       ___wnullstring             10123cd8     LIBCMTD:output.obj
 0004:00001ce0       ___badioinfo               10123ce0     LIBCMTD:ioinit.obj
 0004:00001d10       __cfltcvt_tab              10123d10     LIBCMTD:cmiscdat.obj
 0004:00001d80       __XcptActTab               10123d80     LIBCMTD:winxfltr.obj
 0004:00001df8       __First_FPE_Indx           10123df8     LIBCMTD:winxfltr.obj
 0004:00001dfc       __Num_FPE                  10123dfc     LIBCMTD:winxfltr.obj
 0004:00001e00       __XcptActTabSize           10123e00     LIBCMTD:winxfltr.obj
 0004:00001e04       __XcptActTabCount          10123e04     LIBCMTD:winxfltr.obj
 0004:00001e28       ___initialmbcinfo          10123e28     LIBCMTD:mbctype.obj
 0004:00002048       __mbctype                  10124048     LIBCMTD:mbctype.obj
 0004:00002150       __mbcasemap                10124150     LIBCMTD:mbctype.obj
 0004:00002250       ___ptmbcinfo               10124250     LIBCMTD:mbctype.obj
 0004:00002454       ___globallocalestatus      10124454     LIBCMTD:glstatus.obj
 0004:00002458       ___clocalestr              10124458     LIBCMTD:nlsdata2.obj
 0004:00002460       ___initiallocinfo          10124460     LIBCMTD:nlsdata2.obj
 0004:00002538       ___ptlocinfo               10124538     LIBCMTD:nlsdata2.obj
 0004:0000253c       ___lc_clike                1012453c     LIBCMTD:nlsdata2.obj
 0004:00002540       ___initiallocalestructinfo 10124540     LIBCMTD:nlsdata2.obj
 0004:00002580       __HUGE                     10124580     LIBCMTD:huge.obj
 0004:00002590       ?__pMyUnhandledExceptionFilter@@3PAXA 10124590     LIBCMTD:throw.obj
 0004:00002598       ??_R0?AVDNameNode@@@8      10124598     LIBCMTD:undname.obj
 0004:000025b4       ??_R0?AVcharNode@@@8       101245b4     LIBCMTD:undname.obj
 0004:000025d0       ??_R0?AVpcharNode@@@8      101245d0     LIBCMTD:undname.obj
 0004:000025ec       ??_R0?AVpDNameNode@@@8     101245ec     LIBCMTD:undname.obj
 0004:0000260c       ??_R0?AVDNameStatusNode@@@8 1012460c     LIBCMTD:undname.obj
 0004:00002630       __pfnAllocHook             10124630     LIBCMTD:dbghook.obj
 0004:00002634       __NLG_Destination          10124634     LIBCMTD:exsup.obj
 0004:00002668       __timezone                 10124668     LIBCMTD:timeset.obj
 0004:0000266c       __daylight                 1012466c     LIBCMTD:timeset.obj
 0004:00002670       __dstbias                  10124670     LIBCMTD:timeset.obj
 0004:000026f8       __tzname                   101246f8     LIBCMTD:timeset.obj
 0004:00002720       __lpdays                   10124720     LIBCMTD:days.obj
 0004:00002754       __days                     10124754     LIBCMTD:days.obj
 0004:000027b0       __pctype                   101247b0     LIBCMTD:ctype.obj
 0004:000027b4       __pwctype                  101247b4     LIBCMTD:ctype.obj
 0004:000027c0       ___lc_time_c               101247c0     LIBCMTD:strftime.obj
 0004:0000289c       ___lc_time_curr            1012489c     LIBCMTD:strftime.obj
 0004:000028a0       ___lconv_static_decimal    101248a0     LIBCMTD:lconv.obj
 0004:000028a4       ___lconv_c                 101248a4     LIBCMTD:lconv.obj
 0004:000028d4       ___lconv                   101248d4     LIBCMTD:lconv.obj
 0004:000028e4       ___mb_cur_max              101248e4     LIBCMTD:nlsdata1.obj
 0004:000028e8       ___decimal_point           101248e8     LIBCMTD:nlsdata1.obj
 0004:000028ec       ___decimal_point_length    101248ec     LIBCMTD:nlsdata1.obj
 0004:00002940       __pow10pos                 10124940     LIBCMTD:constpow.obj
 0004:00002aa0       __pow10neg                 10124aa0     LIBCMTD:constpow.obj
 0004:00002c94       ??_R0?AVbad_exception@std@@@8 10124c94     LIBCMTD:frame.obj
 0004:00002cd0       __coninpfh                 10124cd0     LIBCMTD:initcon.obj
 0004:00002cd4       __confh                    10124cd4     LIBCMTD:initcon.obj
 0004:00002ee0       ?g_bugreporter@@3PAVCBugReporter@@A 10124ee0     bugreporter.obj
 0004:00003510       ?s_Sentinel@?1??Links@?$CUtlRBTree@UNode_t@?$CUtlMap@VCUtlSymbol@@PAV?$CUtlVector@VCUtlSymbol@@V?$CUtlMemory@VCUtlSymbol@@H@@@@G@@GVCKeyLess@2@V?$CUtlMemory@U?$UtlRBTreeNode_t@UNode_t@?$CUtlMap@VCUtlSymbol@@PAV?$CUtlVector@VCUtlSymbol@@V?$CUtlMemory@VCUtlSymbol@@H@@@@G@@G@@G@@@@IBEABU?$UtlRBTreeLinks_t@G@@G@Z@4U3@A 10125510     bugreporter.obj
 0004:0000351c       ??_B?1??Links@?$CUtlRBTree@UNode_t@?$CUtlMap@VCUtlSymbol@@PAV?$CUtlVector@VCUtlSymbol@@V?$CUtlMemory@VCUtlSymbol@@H@@@@G@@GVCKeyLess@2@V?$CUtlMemory@U?$UtlRBTreeNode_t@UNode_t@?$CUtlMap@VCUtlSymbol@@PAV?$CUtlVector@VCUtlSymbol@@V?$CUtlMemory@VCUtlSymbol@@H@@@@G@@G@@G@@@@IBEABU?$UtlRBTreeLinks_t@G@@G@Z@51 1012551c     bugreporter.obj
 0004:00003520       __crtBreakAlloc            10125520     memoverride.obj
 0004:00003938       ___crtDebugCheckCount      10125938     memoverride.obj
 0004:00003a10       ?s_pSymbolTable@CUtlSymbol@@1PAVCUtlSymbolTableMT@@A 10125a10     tier1:utlsymbol.obj
 0004:00003a2c       ?s_Sentinel@?1??Links@?$CUtlRBTree@VCStringPoolIndex@CUtlSymbolTable@@GVCLess@2@V?$CUtlMemory@U?$UtlRBTreeNode_t@VCStringPoolIndex@CUtlSymbolTable@@G@@G@@@@IBEABU?$UtlRBTreeLinks_t@G@@G@Z@4U3@A 10125a2c     tier1:utlsymbol.obj
 0004:00003a38       ??_B?1??Links@?$CUtlRBTree@VCStringPoolIndex@CUtlSymbolTable@@GVCLess@2@V?$CUtlMemory@U?$UtlRBTreeNode_t@VCStringPoolIndex@CUtlSymbolTable@@G@@G@@@@IBEABU?$UtlRBTreeLinks_t@G@@G@Z@51 10125a38     tier1:utlsymbol.obj
 0004:00004650       ?g_KeyValuesErrorStack@@3VCKeyValuesErrorStack@@A 10126650     tier1:KeyValues.obj
 0004:00004c88       ?s_StringCharConversion@@3VCUtlCStringConversion@@A 10126c88     tier1:utlbuffer.obj
 0004:000056a0       ?s_NoEscConversion@@3VCUtlNoEscConversion@@A 101276a0     tier1:utlbuffer.obj
 0004:00006390       ?s_pInterfaceRegs@InterfaceReg@@2PAV1@A 10128390     tier1:interface.obj
 0004:00006394       ?s_Sentinel@?1??Links@?$CUtlRBTree@PBDGP6A_NABQBD0@ZV?$CUtlMemory@U?$UtlRBTreeNode_t@PBDG@@G@@@@IBEABU?$UtlRBTreeLinks_t@G@@G@Z@4U3@A 10128394     tier1:stringpool.obj
 0004:000063a0       ??_B?1??Links@?$CUtlRBTree@PBDGP6A_NABQBD0@ZV?$CUtlMemory@U?$UtlRBTreeNode_t@PBDG@@G@@@@IBEABU?$UtlRBTreeLinks_t@G@@G@Z@51 101283a0     tier1:stringpool.obj
 0004:000064e8       ?s_pConCommandBases@ConCommandBase@@1PAV1@A 101284e8     tier1:convar.obj
 0004:000064ec       ?s_pAccessor@ConCommandBase@@1PAVIConCommandBaseAccessor@@A 101284ec     tier1:convar.obj
 0004:000065a4       ?cvar@@3PAVICvar@@A        101285a4     tier1:tier1.obj
 0004:000065a8       ?g_pCVar@@3PAVICvar@@A     101285a8     tier1:tier1.obj
 0004:000065ac       ?g_pProcessUtils@@3PAVIProcessUtils@@A 101285ac     tier1:tier1.obj
 0004:000065cc       ?__type_info_root_node@@3U__type_info_node@@A 101285cc     LIBCMTD:tncleanup.obj
 0004:000065d8       ___fastflag                101285d8     LIBCMTD:fpinit.obj
 0004:000065dc       __adjust_fdiv              101285dc     LIBCMTD:fpinit.obj
 0004:000065e8       __aenvptr                  101285e8     LIBCMTD:dllcrt0.obj
 0004:000065ec       __wenvptr                  101285ec     LIBCMTD:dllcrt0.obj
 0004:000065f0       ___error_mode              101285f0     LIBCMTD:dllcrt0.obj
 0004:000065f4       ___app_type                101285f4     LIBCMTD:dllcrt0.obj
 0004:000065fc       ?wsprintffp@@3P6AHPADPBDZZA 101285fc     LIBCMTD:error.obj
 0004:000069cc       _gpFlsAlloc                101289cc     LIBCMTD:tidtable.obj
 0004:000069d0       _gpFlsGetValue             101289d0     LIBCMTD:tidtable.obj
 0004:000069d4       _gpFlsSetValue             101289d4     LIBCMTD:tidtable.obj
 0004:000069d8       _gpFlsFree                 101289d8     LIBCMTD:tidtable.obj
 0004:000069e8       ___pPurecall               101289e8     LIBCMTD:inithelp.obj
 0004:00006ba0       ___pInvalidArgHandler      10128ba0     LIBCMTD:invarg.obj
 0004:00006ba4       __umaskval                 10128ba4     LIBCMTD:crt0dat.obj
 0004:00006ba8       __osplatform               10128ba8     LIBCMTD:crt0dat.obj
 0004:00006bac       __osver                    10128bac     LIBCMTD:crt0dat.obj
 0004:00006bb0       __winver                   10128bb0     LIBCMTD:crt0dat.obj
 0004:00006bb4       __winmajor                 10128bb4     LIBCMTD:crt0dat.obj
 0004:00006bb8       __winminor                 10128bb8     LIBCMTD:crt0dat.obj
 0004:00006bbc       ___argc                    10128bbc     LIBCMTD:crt0dat.obj
 0004:00006bc0       ___argv                    10128bc0     LIBCMTD:crt0dat.obj
 0004:00006bc4       ___wargv                   10128bc4     LIBCMTD:crt0dat.obj
 0004:00006bc8       __environ                  10128bc8     LIBCMTD:crt0dat.obj
 0004:00006bcc       ___initenv                 10128bcc     LIBCMTD:crt0dat.obj
 0004:00006bd0       __wenviron                 10128bd0     LIBCMTD:crt0dat.obj
 0004:00006bd4       ___winitenv                10128bd4     LIBCMTD:crt0dat.obj
 0004:00006bd8       __pgmptr                   10128bd8     LIBCMTD:crt0dat.obj
 0004:00006bdc       __wpgmptr                  10128bdc     LIBCMTD:crt0dat.obj
 0004:00006be0       __exitflag                 10128be0     LIBCMTD:crt0dat.obj
 0004:00006be4       __C_Termination_Done       10128be4     LIBCMTD:crt0dat.obj
 0004:00006be8       __C_Exit_Done              10128be8     LIBCMTD:crt0dat.obj
 0004:00006c00       __cflush                   10128c00     LIBCMTD:_file.obj
 0004:00006c04       __stdbuf                   10128c04     LIBCMTD:_sftbuf.obj
 0004:00006d84       ___mbulinfo                10128d84     LIBCMTD:mbctype.obj
 0004:00006d90       ___mbcodepage              10128d90     LIBCMTD:mbctype.obj
 0004:00006d94       ___ismbcodepage            10128d94     LIBCMTD:mbctype.obj
 0004:00006d98       ___mblcid                  10128d98     LIBCMTD:mbctype.obj
 0004:00006da4       ___locale_changed          10128da4     LIBCMTD:setlocal.obj
 0004:00006da8       ___lc_handle               10128da8     LIBCMTD:nlsdata2.obj
 0004:00006dc0       ___lc_codepage             10128dc0     LIBCMTD:nlsdata2.obj
 0004:00006dc4       ___lc_collate_cp           10128dc4     LIBCMTD:nlsdata2.obj
 0004:00006df4       ?pArgList@UnDecorator@@0PAVReplicator@@A 10128df4     LIBCMTD:undname.obj
 0004:00006df8       ?pZNameList@UnDecorator@@0PAVReplicator@@A 10128df8     LIBCMTD:undname.obj
 0004:00006dfc       ?pTemplateArgList@UnDecorator@@0PAVReplicator@@A 10128dfc     LIBCMTD:undname.obj
 0004:00006e00       ?gName@UnDecorator@@0PBDB  10128e00     LIBCMTD:undname.obj
 0004:00006e04       ?name@UnDecorator@@0PBDB   10128e04     LIBCMTD:undname.obj
 0004:00006e08       ?outputString@UnDecorator@@0PADA 10128e08     LIBCMTD:undname.obj
 0004:00006e0c       ?maxStringLength@UnDecorator@@0HA 10128e0c     LIBCMTD:undname.obj
 0004:00006e10       ?disableFlags@UnDecorator@@0KA 10128e10     LIBCMTD:undname.obj
 0004:00006e14       ?m_pGetParameter@UnDecorator@@0P6APADJ@ZA 10128e14     LIBCMTD:undname.obj
 0004:00006e18       ?fExplicitTemplateParams@UnDecorator@@0_NA 10128e18     LIBCMTD:undname.obj
 0004:00006e19       ?fGetTemplateArgumentList@UnDecorator@@0_NA 10128e19     LIBCMTD:undname.obj
 0004:00006eb0       ?__pInconsistency@@3P6AXXZA 10128eb0     LIBCMTD:hooks.obj
 0004:00006eb8       ?_pnhHeap@@3P6AHI@ZA       10128eb8     LIBCMTD:handler.obj
 0004:00006ebc       __commode                  10128ebc     LIBCMTD:ncommode.obj
 0004:00007368       __outputformat             10129368     LIBCMTD:outputformat.obj
 0004:00007370       ___lconv_static_null       10129370     LIBCMTD:lconv.obj
 0004:00007380       __fmode                    10129380     LIBCMTD:txtmode.obj
 0004:00007384       __debugger_hook_dummy      10129384     <common>
 0004:00007390       ___setlc_active            10129390     <common>
 0004:000073a0       ___unguarded_readlc_active 101293a0     <common>
 0004:000073a4       ___use_sse2_mathfcns       101293a4     <common>
 0004:000073b4       ___sse2_available          101293b4     <common>
 0004:000073b8       __nhandle                  101293b8     <common>
 0004:00007400       ___pioinfo                 10129400     <common>
 0004:00007500       ___piob                    10129500     <common>
 0004:00007840       __bufin                    10129840     <common>
 0004:00008840       __nstream                  1012a840     <common>
 0004:00008844       ___env_initialized         1012a844     <common>
 0004:00008854       ___onexitend               1012a854     <common>
 0004:00008858       ___onexitbegin             1012a858     <common>
 0004:0000885c       ___mbctype_initialized     1012a85c     <common>
 0004:00008860       ___dyn_tls_init_callback   1012a860     <common>
 0004:00008864       __acmdln                   1012a864     <common>
 0005:00000000       __IMPORT_DESCRIPTOR_KERNEL32 1012b000     kernel32:KERNEL32.dll
 0005:00000014       __IMPORT_DESCRIPTOR_vstdlib 1012b014     vstdlib:vstdlib.dll
 0005:00000028       __IMPORT_DESCRIPTOR_tier0  1012b028     tier0:tier0.dll
 0005:0000003c       __NULL_IMPORT_DESCRIPTOR   1012b03c     kernel32:KERNEL32.dll
 0005:00000340       __imp__Sleep@4             1012b340     kernel32:KERNEL32.dll
 0005:00000344       __imp__GetModuleFileNameA@12 1012b344     kernel32:KERNEL32.dll
 0005:00000348       __imp__VirtualQuery@12     1012b348     kernel32:KERNEL32.dll
 0005:0000034c       __imp__HeapAlloc@12        1012b34c     kernel32:KERNEL32.dll
 0005:00000350       __imp__GetProcessHeap@0    1012b350     kernel32:KERNEL32.dll
 0005:00000354       __imp__SetEndOfFile@4      1012b354     kernel32:KERNEL32.dll
 0005:00000358       __imp__GetConsoleOutputCP@0 1012b358     kernel32:KERNEL32.dll
 0005:0000035c       __imp__WriteConsoleA@20    1012b35c     kernel32:KERNEL32.dll
 0005:00000360       __imp__GetUserDefaultLCID@0 1012b360     kernel32:KERNEL32.dll
 0005:00000364       __imp__EnumSystemLocalesA@8 1012b364     kernel32:KERNEL32.dll
 0005:00000368       __imp__IsValidCodePage@4   1012b368     kernel32:KERNEL32.dll
 0005:0000036c       __imp__IsValidLocale@8     1012b36c     kernel32:KERNEL32.dll
 0005:00000370       __imp__GetDateFormatA@24   1012b370     kernel32:KERNEL32.dll
 0005:00000374       __imp__GetTimeFormatA@24   1012b374     kernel32:KERNEL32.dll
 0005:00000378       __imp__GetStringTypeW@16   1012b378     kernel32:KERNEL32.dll
 0005:0000037c       __imp__GetStringTypeA@20   1012b37c     kernel32:KERNEL32.dll
 0005:00000380       __imp__GetTimeZoneInformation@4 1012b380     kernel32:KERNEL32.dll
 0005:00000384       __imp__CreateFileA@28      1012b384     kernel32:KERNEL32.dll
 0005:00000388       __imp__SetFilePointer@16   1012b388     kernel32:KERNEL32.dll
 0005:0000038c       __imp__GetConsoleMode@8    1012b38c     kernel32:KERNEL32.dll
 0005:00000390       __imp__GetConsoleCP@0      1012b390     kernel32:KERNEL32.dll
 0005:00000394       __imp__FlushFileBuffers@4  1012b394     kernel32:KERNEL32.dll
 0005:00000398       __imp__SetStdHandle@8      1012b398     kernel32:KERNEL32.dll
 0005:0000039c       __imp__InterlockedExchange@8 1012b39c     kernel32:KERNEL32.dll
 0005:000003a0       __imp__SetEnvironmentVariableA@8 1012b3a0     kernel32:KERNEL32.dll
 0005:000003a4       __imp__CompareStringW@24   1012b3a4     kernel32:KERNEL32.dll
 0005:000003a8       __imp__CompareStringA@24   1012b3a8     kernel32:KERNEL32.dll
 0005:000003ac       __imp__InitializeCriticalSection@4 1012b3ac     kernel32:KERNEL32.dll
 0005:000003b0       __imp__GetLocaleInfoW@16   1012b3b0     kernel32:KERNEL32.dll
 0005:000003b4       __imp__GetLocaleInfoA@16   1012b3b4     kernel32:KERNEL32.dll
 0005:000003b8       __imp__LCMapStringW@24     1012b3b8     kernel32:KERNEL32.dll
 0005:000003bc       __imp__LCMapStringA@24     1012b3bc     kernel32:KERNEL32.dll
 0005:000003c0       __imp__GetCPInfo@8         1012b3c0     kernel32:KERNEL32.dll
 0005:000003c4       __imp__GetOEMCP@0          1012b3c4     kernel32:KERNEL32.dll
 0005:000003c8       __imp__GetACP@0            1012b3c8     kernel32:KERNEL32.dll
 0005:000003cc       __imp__GetSystemTimeAsFileTime@4 1012b3cc     kernel32:KERNEL32.dll
 0005:000003d0       __imp__WideCharToMultiByte@32 1012b3d0     kernel32:KERNEL32.dll
 0005:000003d4       __imp__MultiByteToWideChar@24 1012b3d4     kernel32:KERNEL32.dll
 0005:000003d8       __imp__LoadLibraryExA@12   1012b3d8     kernel32:KERNEL32.dll
 0005:000003dc       __imp__LocalFree@4         1012b3dc     kernel32:KERNEL32.dll
 0005:000003e0       __imp__FormatMessageA@28   1012b3e0     kernel32:KERNEL32.dll
 0005:000003e4       __imp__GetLastError@0      1012b3e4     kernel32:KERNEL32.dll
 0005:000003e8       __imp__GetProcAddress@8    1012b3e8     kernel32:KERNEL32.dll
 0005:000003ec       __imp__FreeLibrary@4       1012b3ec     kernel32:KERNEL32.dll
 0005:000003f0       __imp__GetModuleHandleA@4  1012b3f0     kernel32:KERNEL32.dll
 0005:000003f4       __imp__FindClose@4         1012b3f4     kernel32:KERNEL32.dll
 0005:000003f8       __imp__FileTimeToSystemTime@8 1012b3f8     kernel32:KERNEL32.dll
 0005:000003fc       __imp__FileTimeToLocalFileTime@8 1012b3fc     kernel32:KERNEL32.dll
 0005:00000400       __imp__GetDriveTypeA@4     1012b400     kernel32:KERNEL32.dll
 0005:00000404       __imp__FindFirstFileA@8    1012b404     kernel32:KERNEL32.dll
 0005:00000408       __imp__CreateDirectoryA@8  1012b408     kernel32:KERNEL32.dll
 0005:0000040c       __imp__GetFileAttributesA@4 1012b40c     kernel32:KERNEL32.dll
 0005:00000410       __imp__GetModuleFileNameW@12 1012b410     kernel32:KERNEL32.dll
 0005:00000414       __imp__WriteConsoleW@20    1012b414     kernel32:KERNEL32.dll
 0005:00000418       __imp__GetFileType@4       1012b418     kernel32:KERNEL32.dll
 0005:0000041c       __imp__GetStdHandle@4      1012b41c     kernel32:KERNEL32.dll
 0005:00000420       __imp__GetCurrentThreadId@0 1012b420     kernel32:KERNEL32.dll
 0005:00000424       __imp__GetCommandLineA@0   1012b424     kernel32:KERNEL32.dll
 0005:00000428       __imp__HeapFree@12         1012b428     kernel32:KERNEL32.dll
 0005:0000042c       __imp__GetVersionExA@4     1012b42c     kernel32:KERNEL32.dll
 0005:00000430       __imp__GetFullPathNameA@16 1012b430     kernel32:KERNEL32.dll
 0005:00000434       __imp__RaiseException@16   1012b434     kernel32:KERNEL32.dll
 0005:00000438       __imp__DebugBreak@0        1012b438     kernel32:KERNEL32.dll
 0005:0000043c       __imp__IsDebuggerPresent@0 1012b43c     kernel32:KERNEL32.dll
 0005:00000440       __imp__lstrlenA@4          1012b440     kernel32:KERNEL32.dll
 0005:00000444       __imp__LoadLibraryA@4      1012b444     kernel32:KERNEL32.dll
 0005:00000448       __imp__UnhandledExceptionFilter@4 1012b448     kernel32:KERNEL32.dll
 0005:0000044c       __imp__SetUnhandledExceptionFilter@4 1012b44c     kernel32:KERNEL32.dll
 0005:00000450       __imp__WriteFile@20        1012b450     kernel32:KERNEL32.dll
 0005:00000454       __imp__TlsGetValue@4       1012b454     kernel32:KERNEL32.dll
 0005:00000458       __imp__TlsAlloc@0          1012b458     kernel32:KERNEL32.dll
 0005:0000045c       __imp__TlsSetValue@8       1012b45c     kernel32:KERNEL32.dll
 0005:00000460       __imp__TlsFree@4           1012b460     kernel32:KERNEL32.dll
 0005:00000464       __imp__InterlockedIncrement@4 1012b464     kernel32:KERNEL32.dll
 0005:00000468       __imp__SetLastError@4      1012b468     kernel32:KERNEL32.dll
 0005:0000046c       __imp__InterlockedDecrement@4 1012b46c     kernel32:KERNEL32.dll
 0005:00000470       __imp__GetCurrentThread@0  1012b470     kernel32:KERNEL32.dll
 0005:00000474       __imp__DeleteCriticalSection@4 1012b474     kernel32:KERNEL32.dll
 0005:00000478       __imp__EnterCriticalSection@4 1012b478     kernel32:KERNEL32.dll
 0005:0000047c       __imp__LeaveCriticalSection@4 1012b47c     kernel32:KERNEL32.dll
 0005:00000480       __imp__FatalAppExitA@8     1012b480     kernel32:KERNEL32.dll
 0005:00000484       __imp__TerminateProcess@8  1012b484     kernel32:KERNEL32.dll
 0005:00000488       __imp__GetCurrentProcess@0 1012b488     kernel32:KERNEL32.dll
 0005:0000048c       __imp__ExitProcess@4       1012b48c     kernel32:KERNEL32.dll
 0005:00000490       __imp__CloseHandle@4       1012b490     kernel32:KERNEL32.dll
 0005:00000494       __imp__ReadFile@20         1012b494     kernel32:KERNEL32.dll
 0005:00000498       __imp__RtlUnwind@16        1012b498     kernel32:KERNEL32.dll
 0005:0000049c       __imp__GetCurrentDirectoryA@8 1012b49c     kernel32:KERNEL32.dll
 0005:000004a0       __imp__SetCurrentDirectoryA@4 1012b4a0     kernel32:KERNEL32.dll
 0005:000004a4       __imp__SetHandleCount@4    1012b4a4     kernel32:KERNEL32.dll
 0005:000004a8       __imp__GetStartupInfoA@4   1012b4a8     kernel32:KERNEL32.dll
 0005:000004ac       __imp__SetConsoleCtrlHandler@8 1012b4ac     kernel32:KERNEL32.dll
 0005:000004b0       __imp__LoadLibraryW@4      1012b4b0     kernel32:KERNEL32.dll
 0005:000004b4       __imp__FreeEnvironmentStringsA@4 1012b4b4     kernel32:KERNEL32.dll
 0005:000004b8       __imp__GetEnvironmentStrings@0 1012b4b8     kernel32:KERNEL32.dll
 0005:000004bc       __imp__FreeEnvironmentStringsW@4 1012b4bc     kernel32:KERNEL32.dll
 0005:000004c0       __imp__GetEnvironmentStringsW@0 1012b4c0     kernel32:KERNEL32.dll
 0005:000004c4       __imp__QueryPerformanceCounter@4 1012b4c4     kernel32:KERNEL32.dll
 0005:000004c8       __imp__GetTickCount@0      1012b4c8     kernel32:KERNEL32.dll
 0005:000004cc       __imp__GetCurrentProcessId@0 1012b4cc     kernel32:KERNEL32.dll
 0005:000004d0       \177KERNEL32_NULL_THUNK_DATA 1012b4d0     kernel32:KERNEL32.dll
 0005:0000054c       __imp_?ConColorMsg@@YAXABVColor@@PBDZZ 1012b54c     tier0:tier0.dll
 0005:00000550       __imp_?ConMsg@@YAXPBDZZ    1012b550     tier0:tier0.dll
 0005:00000554       __imp__Msg                 1012b554     tier0:tier0.dll
 0005:00000558       __imp__CommandLine_Tier0   1012b558     tier0:tier0.dll
 0005:0000055c       __imp__ThreadWaitForObjects 1012b55c     tier0:tier0.dll
 0005:00000560       __imp__GetThreadedLoadLibraryFunc 1012b560     tier0:tier0.dll
 0005:00000564       __imp__CreateSimpleThread  1012b564     tier0:tier0.dll
 0005:00000568       __imp__ReleaseThreadHandle 1012b568     tier0:tier0.dll
 0005:0000056c       __imp__Plat_IsInDebugSession 1012b56c     tier0:tier0.dll
 0005:00000570       __imp___AssertValidReadPtr 1012b570     tier0:tier0.dll
 0005:00000574       __imp___AssertValidWritePtr 1012b574     tier0:tier0.dll
 0005:00000578       __imp__AssertValidStringPtr 1012b578     tier0:tier0.dll
 0005:0000057c       __imp_?DevMsg@@YAXPBDZZ    1012b57c     tier0:tier0.dll
 0005:00000580       __imp__DevMsg              1012b580     tier0:tier0.dll
 0005:00000584       __imp__Warning             1012b584     tier0:tier0.dll
 0005:00000588       __imp_?LockForRead@CThreadSpinRWLock@@QAEXXZ 1012b588     tier0:tier0.dll
 0005:0000058c       __imp_?UnlockRead@CThreadSpinRWLock@@QAEXXZ 1012b58c     tier0:tier0.dll
 0005:00000590       __imp_?LockForWrite@CThreadSpinRWLock@@QAEXXZ 1012b590     tier0:tier0.dll
 0005:00000594       __imp_?UnlockWrite@CThreadSpinRWLock@@QAEXXZ 1012b594     tier0:tier0.dll
 0005:00000598       __imp_??0CThreadSpinRWLock@@QAE@XZ 1012b598     tier0:tier0.dll
 0005:0000059c       __imp__Error               1012b59c     tier0:tier0.dll
 0005:000005a0       __imp__g_pMemAlloc         1012b5a0     tier0:tier0.dll
 0005:000005a4       __imp__g_pVCR              1012b5a4     tier0:tier0.dll
 0005:000005a8       __imp___SpewInfo           1012b5a8     tier0:tier0.dll
 0005:000005ac       __imp___SpewMessage        1012b5ac     tier0:tier0.dll
 0005:000005b0       __imp__ShouldUseNewAssertDialog 1012b5b0     tier0:tier0.dll
 0005:000005b4       __imp__DoNewAssertDialog   1012b5b4     tier0:tier0.dll
 0005:000005b8       __imp___ExitOnFatalAssert  1012b5b8     tier0:tier0.dll
 0005:000005bc       \177tier0_NULL_THUNK_DATA  1012b5bc     tier0:tier0.dll
 0005:000005fc       __imp__RandomInt           1012b5fc     vstdlib:vstdlib.dll
 0005:00000600       __imp__KeyValuesSystem     1012b600     vstdlib:vstdlib.dll
 0005:00000604       \177vstdlib_NULL_THUNK_DATA 1012b604     vstdlib:vstdlib.dll
 0006:00000000       ?DBG@@3PDDD                1012d000     memoverride.obj
 0006:00000004       ___crtDebugFillThreshold   1012d004     memoverride.obj

 entry point at        0002:0000111c

